---
triple:          'x86_64-apple-darwin'
binary-path:     '/Users/macbookpro/Desktop/projects/helloworld/code_L5/oop/Date'
relocations:
  - { offsetInCU: 0x2F6F, offset: 0x2F6F, size: 0x8, addend: 0x0, symName: __ZNSt3__124__put_character_sequenceB8ue170006IcNS_11char_traitsIcEEEERNS_13basic_ostreamIT_T0_EES7_PKS4_m, symObjAddr: 0x1F0, symBinAddr: 0x100001000, symSize: 0x1F0 }
  - { offsetInCU: 0x4906, offset: 0x4906, size: 0x8, addend: 0x0, symName: __ZNSt3__1lsB8ue170006INS_11char_traitsIcEEEERNS_13basic_ostreamIcT_EES6_PKc, symObjAddr: 0xF0, symBinAddr: 0x100000F00, symSize: 0x40 }
  - { offsetInCU: 0x494C, offset: 0x494C, size: 0x8, addend: 0x0, symName: __ZNSt3__14endlB8ue170006IcNS_11char_traitsIcEEEERNS_13basic_ostreamIT_T0_EES7_, symObjAddr: 0x150, symBinAddr: 0x100000F60, symSize: 0x50 }
  - { offsetInCU: 0x498C, offset: 0x498C, size: 0x8, addend: 0x0, symName: __ZNSt3__116__pad_and_outputB8ue170006IcNS_11char_traitsIcEEEENS_19ostreambuf_iteratorIT_T0_EES6_PKS4_S8_S8_RNS_8ios_baseES4_, symObjAddr: 0x430, symBinAddr: 0x100001240, symSize: 0x220 }
  - { offsetInCU: 0x4A5C, offset: 0x4A5C, size: 0x8, addend: 0x0, symName: __ZNSt3__112__to_addressB8ue170006IcEEPT_S2_, symObjAddr: 0x960, symBinAddr: 0x100001770, symSize: 0x10 }
  - { offsetInCU: 0x4AC4, offset: 0x4AC4, size: 0x8, addend: 0x0, symName: __ZNSt3__19use_facetB8ue170006INS_5ctypeIcEEEERKT_RKNS_6localeE, symObjAddr: 0xBF0, symBinAddr: 0x100001A00, symSize: 0x30 }
  - { offsetInCU: 0x4F91, offset: 0x4F91, size: 0x8, addend: 0x0, symName: __ZNSt3__118__constexpr_strlenB8ue170006EPKc, symObjAddr: 0xC80, symBinAddr: 0x100001A90, symSize: 0x1B }
  - { offsetInCU: 0x7BBB, offset: 0x7BBB, size: 0x8, addend: 0x0, symName: __ZmiRK4DateS1_, symObjAddr: 0x0, symBinAddr: 0x100000E10, symSize: 0x70 }
  - { offsetInCU: 0x7C1F, offset: 0x7C1F, size: 0x8, addend: 0x0, symName: __ZlsRNSt3__113basic_ostreamIcNS_11char_traitsIcEEEERK4Date, symObjAddr: 0x70, symBinAddr: 0x100000E80, symSize: 0x80 }
  - { offsetInCU: 0x7C59, offset: 0x7C59, size: 0x8, addend: 0x0, symName: __ZNSt3__113basic_ostreamIcNS_11char_traitsIcEEElsB8ue170006EPFRS3_S4_E, symObjAddr: 0x130, symBinAddr: 0x100000F40, symSize: 0x20 }
  - { offsetInCU: 0x7C8B, offset: 0x7C8B, size: 0x8, addend: 0x0, symName: __ZrsRNSt3__113basic_istreamIcNS_11char_traitsIcEEEER4Date, symObjAddr: 0x1A0, symBinAddr: 0x100000FB0, symSize: 0x50 }
  - { offsetInCU: 0x7CC5, offset: 0x7CC5, size: 0x8, addend: 0x0, symName: __ZNSt3__111char_traitsIcE6lengthB8ue170006EPKc, symObjAddr: 0x3E0, symBinAddr: 0x1000011F0, symSize: 0x30 }
  - { offsetInCU: 0x7D05, offset: 0x7D05, size: 0x8, addend: 0x0, symName: __ZNKSt3__113basic_ostreamIcNS_11char_traitsIcEEE6sentrycvbB8ue170006Ev, symObjAddr: 0x410, symBinAddr: 0x100001220, symSize: 0x20 }
  - { offsetInCU: 0x7D29, offset: 0x7D29, size: 0x8, addend: 0x0, symName: __ZNSt3__119ostreambuf_iteratorIcNS_11char_traitsIcEEEC1B8ue170006ERNS_13basic_ostreamIcS2_EE, symObjAddr: 0x650, symBinAddr: 0x100001460, symSize: 0x30 }
  - { offsetInCU: 0x7D5F, offset: 0x7D5F, size: 0x8, addend: 0x0, symName: __ZNKSt3__18ios_base5flagsB8ue170006Ev, symObjAddr: 0x680, symBinAddr: 0x100001490, symSize: 0x20 }
  - { offsetInCU: 0x7D85, offset: 0x7D85, size: 0x8, addend: 0x0, symName: __ZNKSt3__19basic_iosIcNS_11char_traitsIcEEE4fillB8ue170006Ev, symObjAddr: 0x6A0, symBinAddr: 0x1000014B0, symSize: 0x70 }
  - { offsetInCU: 0x7DAB, offset: 0x7DAB, size: 0x8, addend: 0x0, symName: __ZNKSt3__119ostreambuf_iteratorIcNS_11char_traitsIcEEE6failedB8ue170006Ev, symObjAddr: 0x710, symBinAddr: 0x100001520, symSize: 0x20 }
  - { offsetInCU: 0x7DCF, offset: 0x7DCF, size: 0x8, addend: 0x0, symName: __ZNSt3__19basic_iosIcNS_11char_traitsIcEEE8setstateB8ue170006Ej, symObjAddr: 0x730, symBinAddr: 0x100001540, symSize: 0x30 }
  - { offsetInCU: 0x7E02, offset: 0x7E02, size: 0x8, addend: 0x0, symName: __ZNKSt3__18ios_base5widthB8ue170006Ev, symObjAddr: 0x770, symBinAddr: 0x100001580, symSize: 0x20 }
  - { offsetInCU: 0x7E28, offset: 0x7E28, size: 0x8, addend: 0x0, symName: __ZNSt3__115basic_streambufIcNS_11char_traitsIcEEE5sputnB8ue170006EPKcl, symObjAddr: 0x790, symBinAddr: 0x1000015A0, symSize: 0x30 }
  - { offsetInCU: 0x7E68, offset: 0x7E68, size: 0x8, addend: 0x0, symName: __ZNSt3__112basic_stringIcNS_11char_traitsIcEENS_9allocatorIcEEEC1B8ue170006Emc, symObjAddr: 0x7C0, symBinAddr: 0x1000015D0, symSize: 0x30 }
  - { offsetInCU: 0x7EAE, offset: 0x7EAE, size: 0x8, addend: 0x0, symName: __ZNSt3__112basic_stringIcNS_11char_traitsIcEENS_9allocatorIcEEE4dataB8ue170006Ev, symObjAddr: 0x7F0, symBinAddr: 0x100001600, symSize: 0x30 }
  - { offsetInCU: 0x7ED2, offset: 0x7ED2, size: 0x8, addend: 0x0, symName: __ZNSt3__18ios_base5widthB8ue170006El, symObjAddr: 0x820, symBinAddr: 0x100001630, symSize: 0x30 }
  - { offsetInCU: 0x7F16, offset: 0x7F16, size: 0x8, addend: 0x0, symName: __ZNSt3__112basic_stringIcNS_11char_traitsIcEENS_9allocatorIcEEEC2B8ue170006Emc, symObjAddr: 0x850, symBinAddr: 0x100001660, symSize: 0x50 }
  - { offsetInCU: 0x7F61, offset: 0x7F61, size: 0x8, addend: 0x0, symName: __ZNSt3__117__compressed_pairINS_12basic_stringIcNS_11char_traitsIcEENS_9allocatorIcEEE5__repES5_EC1B8ue170006INS_18__default_init_tagESA_EEOT_OT0_, symObjAddr: 0x8A0, symBinAddr: 0x1000016B0, symSize: 0x30 }
  - { offsetInCU: 0x7FB7, offset: 0x7FB7, size: 0x8, addend: 0x0, symName: __ZNSt3__117__compressed_pairINS_12basic_stringIcNS_11char_traitsIcEENS_9allocatorIcEEE5__repES5_EC2B8ue170006INS_18__default_init_tagESA_EEOT_OT0_, symObjAddr: 0x8D0, symBinAddr: 0x1000016E0, symSize: 0x30 }
  - { offsetInCU: 0x800D, offset: 0x800D, size: 0x8, addend: 0x0, symName: __ZNSt3__122__compressed_pair_elemINS_12basic_stringIcNS_11char_traitsIcEENS_9allocatorIcEEE5__repELi0ELb0EEC2B8ue170006ENS_18__default_init_tagE, symObjAddr: 0x900, symBinAddr: 0x100001710, symSize: 0x10 }
  - { offsetInCU: 0x803F, offset: 0x803F, size: 0x8, addend: 0x0, symName: __ZNSt3__122__compressed_pair_elemINS_9allocatorIcEELi1ELb1EEC2B8ue170006ENS_18__default_init_tagE, symObjAddr: 0x910, symBinAddr: 0x100001720, symSize: 0x20 }
  - { offsetInCU: 0x8071, offset: 0x8071, size: 0x8, addend: 0x0, symName: __ZNSt3__19allocatorIcEC2B8ue170006Ev, symObjAddr: 0x930, symBinAddr: 0x100001740, symSize: 0x20 }
  - { offsetInCU: 0x8099, offset: 0x8099, size: 0x8, addend: 0x0, symName: __ZNSt3__116__non_trivial_ifILb1ENS_9allocatorIcEEEC2B8ue170006Ev, symObjAddr: 0x950, symBinAddr: 0x100001760, symSize: 0x10 }
  - { offsetInCU: 0x80C1, offset: 0x80C1, size: 0x8, addend: 0x0, symName: __ZNSt3__112basic_stringIcNS_11char_traitsIcEENS_9allocatorIcEEE13__get_pointerB8ue170006Ev, symObjAddr: 0x970, symBinAddr: 0x100001780, symSize: 0x50 }
  - { offsetInCU: 0x80E5, offset: 0x80E5, size: 0x8, addend: 0x0, symName: __ZNKSt3__112basic_stringIcNS_11char_traitsIcEENS_9allocatorIcEEE9__is_longB8ue170006Ev, symObjAddr: 0x9C0, symBinAddr: 0x1000017D0, symSize: 0x30 }
  - { offsetInCU: 0x8109, offset: 0x8109, size: 0x8, addend: 0x0, symName: __ZNSt3__112basic_stringIcNS_11char_traitsIcEENS_9allocatorIcEEE18__get_long_pointerB8ue170006Ev, symObjAddr: 0x9F0, symBinAddr: 0x100001800, symSize: 0x20 }
  - { offsetInCU: 0x812D, offset: 0x812D, size: 0x8, addend: 0x0, symName: __ZNSt3__112basic_stringIcNS_11char_traitsIcEENS_9allocatorIcEEE19__get_short_pointerB8ue170006Ev, symObjAddr: 0xA10, symBinAddr: 0x100001820, symSize: 0x30 }
  - { offsetInCU: 0x8151, offset: 0x8151, size: 0x8, addend: 0x0, symName: __ZNKSt3__117__compressed_pairINS_12basic_stringIcNS_11char_traitsIcEENS_9allocatorIcEEE5__repES5_E5firstB8ue170006Ev, symObjAddr: 0xA40, symBinAddr: 0x100001850, symSize: 0x20 }
  - { offsetInCU: 0x8175, offset: 0x8175, size: 0x8, addend: 0x0, symName: __ZNKSt3__122__compressed_pair_elemINS_12basic_stringIcNS_11char_traitsIcEENS_9allocatorIcEEE5__repELi0ELb0EE5__getB8ue170006Ev, symObjAddr: 0xA60, symBinAddr: 0x100001870, symSize: 0x10 }
  - { offsetInCU: 0x8199, offset: 0x8199, size: 0x8, addend: 0x0, symName: __ZNSt3__117__compressed_pairINS_12basic_stringIcNS_11char_traitsIcEENS_9allocatorIcEEE5__repES5_E5firstB8ue170006Ev, symObjAddr: 0xA70, symBinAddr: 0x100001880, symSize: 0x20 }
  - { offsetInCU: 0x81BD, offset: 0x81BD, size: 0x8, addend: 0x0, symName: __ZNSt3__122__compressed_pair_elemINS_12basic_stringIcNS_11char_traitsIcEENS_9allocatorIcEEE5__repELi0ELb0EE5__getB8ue170006Ev, symObjAddr: 0xA90, symBinAddr: 0x1000018A0, symSize: 0x10 }
  - { offsetInCU: 0x81E1, offset: 0x81E1, size: 0x8, addend: 0x0, symName: __ZNSt3__114pointer_traitsIPcE10pointer_toB8ue170006ERc, symObjAddr: 0xAA0, symBinAddr: 0x1000018B0, symSize: 0x10 }
  - { offsetInCU: 0x8203, offset: 0x8203, size: 0x8, addend: 0x0, symName: __ZNSt3__119ostreambuf_iteratorIcNS_11char_traitsIcEEEC2B8ue170006ERNS_13basic_ostreamIcS2_EE, symObjAddr: 0xAB0, symBinAddr: 0x1000018C0, symSize: 0x50 }
  - { offsetInCU: 0x8239, offset: 0x8239, size: 0x8, addend: 0x0, symName: __ZNKSt3__19basic_iosIcNS_11char_traitsIcEEE5rdbufB8ue170006Ev, symObjAddr: 0xB00, symBinAddr: 0x100001910, symSize: 0x20 }
  - { offsetInCU: 0x825F, offset: 0x825F, size: 0x8, addend: 0x0, symName: __ZNKSt3__18ios_base5rdbufB8ue170006Ev, symObjAddr: 0xB20, symBinAddr: 0x100001930, symSize: 0x20 }
  - { offsetInCU: 0x8283, offset: 0x8283, size: 0x8, addend: 0x0, symName: __ZNSt3__111char_traitsIcE11eq_int_typeB8ue170006Eii, symObjAddr: 0xB40, symBinAddr: 0x100001950, symSize: 0x20 }
  - { offsetInCU: 0x82B5, offset: 0x82B5, size: 0x8, addend: 0x0, symName: __ZNSt3__111char_traitsIcE3eofB8ue170006Ev, symObjAddr: 0xB60, symBinAddr: 0x100001970, symSize: 0x10 }
  - { offsetInCU: 0x82C8, offset: 0x82C8, size: 0x8, addend: 0x0, symName: __ZNKSt3__19basic_iosIcNS_11char_traitsIcEEE5widenB8ue170006Ec, symObjAddr: 0xB70, symBinAddr: 0x100001980, symSize: 0x80 }
  - { offsetInCU: 0x8334, offset: 0x8334, size: 0x8, addend: 0x0, symName: __ZNKSt3__15ctypeIcE5widenB8ue170006Ec, symObjAddr: 0xC20, symBinAddr: 0x100001A30, symSize: 0x30 }
  - { offsetInCU: 0x8367, offset: 0x8367, size: 0x8, addend: 0x0, symName: __ZNSt3__18ios_base8setstateB8ue170006Ej, symObjAddr: 0xC50, symBinAddr: 0x100001A60, symSize: 0x30 }
  - { offsetInCU: 0xC312, offset: 0x147EC, size: 0x8, addend: 0x0, symName: __ZNSt3__1lsB8ue170006IcNS_11char_traitsIcEENS_9allocatorIcEEEERNS_13basic_ostreamIT_T0_EES9_RKNS_12basic_stringIS6_S7_T1_EE, symObjAddr: 0x100, symBinAddr: 0x100001BB0, symSize: 0x50 }
  - { offsetInCU: 0x10054, offset: 0x1852E, size: 0x8, addend: 0x0, symName: __ZNSt3__1neB8ue170006ERKNS_25__hash_map_const_iteratorINS_21__hash_const_iteratorIPNS_11__hash_nodeINS_17__hash_value_typeINS_12basic_stringIcNS_11char_traitsIcEENS_9allocatorIcEEEE9RateCurveEEPvEEEEEESI_, symObjAddr: 0x5D0, symBinAddr: 0x100001FD0, symSize: 0x30 }
  - { offsetInCU: 0x10091, offset: 0x1856B, size: 0x8, addend: 0x0, symName: __ZNSt3__1neB8ue170006ERKNS_25__hash_map_const_iteratorINS_21__hash_const_iteratorIPNS_11__hash_nodeINS_17__hash_value_typeINS_12basic_stringIcNS_11char_traitsIcEENS_9allocatorIcEEEE8VolCurveEEPvEEEEEESI_, symObjAddr: 0x710, symBinAddr: 0x100002110, symSize: 0x30 }
  - { offsetInCU: 0x100CE, offset: 0x185A8, size: 0x8, addend: 0x0, symName: __ZNSt3__122__make_exception_guardB8ue170006INS_6vectorI4DateNS_9allocatorIS2_EEE16__destroy_vectorEEENS_28__exception_guard_exceptionsIT_EES8_, symObjAddr: 0xCF0, symBinAddr: 0x1000026F0, symSize: 0x40 }
  - { offsetInCU: 0x10103, offset: 0x185DD, size: 0x8, addend: 0x0, symName: __ZNSt3__119__allocate_at_leastB8ue170006INS_9allocatorI4DateEEEENS_19__allocation_resultINS_16allocator_traitsIT_E7pointerEEERS6_m, symObjAddr: 0xFC0, symBinAddr: 0x1000029C0, symSize: 0x40 }
  - { offsetInCU: 0x10146, offset: 0x18620, size: 0x8, addend: 0x0, symName: __ZNSt3__13minB8ue170006ImEERKT_S3_S3_, symObjAddr: 0x10E0, symBinAddr: 0x100002AE0, symSize: 0x30 }
  - { offsetInCU: 0x10373, offset: 0x1884D, size: 0x8, addend: 0x0, symName: __ZNSt3__13minB8ue170006ImNS_6__lessIvvEEEERKT_S5_S5_T0_, symObjAddr: 0x1150, symBinAddr: 0x100002B40, symSize: 0x50 }
  - { offsetInCU: 0x10414, offset: 0x188EE, size: 0x8, addend: 0x0, symName: __ZNSt3__120__throw_length_errorB8ue170006EPKc, symObjAddr: 0x1200, symBinAddr: 0x100002BF0, symSize: 0x70 }
  - { offsetInCU: 0x1043F, offset: 0x18919, size: 0x8, addend: 0x0, symName: __ZNSt3__117__libcpp_allocateB8ue170006Emm, symObjAddr: 0x1370, symBinAddr: 0x100002D60, symSize: 0x60 }
  - { offsetInCU: 0x1049A, offset: 0x18974, size: 0x8, addend: 0x0, symName: __ZNSt3__124__is_overaligned_for_newB8ue170006Em, symObjAddr: 0x13D0, symBinAddr: 0x100002DC0, symSize: 0x20 }
  - { offsetInCU: 0x104C8, offset: 0x189A2, size: 0x8, addend: 0x0, symName: __ZNSt3__121__libcpp_operator_newB8ue170006IJmSt11align_val_tEEEPvDpT_, symObjAddr: 0x13F0, symBinAddr: 0x100002DE0, symSize: 0x30 }
  - { offsetInCU: 0x10515, offset: 0x189EF, size: 0x8, addend: 0x0, symName: __ZNSt3__121__libcpp_operator_newB8ue170006IJmEEEPvDpT_, symObjAddr: 0x1420, symBinAddr: 0x100002E10, symSize: 0x20 }
  - { offsetInCU: 0x1054E, offset: 0x18A28, size: 0x8, addend: 0x0, symName: __ZNSt3__112__to_addressB8ue170006I4DateEEPT_S3_, symObjAddr: 0x1520, symBinAddr: 0x100002F10, symSize: 0x10 }
  - { offsetInCU: 0x10583, offset: 0x18A5D, size: 0x8, addend: 0x0, symName: __ZNSt3__130__uninitialized_allocator_copyB8ue170006INS_9allocatorI4DateEEPS2_S4_S4_EET2_RT_T0_T1_S5_, symObjAddr: 0x15B0, symBinAddr: 0x100002FA0, symSize: 0x80 }
  - { offsetInCU: 0x10620, offset: 0x18AFA, size: 0x8, addend: 0x0, symName: __ZNSt3__114__unwrap_rangeB8ue170006IP4DateS2_EENS_4pairIT0_S4_EET_S6_, symObjAddr: 0x1690, symBinAddr: 0x100003080, symSize: 0x50 }
  - { offsetInCU: 0x1066C, offset: 0x18B46, size: 0x8, addend: 0x0, symName: __ZNSt3__135__uninitialized_allocator_copy_implB8ue170006INS_9allocatorI4DateEES2_S2_S2_LPv0EEEPT2_RT_PT0_SA_S6_, symObjAddr: 0x16E0, symBinAddr: 0x1000030D0, symSize: 0x30 }
  - { offsetInCU: 0x106EF, offset: 0x18BC9, size: 0x8, addend: 0x0, symName: __ZNSt3__113__unwrap_iterB8ue170006IP4DateNS_18__unwrap_iter_implIS2_Lb1EEELi0EEEDTclsrT0_8__unwrapclsr3stdE7declvalIT_EEEES6_, symObjAddr: 0x1710, symBinAddr: 0x100003100, symSize: 0x20 }
  - { offsetInCU: 0x10734, offset: 0x18C0E, size: 0x8, addend: 0x0, symName: __ZNSt3__113__rewrap_iterB8ue170006IP4DateS2_NS_18__unwrap_iter_implIS2_Lb1EEEEET_S5_T0_, symObjAddr: 0x1730, symBinAddr: 0x100003120, symSize: 0x40 }
  - { offsetInCU: 0x10789, offset: 0x18C63, size: 0x8, addend: 0x0, symName: __ZNSt3__19make_pairB8ue170006IP4DateS2_EENS_4pairINS_18__unwrap_ref_decayIT_E4typeENS4_IT0_E4typeEEEOS5_OS8_, symObjAddr: 0x1770, symBinAddr: 0x100003160, symSize: 0x30 }
  - { offsetInCU: 0x108DD, offset: 0x18DB7, size: 0x8, addend: 0x0, symName: __ZNSt3__14copyB8ue170006IP4DateS2_EET0_T_S4_S3_, symObjAddr: 0x1800, symBinAddr: 0x1000031F0, symSize: 0x40 }
  - { offsetInCU: 0x10937, offset: 0x18E11, size: 0x8, addend: 0x0, symName: __ZNSt3__16__copyB8ue170006INS_17_ClassicAlgPolicyEP4DateS3_S3_EENS_4pairIT0_T2_EES5_T1_S6_, symObjAddr: 0x1840, symBinAddr: 0x100003230, symSize: 0x40 }
  - { offsetInCU: 0x109A3, offset: 0x18E7D, size: 0x8, addend: 0x0, symName: __ZNSt3__123__dispatch_copy_or_moveB8ue170006INS_17_ClassicAlgPolicyENS_11__copy_loopIS1_EENS_14__copy_trivialEP4DateS6_S6_EENS_4pairIT2_T4_EES8_T3_S9_, symObjAddr: 0x1880, symBinAddr: 0x100003270, symSize: 0x40 }
  - { offsetInCU: 0x10A21, offset: 0x18EFB, size: 0x8, addend: 0x0, symName: __ZNSt3__121__unwrap_and_dispatchB8ue170006INS_10__overloadINS_11__copy_loopINS_17_ClassicAlgPolicyEEENS_14__copy_trivialEEEP4DateS8_S8_Li0EEENS_4pairIT0_T2_EESA_T1_SB_, symObjAddr: 0x18C0, symBinAddr: 0x1000032B0, symSize: 0xB0 }
  - { offsetInCU: 0x10B35, offset: 0x1900F, size: 0x8, addend: 0x0, symName: __ZNSt3__114__rewrap_rangeB8ue170006IP4DateS2_EET_S3_T0_, symObjAddr: 0x19B0, symBinAddr: 0x1000033A0, symSize: 0x30 }
  - { offsetInCU: 0x10B81, offset: 0x1905B, size: 0x8, addend: 0x0, symName: __ZNSt3__119__copy_trivial_implB8ue170006I4DateS1_EENS_4pairIPT_PT0_EES4_S4_S6_, symObjAddr: 0x19E0, symBinAddr: 0x1000033D0, symSize: 0x80 }
  - { offsetInCU: 0x10BE9, offset: 0x190C3, size: 0x8, addend: 0x0, symName: __ZNSt3__119__constexpr_memmoveB8ue170006I4DateS1_Li0EEEPT_S3_PT0_NS_15__element_countE, symObjAddr: 0x1A60, symBinAddr: 0x100003450, symSize: 0x50 }
  - { offsetInCU: 0x10C58, offset: 0x19132, size: 0x8, addend: 0x0, symName: __ZNSt3__19make_pairB8ue170006IRP4DateS2_EENS_4pairINS_18__unwrap_ref_decayIT_E4typeENS5_IT0_E4typeEEEOS6_OS9_, symObjAddr: 0x1AB0, symBinAddr: 0x1000034A0, symSize: 0x30 }
  - { offsetInCU: 0x10CFB, offset: 0x191D5, size: 0x8, addend: 0x0, symName: __ZNSt3__119__libcpp_deallocateB8ue170006EPvmm, symObjAddr: 0x1EB0, symBinAddr: 0x1000038A0, symSize: 0x60 }
  - { offsetInCU: 0x10D62, offset: 0x1923C, size: 0x8, addend: 0x0, symName: __ZNSt3__127__do_deallocate_handle_sizeB8ue170006IJSt11align_val_tEEEvPvmDpT_, symObjAddr: 0x1F10, symBinAddr: 0x100003900, symSize: 0x30 }
  - { offsetInCU: 0x10DB6, offset: 0x19290, size: 0x8, addend: 0x0, symName: __ZNSt3__127__do_deallocate_handle_sizeB8ue170006IJEEEvPvmDpT_, symObjAddr: 0x1F40, symBinAddr: 0x100003930, symSize: 0x20 }
  - { offsetInCU: 0x10DF6, offset: 0x192D0, size: 0x8, addend: 0x0, symName: __ZNSt3__124__libcpp_operator_deleteB8ue170006IJPvSt11align_val_tEEEvDpT_, symObjAddr: 0x1F60, symBinAddr: 0x100003950, symSize: 0x30 }
  - { offsetInCU: 0x10E40, offset: 0x1931A, size: 0x8, addend: 0x0, symName: __ZNSt3__124__libcpp_operator_deleteB8ue170006IJPvEEEvDpT_, symObjAddr: 0x1F90, symBinAddr: 0x100003980, symSize: 0x20 }
  - { offsetInCU: 0x10E76, offset: 0x19350, size: 0x8, addend: 0x0, symName: __ZNSt3__122__make_exception_guardB8ue170006INS_6vectorIdNS_9allocatorIdEEE16__destroy_vectorEEENS_28__exception_guard_exceptionsIT_EES7_, symObjAddr: 0x2220, symBinAddr: 0x100003C10, symSize: 0x40 }
  - { offsetInCU: 0x10EAB, offset: 0x19385, size: 0x8, addend: 0x0, symName: __ZNSt3__119__allocate_at_leastB8ue170006INS_9allocatorIdEEEENS_19__allocation_resultINS_16allocator_traitsIT_E7pointerEEERS5_m, symObjAddr: 0x24F0, symBinAddr: 0x100003EE0, symSize: 0x40 }
  - { offsetInCU: 0x10EEE, offset: 0x193C8, size: 0x8, addend: 0x0, symName: __ZNSt3__112__to_addressB8ue170006IdEEPT_S2_, symObjAddr: 0x2780, symBinAddr: 0x100004170, symSize: 0x10 }
  - { offsetInCU: 0x10F23, offset: 0x193FD, size: 0x8, addend: 0x0, symName: __ZNSt3__130__uninitialized_allocator_copyB8ue170006INS_9allocatorIdEEPdS3_S3_EET2_RT_T0_T1_S4_, symObjAddr: 0x2810, symBinAddr: 0x100004200, symSize: 0x80 }
  - { offsetInCU: 0x10FC0, offset: 0x1949A, size: 0x8, addend: 0x0, symName: __ZNSt3__114__unwrap_rangeB8ue170006IPdS1_EENS_4pairIT0_S3_EET_S5_, symObjAddr: 0x28F0, symBinAddr: 0x1000042E0, symSize: 0x50 }
  - { offsetInCU: 0x1100C, offset: 0x194E6, size: 0x8, addend: 0x0, symName: __ZNSt3__135__uninitialized_allocator_copy_implB8ue170006INS_9allocatorIdEEdddLPv0EEEPT2_RT_PT0_S9_S5_, symObjAddr: 0x2940, symBinAddr: 0x100004330, symSize: 0x30 }
  - { offsetInCU: 0x1108F, offset: 0x19569, size: 0x8, addend: 0x0, symName: __ZNSt3__113__unwrap_iterB8ue170006IPdNS_18__unwrap_iter_implIS1_Lb1EEELi0EEEDTclsrT0_8__unwrapclsr3stdE7declvalIT_EEEES5_, symObjAddr: 0x2970, symBinAddr: 0x100004360, symSize: 0x20 }
  - { offsetInCU: 0x110D4, offset: 0x195AE, size: 0x8, addend: 0x0, symName: __ZNSt3__113__rewrap_iterB8ue170006IPdS1_NS_18__unwrap_iter_implIS1_Lb1EEEEET_S4_T0_, symObjAddr: 0x2990, symBinAddr: 0x100004380, symSize: 0x40 }
  - { offsetInCU: 0x11129, offset: 0x19603, size: 0x8, addend: 0x0, symName: __ZNSt3__19make_pairB8ue170006IPdS1_EENS_4pairINS_18__unwrap_ref_decayIT_E4typeENS3_IT0_E4typeEEEOS4_OS7_, symObjAddr: 0x29D0, symBinAddr: 0x1000043C0, symSize: 0x30 }
  - { offsetInCU: 0x1127D, offset: 0x19757, size: 0x8, addend: 0x0, symName: __ZNSt3__14copyB8ue170006IPdS1_EET0_T_S3_S2_, symObjAddr: 0x2A60, symBinAddr: 0x100004450, symSize: 0x40 }
  - { offsetInCU: 0x112D7, offset: 0x197B1, size: 0x8, addend: 0x0, symName: __ZNSt3__16__copyB8ue170006INS_17_ClassicAlgPolicyEPdS2_S2_EENS_4pairIT0_T2_EES4_T1_S5_, symObjAddr: 0x2AA0, symBinAddr: 0x100004490, symSize: 0x40 }
  - { offsetInCU: 0x11343, offset: 0x1981D, size: 0x8, addend: 0x0, symName: __ZNSt3__123__dispatch_copy_or_moveB8ue170006INS_17_ClassicAlgPolicyENS_11__copy_loopIS1_EENS_14__copy_trivialEPdS5_S5_EENS_4pairIT2_T4_EES7_T3_S8_, symObjAddr: 0x2AE0, symBinAddr: 0x1000044D0, symSize: 0x40 }
  - { offsetInCU: 0x113C1, offset: 0x1989B, size: 0x8, addend: 0x0, symName: __ZNSt3__121__unwrap_and_dispatchB8ue170006INS_10__overloadINS_11__copy_loopINS_17_ClassicAlgPolicyEEENS_14__copy_trivialEEEPdS7_S7_Li0EEENS_4pairIT0_T2_EES9_T1_SA_, symObjAddr: 0x2B20, symBinAddr: 0x100004510, symSize: 0xB0 }
  - { offsetInCU: 0x11451, offset: 0x1992B, size: 0x8, addend: 0x0, symName: __ZNSt3__114__rewrap_rangeB8ue170006IPdS1_EET_S2_T0_, symObjAddr: 0x2C10, symBinAddr: 0x100004600, symSize: 0x30 }
  - { offsetInCU: 0x1149D, offset: 0x19977, size: 0x8, addend: 0x0, symName: __ZNSt3__119__copy_trivial_implB8ue170006IddEENS_4pairIPT_PT0_EES3_S3_S5_, symObjAddr: 0x2C40, symBinAddr: 0x100004630, symSize: 0x70 }
  - { offsetInCU: 0x11505, offset: 0x199DF, size: 0x8, addend: 0x0, symName: __ZNSt3__119__constexpr_memmoveB8ue170006IddLi0EEEPT_S2_PT0_NS_15__element_countE, symObjAddr: 0x2CB0, symBinAddr: 0x1000046A0, symSize: 0x50 }
  - { offsetInCU: 0x11574, offset: 0x19A4E, size: 0x8, addend: 0x0, symName: __ZNSt3__19make_pairB8ue170006IRPdS1_EENS_4pairINS_18__unwrap_ref_decayIT_E4typeENS4_IT0_E4typeEEEOS5_OS8_, symObjAddr: 0x2D00, symBinAddr: 0x1000046F0, symSize: 0x30 }
  - { offsetInCU: 0x11617, offset: 0x19AF1, size: 0x8, addend: 0x0, symName: __ZNSt3__112__to_addressB8ue170006IKcEEPT_S3_, symObjAddr: 0x3EF0, symBinAddr: 0x100004E40, symSize: 0x10 }
  - { offsetInCU: 0x1167F, offset: 0x19B59, size: 0x8, addend: 0x0, symName: __ZNSt3__13maxB8ue170006ImEERKT_S3_S3_, symObjAddr: 0x43E0, symBinAddr: 0x100005330, symSize: 0x30 }
  - { offsetInCU: 0x116C2, offset: 0x19B9C, size: 0x8, addend: 0x0, symName: __ZNSt3__13maxB8ue170006ImNS_6__lessIvvEEEERKT_S5_S5_T0_, symObjAddr: 0x4410, symBinAddr: 0x100005360, symSize: 0x50 }
  - { offsetInCU: 0x1171C, offset: 0x19BF6, size: 0x8, addend: 0x0, symName: __ZNSt3__142__uninitialized_allocator_move_if_noexceptB8ue170006INS_9allocatorI4DateEENS_16reverse_iteratorIPS2_EES6_S2_vEET1_RT_T0_SA_S7_, symObjAddr: 0x4650, symBinAddr: 0x1000055A0, symSize: 0x70 }
  - { offsetInCU: 0x11799, offset: 0x19C73, size: 0x8, addend: 0x0, symName: __ZNSt3__14swapB8ue170006IP4DateEENS_9enable_ifIXaasr21is_move_constructibleIT_EE5valuesr18is_move_assignableIS4_EE5valueEvE4typeERS4_S7_, symObjAddr: 0x4710, symBinAddr: 0x100005660, symSize: 0x40 }
  - { offsetInCU: 0x117EA, offset: 0x19CC4, size: 0x8, addend: 0x0, symName: __ZNSt3__14moveB8ue170006INS_16reverse_iteratorIP4DateEES4_EET0_T_S6_S5_, symObjAddr: 0x4750, symBinAddr: 0x1000056A0, symSize: 0x80 }
  - { offsetInCU: 0x11844, offset: 0x19D1E, size: 0x8, addend: 0x0, symName: __ZNSt3__16__moveB8ue170006INS_17_ClassicAlgPolicyENS_16reverse_iteratorIP4DateEES5_S5_EENS_4pairIT0_T2_EES7_T1_S8_, symObjAddr: 0x47D0, symBinAddr: 0x100005720, symSize: 0x90 }
  - { offsetInCU: 0x118B0, offset: 0x19D8A, size: 0x8, addend: 0x0, symName: __ZNSt3__123__dispatch_copy_or_moveB8ue170006INS_17_ClassicAlgPolicyENS_11__move_loopIS1_EENS_14__move_trivialENS_16reverse_iteratorIP4DateEES8_S8_EENS_4pairIT2_T4_EESA_T3_SB_, symObjAddr: 0x4860, symBinAddr: 0x1000057B0, symSize: 0x90 }
  - { offsetInCU: 0x1192E, offset: 0x19E08, size: 0x8, addend: 0x0, symName: __ZNSt3__121__unwrap_and_dispatchB8ue170006INS_10__overloadINS_11__move_loopINS_17_ClassicAlgPolicyEEENS_14__move_trivialEEENS_16reverse_iteratorIP4DateEESA_SA_Li0EEENS_4pairIT0_T2_EESC_T1_SD_, symObjAddr: 0x48F0, symBinAddr: 0x100005840, symSize: 0x210 }
  - { offsetInCU: 0x119BE, offset: 0x19E98, size: 0x8, addend: 0x0, symName: __ZNSt3__114__unwrap_rangeB8ue170006INS_16reverse_iteratorIP4DateEES4_EENS_4pairIT0_S6_EET_S8_, symObjAddr: 0x4B00, symBinAddr: 0x100005A50, symSize: 0x90 }
  - { offsetInCU: 0x11B79, offset: 0x1A053, size: 0x8, addend: 0x0, symName: __ZNSt3__113__unwrap_iterB8ue170006INS_16reverse_iteratorIP4DateEENS_18__unwrap_iter_implIS4_Lb0EEELi0EEEDTclsrT0_8__unwrapclsr3stdE7declvalIT_EEEES8_, symObjAddr: 0x4C30, symBinAddr: 0x100005B80, symSize: 0x40 }
  - { offsetInCU: 0x11BBE, offset: 0x1A098, size: 0x8, addend: 0x0, symName: __ZNSt3__19make_pairB8ue170006INS_16reverse_iteratorIP4DateEES4_EENS_4pairINS_18__unwrap_ref_decayIT_E4typeENS6_IT0_E4typeEEEOS7_OSA_, symObjAddr: 0x4C70, symBinAddr: 0x100005BC0, symSize: 0x30 }
  - { offsetInCU: 0x11C0D, offset: 0x1A0E7, size: 0x8, addend: 0x0, symName: __ZNSt3__114__rewrap_rangeB8ue170006INS_16reverse_iteratorIP4DateEES4_EET_S5_T0_, symObjAddr: 0x4CA0, symBinAddr: 0x100005BF0, symSize: 0x60 }
  - { offsetInCU: 0x11C59, offset: 0x1A133, size: 0x8, addend: 0x0, symName: __ZNSt3__113__rewrap_iterB8ue170006INS_16reverse_iteratorIP4DateEES4_NS_18__unwrap_iter_implIS4_Lb0EEEEET_S7_T0_, symObjAddr: 0x4D00, symBinAddr: 0x100005C50, symSize: 0x70 }
  - { offsetInCU: 0x11CAE, offset: 0x1A188, size: 0x8, addend: 0x0, symName: __ZNSt3__1neB8ue170006IP4DateS2_EEbRKNS_16reverse_iteratorIT_EERKNS3_IT0_EE, symObjAddr: 0x4D70, symBinAddr: 0x100005CC0, symSize: 0x40 }
  - { offsetInCU: 0x11DE1, offset: 0x1A2BB, size: 0x8, addend: 0x0, symName: __ZNSt3__142__uninitialized_allocator_move_if_noexceptB8ue170006INS_9allocatorIdEENS_16reverse_iteratorIPdEES5_dvEET1_RT_T0_S9_S6_, symObjAddr: 0x56C0, symBinAddr: 0x100006610, symSize: 0x70 }
  - { offsetInCU: 0x11E5E, offset: 0x1A338, size: 0x8, addend: 0x0, symName: __ZNSt3__14swapB8ue170006IPdEENS_9enable_ifIXaasr21is_move_constructibleIT_EE5valuesr18is_move_assignableIS3_EE5valueEvE4typeERS3_S6_, symObjAddr: 0x5780, symBinAddr: 0x1000066D0, symSize: 0x40 }
  - { offsetInCU: 0x11EAF, offset: 0x1A389, size: 0x8, addend: 0x0, symName: __ZNSt3__14moveB8ue170006INS_16reverse_iteratorIPdEES3_EET0_T_S5_S4_, symObjAddr: 0x57C0, symBinAddr: 0x100006710, symSize: 0x80 }
  - { offsetInCU: 0x11F09, offset: 0x1A3E3, size: 0x8, addend: 0x0, symName: __ZNSt3__16__moveB8ue170006INS_17_ClassicAlgPolicyENS_16reverse_iteratorIPdEES4_S4_EENS_4pairIT0_T2_EES6_T1_S7_, symObjAddr: 0x5840, symBinAddr: 0x100006790, symSize: 0x90 }
  - { offsetInCU: 0x11F75, offset: 0x1A44F, size: 0x8, addend: 0x0, symName: __ZNSt3__123__dispatch_copy_or_moveB8ue170006INS_17_ClassicAlgPolicyENS_11__move_loopIS1_EENS_14__move_trivialENS_16reverse_iteratorIPdEES7_S7_EENS_4pairIT2_T4_EES9_T3_SA_, symObjAddr: 0x58D0, symBinAddr: 0x100006820, symSize: 0x90 }
  - { offsetInCU: 0x11FF3, offset: 0x1A4CD, size: 0x8, addend: 0x0, symName: __ZNSt3__121__unwrap_and_dispatchB8ue170006INS_10__overloadINS_11__move_loopINS_17_ClassicAlgPolicyEEENS_14__move_trivialEEENS_16reverse_iteratorIPdEES9_S9_Li0EEENS_4pairIT0_T2_EESB_T1_SC_, symObjAddr: 0x5960, symBinAddr: 0x1000068B0, symSize: 0x210 }
  - { offsetInCU: 0x12083, offset: 0x1A55D, size: 0x8, addend: 0x0, symName: __ZNSt3__114__unwrap_rangeB8ue170006INS_16reverse_iteratorIPdEES3_EENS_4pairIT0_S5_EET_S7_, symObjAddr: 0x5B70, symBinAddr: 0x100006AC0, symSize: 0x90 }
  - { offsetInCU: 0x121A4, offset: 0x1A67E, size: 0x8, addend: 0x0, symName: __ZNSt3__113__unwrap_iterB8ue170006INS_16reverse_iteratorIPdEENS_18__unwrap_iter_implIS3_Lb0EEELi0EEEDTclsrT0_8__unwrapclsr3stdE7declvalIT_EEEES7_, symObjAddr: 0x5CA0, symBinAddr: 0x100006BF0, symSize: 0x40 }
  - { offsetInCU: 0x121E9, offset: 0x1A6C3, size: 0x8, addend: 0x0, symName: __ZNSt3__19make_pairB8ue170006INS_16reverse_iteratorIPdEES3_EENS_4pairINS_18__unwrap_ref_decayIT_E4typeENS5_IT0_E4typeEEEOS6_OS9_, symObjAddr: 0x5CE0, symBinAddr: 0x100006C30, symSize: 0x30 }
  - { offsetInCU: 0x12238, offset: 0x1A712, size: 0x8, addend: 0x0, symName: __ZNSt3__114__rewrap_rangeB8ue170006INS_16reverse_iteratorIPdEES3_EET_S4_T0_, symObjAddr: 0x5D10, symBinAddr: 0x100006C60, symSize: 0x60 }
  - { offsetInCU: 0x12284, offset: 0x1A75E, size: 0x8, addend: 0x0, symName: __ZNSt3__113__rewrap_iterB8ue170006INS_16reverse_iteratorIPdEES3_NS_18__unwrap_iter_implIS3_Lb0EEEEET_S6_T0_, symObjAddr: 0x5D70, symBinAddr: 0x100006CC0, symSize: 0x70 }
  - { offsetInCU: 0x122D9, offset: 0x1A7B3, size: 0x8, addend: 0x0, symName: __ZNSt3__1neB8ue170006IPdS1_EEbRKNS_16reverse_iteratorIT_EERKNS2_IT0_EE, symObjAddr: 0x5DE0, symBinAddr: 0x100006D30, symSize: 0x40 }
  - { offsetInCU: 0x12393, offset: 0x1A86D, size: 0x8, addend: 0x0, symName: __ZNSt3__1neB8ue170006ERKNS_21__hash_const_iteratorIPNS_11__hash_nodeINS_17__hash_value_typeINS_12basic_stringIcNS_11char_traitsIcEENS_9allocatorIcEEEE9RateCurveEEPvEEEESG_, symObjAddr: 0x6270, symBinAddr: 0x1000071C0, symSize: 0x30 }
  - { offsetInCU: 0x123D0, offset: 0x1A8AA, size: 0x8, addend: 0x0, symName: __ZNSt3__1eqB8ue170006ERKNS_21__hash_const_iteratorIPNS_11__hash_nodeINS_17__hash_value_typeINS_12basic_stringIcNS_11char_traitsIcEENS_9allocatorIcEEEE9RateCurveEEPvEEEESG_, symObjAddr: 0x62A0, symBinAddr: 0x1000071F0, symSize: 0x30 }
  - { offsetInCU: 0x12473, offset: 0x1A94D, size: 0x8, addend: 0x0, symName: __ZNSt3__17launderB8ue170006IKNS_4pairIKNS_12basic_stringIcNS_11char_traitsIcEENS_9allocatorIcEEEE9RateCurveEEEEPT_SD_, symObjAddr: 0x6380, symBinAddr: 0x1000072D0, symSize: 0x20 }
  - { offsetInCU: 0x124AA, offset: 0x1A984, size: 0x8, addend: 0x0, symName: __ZNSt3__19__launderB8ue170006IKNS_4pairIKNS_12basic_stringIcNS_11char_traitsIcEENS_9allocatorIcEEEE9RateCurveEEEEPT_SD_, symObjAddr: 0x63A0, symBinAddr: 0x1000072F0, symSize: 0x10 }
  - { offsetInCU: 0x124E1, offset: 0x1A9BB, size: 0x8, addend: 0x0, symName: __ZNSt3__1neB8ue170006ERKNS_21__hash_const_iteratorIPNS_11__hash_nodeINS_17__hash_value_typeINS_12basic_stringIcNS_11char_traitsIcEENS_9allocatorIcEEEE8VolCurveEEPvEEEESG_, symObjAddr: 0x64E0, symBinAddr: 0x100007430, symSize: 0x30 }
  - { offsetInCU: 0x1251E, offset: 0x1A9F8, size: 0x8, addend: 0x0, symName: __ZNSt3__1eqB8ue170006ERKNS_21__hash_const_iteratorIPNS_11__hash_nodeINS_17__hash_value_typeINS_12basic_stringIcNS_11char_traitsIcEENS_9allocatorIcEEEE8VolCurveEEPvEEEESG_, symObjAddr: 0x6510, symBinAddr: 0x100007460, symSize: 0x30 }
  - { offsetInCU: 0x125C1, offset: 0x1AA9B, size: 0x8, addend: 0x0, symName: __ZNSt3__17launderB8ue170006IKNS_4pairIKNS_12basic_stringIcNS_11char_traitsIcEENS_9allocatorIcEEEE8VolCurveEEEEPT_SD_, symObjAddr: 0x65F0, symBinAddr: 0x100007540, symSize: 0x20 }
  - { offsetInCU: 0x125F8, offset: 0x1AAD2, size: 0x8, addend: 0x0, symName: __ZNSt3__19__launderB8ue170006IKNS_4pairIKNS_12basic_stringIcNS_11char_traitsIcEENS_9allocatorIcEEEE8VolCurveEEEEPT_SD_, symObjAddr: 0x6610, symBinAddr: 0x100007560, symSize: 0x10 }
  - { offsetInCU: 0x12654, offset: 0x1AB2E, size: 0x8, addend: 0x0, symName: __ZNSt3__116__constrain_hashB8ue170006Emm, symObjAddr: 0x6D60, symBinAddr: 0x100007CB0, symSize: 0x80 }
  - { offsetInCU: 0x1268E, offset: 0x1AB68, size: 0x8, addend: 0x0, symName: __ZNSt3__116__is_hash_power2B8ue170006Em, symObjAddr: 0x7040, symBinAddr: 0x100007F90, symSize: 0x40 }
  - { offsetInCU: 0x126BA, offset: 0x1AB94, size: 0x8, addend: 0x0, symName: __ZNSt3__116__do_string_hashB8ue170006IPKcEEmT_S3_, symObjAddr: 0x7270, symBinAddr: 0x1000081C0, symSize: 0x40 }
  - { offsetInCU: 0x12700, offset: 0x1ABDA, size: 0x8, addend: 0x0, symName: __ZNSt3__110__loadwordB8ue170006ImEET_PKv, symObjAddr: 0x7B60, symBinAddr: 0x100008AB0, symSize: 0x20 }
  - { offsetInCU: 0x12743, offset: 0x1AC1D, size: 0x8, addend: 0x0, symName: __ZNSt3__14swapB8ue170006ImEENS_9enable_ifIXaasr21is_move_constructibleIT_EE5valuesr18is_move_assignableIS2_EE5valueEvE4typeERS2_S5_, symObjAddr: 0x7D20, symBinAddr: 0x100008C70, symSize: 0x40 }
  - { offsetInCU: 0x12794, offset: 0x1AC6E, size: 0x8, addend: 0x0, symName: __ZNSt3__110__loadwordB8ue170006IjEET_PKv, symObjAddr: 0x7DB0, symBinAddr: 0x100008D00, symSize: 0x20 }
  - { offsetInCU: 0x127D7, offset: 0x1ACB1, size: 0x8, addend: 0x0, symName: __ZNSt3__1eqB8ue170006INS_9allocatorIcEEEEbRKNS_12basic_stringIcNS_11char_traitsIcEET_EES9_, symObjAddr: 0x8030, symBinAddr: 0x100008F80, symSize: 0x110 }
  - { offsetInCU: 0x12868, offset: 0x1AD42, size: 0x8, addend: 0x0, symName: __ZNSt3__17launderB8ue170006INS_4pairIKNS_12basic_stringIcNS_11char_traitsIcEENS_9allocatorIcEEEE9RateCurveEEEEPT_SC_, symObjAddr: 0x8580, symBinAddr: 0x1000094D0, symSize: 0x20 }
  - { offsetInCU: 0x1289F, offset: 0x1AD79, size: 0x8, addend: 0x0, symName: __ZNSt3__19__launderB8ue170006INS_4pairIKNS_12basic_stringIcNS_11char_traitsIcEENS_9allocatorIcEEEE9RateCurveEEEEPT_SC_, symObjAddr: 0x85A0, symBinAddr: 0x1000094F0, symSize: 0x10 }
  - { offsetInCU: 0x128D6, offset: 0x1ADB0, size: 0x8, addend: 0x0, symName: __ZNSt3__116__next_hash_pow2B8ue170006Em, symObjAddr: 0x8AC0, symBinAddr: 0x100009A10, symSize: 0x60 }
  - { offsetInCU: 0x12921, offset: 0x1ADFB, size: 0x8, addend: 0x0, symName: __ZNSt3__112__libcpp_clzB8ue170006Em, symObjAddr: 0x8E20, symBinAddr: 0x100009D70, symSize: 0x20 }
  - { offsetInCU: 0x13220, offset: 0x1B6FA, size: 0x8, addend: 0x0, symName: __ZSt28__throw_bad_array_new_lengthB8ue170006v, symObjAddr: 0x1330, symBinAddr: 0x100002D20, symSize: 0x40 }
  - { offsetInCU: 0x13847, offset: 0x1BD21, size: 0x8, addend: 0x0, symName: __ZNSt3__16vectorI4DateNS_9allocatorIS1_EEE26__swap_out_circular_bufferERNS_14__split_bufferIS1_RS3_EE, symObjAddr: 0x42A0, symBinAddr: 0x1000051F0, symSize: 0x120 }
  - { offsetInCU: 0x1389C, offset: 0x1BD76, size: 0x8, addend: 0x0, symName: __ZNSt3__16vectorIdNS_9allocatorIdEEE26__swap_out_circular_bufferERNS_14__split_bufferIdRS2_EE, symObjAddr: 0x5380, symBinAddr: 0x1000062D0, symSize: 0x120 }
  - { offsetInCU: 0x1610B, offset: 0x1E5E5, size: 0x8, addend: 0x0, symName: __ZNK9RateCurve7displayEv, symObjAddr: 0x0, symBinAddr: 0x100001AB0, symSize: 0x100 }
  - { offsetInCU: 0x1614F, offset: 0x1E629, size: 0x8, addend: 0x0, symName: __ZNKSt3__16vectorI4DateNS_9allocatorIS1_EEE4sizeB8ue170006Ev, symObjAddr: 0x200, symBinAddr: 0x100001C00, symSize: 0x30 }
  - { offsetInCU: 0x16172, offset: 0x1E64C, size: 0x8, addend: 0x0, symName: __ZNKSt3__16vectorI4DateNS_9allocatorIS1_EEEixB8ue170006Em, symObjAddr: 0x230, symBinAddr: 0x100001C30, symSize: 0x20 }
  - { offsetInCU: 0x161A7, offset: 0x1E681, size: 0x8, addend: 0x0, symName: __ZNKSt3__16vectorIdNS_9allocatorIdEEEixB8ue170006Em, symObjAddr: 0x250, symBinAddr: 0x100001C50, symSize: 0x20 }
  - { offsetInCU: 0x161DD, offset: 0x1E6B7, size: 0x8, addend: 0x0, symName: __ZN9RateCurve7addRateE4Dated, symObjAddr: 0x270, symBinAddr: 0x100001C70, symSize: 0x60 }
  - { offsetInCU: 0x1621F, offset: 0x1E6F9, size: 0x8, addend: 0x0, symName: __ZNSt3__16vectorI4DateNS_9allocatorIS1_EEE9push_backB8ue170006ERKS1_, symObjAddr: 0x2D0, symBinAddr: 0x100001CD0, symSize: 0x60 }
  - { offsetInCU: 0x16254, offset: 0x1E72E, size: 0x8, addend: 0x0, symName: __ZNSt3__16vectorIdNS_9allocatorIdEEE9push_backB8ue170006ERKd, symObjAddr: 0x330, symBinAddr: 0x100001D30, symSize: 0x60 }
  - { offsetInCU: 0x1628A, offset: 0x1E764, size: 0x8, addend: 0x0, symName: __ZNK9RateCurve7getRateE4Date, symObjAddr: 0x390, symBinAddr: 0x100001D90, symSize: 0x30 }
  - { offsetInCU: 0x162BF, offset: 0x1E799, size: 0x8, addend: 0x0, symName: __ZNK8VolCurve7displayEv, symObjAddr: 0x3C0, symBinAddr: 0x100001DC0, symSize: 0x10 }
  - { offsetInCU: 0x16959, offset: 0x1EE33, size: 0x8, addend: 0x0, symName: __ZNK6Market5PrintEv, symObjAddr: 0x3D0, symBinAddr: 0x100001DD0, symSize: 0x1A0 }
  - { offsetInCU: 0x16A19, offset: 0x1EEF3, size: 0x8, addend: 0x0, symName: __ZNKSt3__113unordered_mapINS_12basic_stringIcNS_11char_traitsIcEENS_9allocatorIcEEEE9RateCurveNS_4hashIS6_EENS_8equal_toIS6_EENS4_INS_4pairIKS6_S7_EEEEE5beginB8ue170006Ev, symObjAddr: 0x570, symBinAddr: 0x100001F70, symSize: 0x30 }
  - { offsetInCU: 0x16A3D, offset: 0x1EF17, size: 0x8, addend: 0x0, symName: __ZNKSt3__113unordered_mapINS_12basic_stringIcNS_11char_traitsIcEENS_9allocatorIcEEEE9RateCurveNS_4hashIS6_EENS_8equal_toIS6_EENS4_INS_4pairIKS6_S7_EEEEE3endB8ue170006Ev, symObjAddr: 0x5A0, symBinAddr: 0x100001FA0, symSize: 0x30 }
  - { offsetInCU: 0x16A61, offset: 0x1EF3B, size: 0x8, addend: 0x0, symName: __ZNKSt3__125__hash_map_const_iteratorINS_21__hash_const_iteratorIPNS_11__hash_nodeINS_17__hash_value_typeINS_12basic_stringIcNS_11char_traitsIcEENS_9allocatorIcEEEE9RateCurveEEPvEEEEEdeB8ue170006Ev, symObjAddr: 0x600, symBinAddr: 0x100002000, symSize: 0x30 }
  - { offsetInCU: 0x16A85, offset: 0x1EF5F, size: 0x8, addend: 0x0, symName: __ZNSt3__14pairIKNS_12basic_stringIcNS_11char_traitsIcEENS_9allocatorIcEEEE9RateCurveEC1B8ue170006ERKS9_, symObjAddr: 0x630, symBinAddr: 0x100002030, symSize: 0x30 }
  - { offsetInCU: 0x16AB7, offset: 0x1EF91, size: 0x8, addend: 0x0, symName: __ZNSt3__14pairIKNS_12basic_stringIcNS_11char_traitsIcEENS_9allocatorIcEEEE9RateCurveED1Ev, symObjAddr: 0x660, symBinAddr: 0x100002060, symSize: 0x20 }
  - { offsetInCU: 0x16AE2, offset: 0x1EFBC, size: 0x8, addend: 0x0, symName: __ZNSt3__125__hash_map_const_iteratorINS_21__hash_const_iteratorIPNS_11__hash_nodeINS_17__hash_value_typeINS_12basic_stringIcNS_11char_traitsIcEENS_9allocatorIcEEEE9RateCurveEEPvEEEEEppB8ue170006Ev, symObjAddr: 0x680, symBinAddr: 0x100002080, symSize: 0x30 }
  - { offsetInCU: 0x16B06, offset: 0x1EFE0, size: 0x8, addend: 0x0, symName: __ZNKSt3__113unordered_mapINS_12basic_stringIcNS_11char_traitsIcEENS_9allocatorIcEEEE8VolCurveNS_4hashIS6_EENS_8equal_toIS6_EENS4_INS_4pairIKS6_S7_EEEEE5beginB8ue170006Ev, symObjAddr: 0x6B0, symBinAddr: 0x1000020B0, symSize: 0x30 }
  - { offsetInCU: 0x16B2A, offset: 0x1F004, size: 0x8, addend: 0x0, symName: __ZNKSt3__113unordered_mapINS_12basic_stringIcNS_11char_traitsIcEENS_9allocatorIcEEEE8VolCurveNS_4hashIS6_EENS_8equal_toIS6_EENS4_INS_4pairIKS6_S7_EEEEE3endB8ue170006Ev, symObjAddr: 0x6E0, symBinAddr: 0x1000020E0, symSize: 0x30 }
  - { offsetInCU: 0x16B4E, offset: 0x1F028, size: 0x8, addend: 0x0, symName: __ZNKSt3__125__hash_map_const_iteratorINS_21__hash_const_iteratorIPNS_11__hash_nodeINS_17__hash_value_typeINS_12basic_stringIcNS_11char_traitsIcEENS_9allocatorIcEEEE8VolCurveEEPvEEEEEdeB8ue170006Ev, symObjAddr: 0x740, symBinAddr: 0x100002140, symSize: 0x30 }
  - { offsetInCU: 0x16B72, offset: 0x1F04C, size: 0x8, addend: 0x0, symName: __ZNSt3__14pairIKNS_12basic_stringIcNS_11char_traitsIcEENS_9allocatorIcEEEE8VolCurveEC1B8ue170006ERKS9_, symObjAddr: 0x770, symBinAddr: 0x100002170, symSize: 0x30 }
  - { offsetInCU: 0x16BA4, offset: 0x1F07E, size: 0x8, addend: 0x0, symName: __ZNSt3__14pairIKNS_12basic_stringIcNS_11char_traitsIcEENS_9allocatorIcEEEE8VolCurveED1Ev, symObjAddr: 0x7A0, symBinAddr: 0x1000021A0, symSize: 0x20 }
  - { offsetInCU: 0x16BCF, offset: 0x1F0A9, size: 0x8, addend: 0x0, symName: __ZNSt3__125__hash_map_const_iteratorINS_21__hash_const_iteratorIPNS_11__hash_nodeINS_17__hash_value_typeINS_12basic_stringIcNS_11char_traitsIcEENS_9allocatorIcEEEE8VolCurveEEPvEEEEEppB8ue170006Ev, symObjAddr: 0x7C0, symBinAddr: 0x1000021C0, symSize: 0x30 }
  - { offsetInCU: 0x16BF3, offset: 0x1F0CD, size: 0x8, addend: 0x0, symName: __ZN6Market8addCurveERKNSt3__112basic_stringIcNS0_11char_traitsIcEENS0_9allocatorIcEEEERK9RateCurve, symObjAddr: 0x7F0, symBinAddr: 0x1000021F0, symSize: 0x40 }
  - { offsetInCU: 0x16C36, offset: 0x1F110, size: 0x8, addend: 0x0, symName: __ZNSt3__113unordered_mapINS_12basic_stringIcNS_11char_traitsIcEENS_9allocatorIcEEEE9RateCurveNS_4hashIS6_EENS_8equal_toIS6_EENS4_INS_4pairIKS6_S7_EEEEE7emplaceB8ue170006IJRSD_RKS7_EEENSC_INS_19__hash_map_iteratorINS_15__hash_iteratorIPNS_11__hash_nodeINS_17__hash_value_typeIS6_S7_EEPvEEEEEEbEEDpOT_, symObjAddr: 0x830, symBinAddr: 0x100002230, symSize: 0x50 }
  - { offsetInCU: 0x16C87, offset: 0x1F161, size: 0x8, addend: 0x0, symName: __ZlsRNSt3__113basic_ostreamIcNS_11char_traitsIcEEEERK6Market, symObjAddr: 0x880, symBinAddr: 0x100002280, symSize: 0x40 }
  - { offsetInCU: 0x16CC1, offset: 0x1F19B, size: 0x8, addend: 0x0, symName: __ZrsRNSt3__113basic_istreamIcNS_11char_traitsIcEEEER6Market, symObjAddr: 0x8C0, symBinAddr: 0x1000022C0, symSize: 0x30 }
  - { offsetInCU: 0x16CFC, offset: 0x1F1D6, size: 0x8, addend: 0x0, symName: __ZNSt3__14pairIKNS_12basic_stringIcNS_11char_traitsIcEENS_9allocatorIcEEEE9RateCurveEC2B8ue170006ERKS9_, symObjAddr: 0x8F0, symBinAddr: 0x1000022F0, symSize: 0x60 }
  - { offsetInCU: 0x16D2E, offset: 0x1F208, size: 0x8, addend: 0x0, symName: __ZN9RateCurveC1ERKS_, symObjAddr: 0x950, symBinAddr: 0x100002350, symSize: 0x30 }
  - { offsetInCU: 0x16D62, offset: 0x1F23C, size: 0x8, addend: 0x0, symName: __ZN9RateCurveC2ERKS_, symObjAddr: 0x980, symBinAddr: 0x100002380, symSize: 0xA0 }
  - { offsetInCU: 0x16D96, offset: 0x1F270, size: 0x8, addend: 0x0, symName: __ZNSt3__16vectorI4DateNS_9allocatorIS1_EEEC1ERKS4_, symObjAddr: 0xA20, symBinAddr: 0x100002420, symSize: 0x30 }
  - { offsetInCU: 0x16DD0, offset: 0x1F2AA, size: 0x8, addend: 0x0, symName: __ZNSt3__16vectorIdNS_9allocatorIdEEEC1ERKS3_, symObjAddr: 0xA50, symBinAddr: 0x100002450, symSize: 0x30 }
  - { offsetInCU: 0x16E0A, offset: 0x1F2E4, size: 0x8, addend: 0x0, symName: __ZNSt3__16vectorI4DateNS_9allocatorIS1_EEED1B8ue170006Ev, symObjAddr: 0xA80, symBinAddr: 0x100002480, symSize: 0x20 }
  - { offsetInCU: 0x16E32, offset: 0x1F30C, size: 0x8, addend: 0x0, symName: __ZNSt3__16vectorI4DateNS_9allocatorIS1_EEEC2ERKS4_, symObjAddr: 0xAA0, symBinAddr: 0x1000024A0, symSize: 0xA0 }
  - { offsetInCU: 0x16E76, offset: 0x1F350, size: 0x8, addend: 0x0, symName: __ZNSt3__116allocator_traitsINS_9allocatorI4DateEEE37select_on_container_copy_constructionB8ue170006IS3_vvEES3_RKS3_, symObjAddr: 0xB40, symBinAddr: 0x100002540, symSize: 0x10 }
  - { offsetInCU: 0x16EA4, offset: 0x1F37E, size: 0x8, addend: 0x0, symName: __ZNKSt3__16vectorI4DateNS_9allocatorIS1_EEE7__allocB8ue170006Ev, symObjAddr: 0xB50, symBinAddr: 0x100002550, symSize: 0x20 }
  - { offsetInCU: 0x16ED2, offset: 0x1F3AC, size: 0x8, addend: 0x0, symName: __ZNSt3__117__compressed_pairIP4DateNS_9allocatorIS1_EEEC1B8ue170006IDnS4_EEOT_OT0_, symObjAddr: 0xB70, symBinAddr: 0x100002570, symSize: 0x30 }
  - { offsetInCU: 0x16F28, offset: 0x1F402, size: 0x8, addend: 0x0, symName: __ZNSt3__16vectorI4DateNS_9allocatorIS1_EEE16__init_with_sizeB8ue170006IPS1_S6_EEvT_T0_m, symObjAddr: 0xBA0, symBinAddr: 0x1000025A0, symSize: 0xB0 }
  - { offsetInCU: 0x16F9A, offset: 0x1F474, size: 0x8, addend: 0x0, symName: __ZNKSt3__117__compressed_pairIP4DateNS_9allocatorIS1_EEE6secondB8ue170006Ev, symObjAddr: 0xC50, symBinAddr: 0x100002650, symSize: 0x20 }
  - { offsetInCU: 0x16FBE, offset: 0x1F498, size: 0x8, addend: 0x0, symName: __ZNKSt3__122__compressed_pair_elemINS_9allocatorI4DateEELi1ELb1EE5__getB8ue170006Ev, symObjAddr: 0xC70, symBinAddr: 0x100002670, symSize: 0x10 }
  - { offsetInCU: 0x16FE2, offset: 0x1F4BC, size: 0x8, addend: 0x0, symName: __ZNSt3__117__compressed_pairIP4DateNS_9allocatorIS1_EEEC2B8ue170006IDnS4_EEOT_OT0_, symObjAddr: 0xC80, symBinAddr: 0x100002680, symSize: 0x40 }
  - { offsetInCU: 0x17038, offset: 0x1F512, size: 0x8, addend: 0x0, symName: __ZNSt3__122__compressed_pair_elemIP4DateLi0ELb0EEC2B8ue170006IDnvEEOT_, symObjAddr: 0xCC0, symBinAddr: 0x1000026C0, symSize: 0x20 }
  - { offsetInCU: 0x17078, offset: 0x1F552, size: 0x8, addend: 0x0, symName: __ZNSt3__122__compressed_pair_elemINS_9allocatorI4DateEELi1ELb1EEC2B8ue170006IS3_vEEOT_, symObjAddr: 0xCE0, symBinAddr: 0x1000026E0, symSize: 0x10 }
  - { offsetInCU: 0x170B8, offset: 0x1F592, size: 0x8, addend: 0x0, symName: __ZNSt3__16vectorI4DateNS_9allocatorIS1_EEE16__destroy_vectorC1B8ue170006ERS4_, symObjAddr: 0xD30, symBinAddr: 0x100002730, symSize: 0x30 }
  - { offsetInCU: 0x170EF, offset: 0x1F5C9, size: 0x8, addend: 0x0, symName: __ZNSt3__16vectorI4DateNS_9allocatorIS1_EEE11__vallocateB8ue170006Em, symObjAddr: 0xD60, symBinAddr: 0x100002760, symSize: 0xA0 }
  - { offsetInCU: 0x17130, offset: 0x1F60A, size: 0x8, addend: 0x0, symName: __ZNSt3__16vectorI4DateNS_9allocatorIS1_EEE18__construct_at_endIPS1_S6_EEvT_T0_m, symObjAddr: 0xE00, symBinAddr: 0x100002800, symSize: 0x90 }
  - { offsetInCU: 0x171A5, offset: 0x1F67F, size: 0x8, addend: 0x0, symName: __ZNSt3__128__exception_guard_exceptionsINS_6vectorI4DateNS_9allocatorIS2_EEE16__destroy_vectorEE10__completeB8ue170006Ev, symObjAddr: 0xE90, symBinAddr: 0x100002890, symSize: 0x20 }
  - { offsetInCU: 0x171C9, offset: 0x1F6A3, size: 0x8, addend: 0x0, symName: __ZNSt3__128__exception_guard_exceptionsINS_6vectorI4DateNS_9allocatorIS2_EEE16__destroy_vectorEED1B8ue170006Ev, symObjAddr: 0xEB0, symBinAddr: 0x1000028B0, symSize: 0x20 }
  - { offsetInCU: 0x171F1, offset: 0x1F6CB, size: 0x8, addend: 0x0, symName: __ZNSt3__128__exception_guard_exceptionsINS_6vectorI4DateNS_9allocatorIS2_EEE16__destroy_vectorEEC1B8ue170006ES6_, symObjAddr: 0xED0, symBinAddr: 0x1000028D0, symSize: 0x30 }
  - { offsetInCU: 0x17227, offset: 0x1F701, size: 0x8, addend: 0x0, symName: __ZNSt3__128__exception_guard_exceptionsINS_6vectorI4DateNS_9allocatorIS2_EEE16__destroy_vectorEEC2B8ue170006ES6_, symObjAddr: 0xF00, symBinAddr: 0x100002900, symSize: 0x20 }
  - { offsetInCU: 0x1725D, offset: 0x1F737, size: 0x8, addend: 0x0, symName: __ZNSt3__16vectorI4DateNS_9allocatorIS1_EEE16__destroy_vectorC2B8ue170006ERS4_, symObjAddr: 0xF20, symBinAddr: 0x100002920, symSize: 0x20 }
  - { offsetInCU: 0x17293, offset: 0x1F76D, size: 0x8, addend: 0x0, symName: __ZNKSt3__16vectorI4DateNS_9allocatorIS1_EEE8max_sizeEv, symObjAddr: 0xF40, symBinAddr: 0x100002940, symSize: 0x60 }
  - { offsetInCU: 0x172BA, offset: 0x1F794, size: 0x8, addend: 0x0, symName: __ZNKSt3__16vectorI4DateNS_9allocatorIS1_EEE20__throw_length_errorB8ue170006Ev, symObjAddr: 0xFA0, symBinAddr: 0x1000029A0, symSize: 0x20 }
  - { offsetInCU: 0x172DE, offset: 0x1F7B8, size: 0x8, addend: 0x0, symName: __ZNSt3__16vectorI4DateNS_9allocatorIS1_EEE7__allocB8ue170006Ev, symObjAddr: 0x1000, symBinAddr: 0x100002A00, symSize: 0x20 }
  - { offsetInCU: 0x17302, offset: 0x1F7DC, size: 0x8, addend: 0x0, symName: __ZNSt3__16vectorI4DateNS_9allocatorIS1_EEE9__end_capB8ue170006Ev, symObjAddr: 0x1020, symBinAddr: 0x100002A20, symSize: 0x20 }
  - { offsetInCU: 0x17326, offset: 0x1F800, size: 0x8, addend: 0x0, symName: __ZNKSt3__16vectorI4DateNS_9allocatorIS1_EEE14__annotate_newB8ue170006Em, symObjAddr: 0x1040, symBinAddr: 0x100002A40, symSize: 0xA0 }
  - { offsetInCU: 0x17359, offset: 0x1F833, size: 0x8, addend: 0x0, symName: __ZNSt3__116allocator_traitsINS_9allocatorI4DateEEE8max_sizeB8ue170006IS3_vEEmRKS3_, symObjAddr: 0x1110, symBinAddr: 0x100002B10, symSize: 0x20 }
  - { offsetInCU: 0x17386, offset: 0x1F860, size: 0x8, addend: 0x0, symName: __ZNSt3__114numeric_limitsIlE3maxB8ue170006Ev, symObjAddr: 0x1130, symBinAddr: 0x100002B30, symSize: 0x10 }
  - { offsetInCU: 0x173A3, offset: 0x1F87D, size: 0x8, addend: 0x0, symName: __ZNKSt3__16__lessIvvEclB8ue170006ImmEEbRKT_RKT0_, symObjAddr: 0x11A0, symBinAddr: 0x100002B90, symSize: 0x30 }
  - { offsetInCU: 0x173F5, offset: 0x1F8CF, size: 0x8, addend: 0x0, symName: __ZNKSt3__19allocatorI4DateE8max_sizeB8ue170006Ev, symObjAddr: 0x11D0, symBinAddr: 0x100002BC0, symSize: 0x20 }
  - { offsetInCU: 0x17419, offset: 0x1F8F3, size: 0x8, addend: 0x0, symName: __ZNSt3__123__libcpp_numeric_limitsIlLb1EE3maxB8ue170006Ev, symObjAddr: 0x11F0, symBinAddr: 0x100002BE0, symSize: 0x10 }
  - { offsetInCU: 0x1742C, offset: 0x1F906, size: 0x8, addend: 0x0, symName: __ZNSt12length_errorC1B8ue170006EPKc, symObjAddr: 0x1270, symBinAddr: 0x100002C60, symSize: 0x30 }
  - { offsetInCU: 0x17462, offset: 0x1F93C, size: 0x8, addend: 0x0, symName: __ZNSt12length_errorC2B8ue170006EPKc, symObjAddr: 0x12A0, symBinAddr: 0x100002C90, symSize: 0x40 }
  - { offsetInCU: 0x17498, offset: 0x1F972, size: 0x8, addend: 0x0, symName: __ZNSt3__19allocatorI4DateE8allocateB8ue170006Em, symObjAddr: 0x12E0, symBinAddr: 0x100002CD0, symSize: 0x50 }
  - { offsetInCU: 0x174CA, offset: 0x1F9A4, size: 0x8, addend: 0x0, symName: __ZNSt3__117__compressed_pairIP4DateNS_9allocatorIS1_EEE6secondB8ue170006Ev, symObjAddr: 0x1440, symBinAddr: 0x100002E30, symSize: 0x20 }
  - { offsetInCU: 0x174EE, offset: 0x1F9C8, size: 0x8, addend: 0x0, symName: __ZNSt3__122__compressed_pair_elemINS_9allocatorI4DateEELi1ELb1EE5__getB8ue170006Ev, symObjAddr: 0x1460, symBinAddr: 0x100002E50, symSize: 0x10 }
  - { offsetInCU: 0x17512, offset: 0x1F9EC, size: 0x8, addend: 0x0, symName: __ZNSt3__117__compressed_pairIP4DateNS_9allocatorIS1_EEE5firstB8ue170006Ev, symObjAddr: 0x1470, symBinAddr: 0x100002E60, symSize: 0x20 }
  - { offsetInCU: 0x17536, offset: 0x1FA10, size: 0x8, addend: 0x0, symName: __ZNSt3__122__compressed_pair_elemIP4DateLi0ELb0EE5__getB8ue170006Ev, symObjAddr: 0x1490, symBinAddr: 0x100002E80, symSize: 0x10 }
  - { offsetInCU: 0x1755A, offset: 0x1FA34, size: 0x8, addend: 0x0, symName: __ZNKSt3__16vectorI4DateNS_9allocatorIS1_EEE31__annotate_contiguous_containerB8ue170006EPKvS6_S6_S6_, symObjAddr: 0x14A0, symBinAddr: 0x100002E90, symSize: 0x20 }
  - { offsetInCU: 0x175AE, offset: 0x1FA88, size: 0x8, addend: 0x0, symName: __ZNKSt3__16vectorI4DateNS_9allocatorIS1_EEE4dataB8ue170006Ev, symObjAddr: 0x14C0, symBinAddr: 0x100002EB0, symSize: 0x20 }
  - { offsetInCU: 0x175D2, offset: 0x1FAAC, size: 0x8, addend: 0x0, symName: __ZNKSt3__16vectorI4DateNS_9allocatorIS1_EEE8capacityB8ue170006Ev, symObjAddr: 0x14E0, symBinAddr: 0x100002ED0, symSize: 0x40 }
  - { offsetInCU: 0x175F6, offset: 0x1FAD0, size: 0x8, addend: 0x0, symName: __ZNKSt3__16vectorI4DateNS_9allocatorIS1_EEE9__end_capB8ue170006Ev, symObjAddr: 0x1530, symBinAddr: 0x100002F20, symSize: 0x20 }
  - { offsetInCU: 0x1761A, offset: 0x1FAF4, size: 0x8, addend: 0x0, symName: __ZNKSt3__117__compressed_pairIP4DateNS_9allocatorIS1_EEE5firstB8ue170006Ev, symObjAddr: 0x1550, symBinAddr: 0x100002F40, symSize: 0x20 }
  - { offsetInCU: 0x1763E, offset: 0x1FB18, size: 0x8, addend: 0x0, symName: __ZNKSt3__122__compressed_pair_elemIP4DateLi0ELb0EE5__getB8ue170006Ev, symObjAddr: 0x1570, symBinAddr: 0x100002F60, symSize: 0x10 }
  - { offsetInCU: 0x1767B, offset: 0x1FB55, size: 0x8, addend: 0x0, symName: __ZNSt3__16vectorI4DateNS_9allocatorIS1_EEE21_ConstructTransactionC1B8ue170006ERS4_m, symObjAddr: 0x1580, symBinAddr: 0x100002F70, symSize: 0x30 }
  - { offsetInCU: 0x176C1, offset: 0x1FB9B, size: 0x8, addend: 0x0, symName: __ZNSt3__16vectorI4DateNS_9allocatorIS1_EEE21_ConstructTransactionD1B8ue170006Ev, symObjAddr: 0x1630, symBinAddr: 0x100003020, symSize: 0x20 }
  - { offsetInCU: 0x176E9, offset: 0x1FBC3, size: 0x8, addend: 0x0, symName: __ZNSt3__16vectorI4DateNS_9allocatorIS1_EEE21_ConstructTransactionC2B8ue170006ERS4_m, symObjAddr: 0x1650, symBinAddr: 0x100003040, symSize: 0x40 }
  - { offsetInCU: 0x1774D, offset: 0x1FC27, size: 0x8, addend: 0x0, symName: __ZNSt3__14pairIP4DateS2_EC1B8ue170006IS2_S2_LPv0EEEOT_OT0_, symObjAddr: 0x17A0, symBinAddr: 0x100003190, symSize: 0x30 }
  - { offsetInCU: 0x177AA, offset: 0x1FC84, size: 0x8, addend: 0x0, symName: __ZNSt3__14pairIP4DateS2_EC2B8ue170006IS2_S2_LPv0EEEOT_OT0_, symObjAddr: 0x17D0, symBinAddr: 0x1000031C0, symSize: 0x30 }
  - { offsetInCU: 0x17811, offset: 0x1FCEB, size: 0x8, addend: 0x0, symName: __ZNKSt3__114__copy_trivialclB8ue170006I4DateS2_Li0EEENS_4pairIPT_PT0_EES5_S5_S7_, symObjAddr: 0x1970, symBinAddr: 0x100003360, symSize: 0x40 }
  - { offsetInCU: 0x17878, offset: 0x1FD52, size: 0x8, addend: 0x0, symName: __ZNSt3__14pairIP4DateS2_EC1B8ue170006IRS2_S2_LPv0EEEOT_OT0_, symObjAddr: 0x1AE0, symBinAddr: 0x1000034D0, symSize: 0x30 }
  - { offsetInCU: 0x178D5, offset: 0x1FDAF, size: 0x8, addend: 0x0, symName: __ZNSt3__14pairIP4DateS2_EC2B8ue170006IRS2_S2_LPv0EEEOT_OT0_, symObjAddr: 0x1B10, symBinAddr: 0x100003500, symSize: 0x30 }
  - { offsetInCU: 0x17932, offset: 0x1FE0C, size: 0x8, addend: 0x0, symName: __ZNSt3__118__unwrap_iter_implIP4DateLb1EE8__unwrapB8ue170006ES2_, symObjAddr: 0x1B40, symBinAddr: 0x100003530, symSize: 0x20 }
  - { offsetInCU: 0x17954, offset: 0x1FE2E, size: 0x8, addend: 0x0, symName: __ZNSt3__118__unwrap_iter_implIP4DateLb1EE8__rewrapB8ue170006ES2_S2_, symObjAddr: 0x1B60, symBinAddr: 0x100003550, symSize: 0x60 }
  - { offsetInCU: 0x17984, offset: 0x1FE5E, size: 0x8, addend: 0x0, symName: __ZNSt3__16vectorI4DateNS_9allocatorIS1_EEE21_ConstructTransactionD2B8ue170006Ev, symObjAddr: 0x1BC0, symBinAddr: 0x1000035B0, symSize: 0x20 }
  - { offsetInCU: 0x179AC, offset: 0x1FE86, size: 0x8, addend: 0x0, symName: __ZNSt3__128__exception_guard_exceptionsINS_6vectorI4DateNS_9allocatorIS2_EEE16__destroy_vectorEED2B8ue170006Ev, symObjAddr: 0x1BE0, symBinAddr: 0x1000035D0, symSize: 0x40 }
  - { offsetInCU: 0x179D4, offset: 0x1FEAE, size: 0x8, addend: 0x0, symName: __ZNSt3__16vectorI4DateNS_9allocatorIS1_EEE16__destroy_vectorclB8ue170006Ev, symObjAddr: 0x1C20, symBinAddr: 0x100003610, symSize: 0x80 }
  - { offsetInCU: 0x179F8, offset: 0x1FED2, size: 0x8, addend: 0x0, symName: __ZNSt3__16vectorI4DateNS_9allocatorIS1_EEE7__clearB8ue170006Ev, symObjAddr: 0x1CA0, symBinAddr: 0x100003690, symSize: 0x20 }
  - { offsetInCU: 0x17A1C, offset: 0x1FEF6, size: 0x8, addend: 0x0, symName: __ZNKSt3__16vectorI4DateNS_9allocatorIS1_EEE17__annotate_deleteB8ue170006Ev, symObjAddr: 0x1CC0, symBinAddr: 0x1000036B0, symSize: 0xB0 }
  - { offsetInCU: 0x17A40, offset: 0x1FF1A, size: 0x8, addend: 0x0, symName: __ZNSt3__116allocator_traitsINS_9allocatorI4DateEEE10deallocateB8ue170006ERS3_PS2_m, symObjAddr: 0x1D70, symBinAddr: 0x100003760, symSize: 0x30 }
  - { offsetInCU: 0x17A81, offset: 0x1FF5B, size: 0x8, addend: 0x0, symName: __ZNSt3__16vectorI4DateNS_9allocatorIS1_EEE22__base_destruct_at_endB8ue170006EPS1_, symObjAddr: 0x1DA0, symBinAddr: 0x100003790, symSize: 0x80 }
  - { offsetInCU: 0x17AC3, offset: 0x1FF9D, size: 0x8, addend: 0x0, symName: __ZNSt3__116allocator_traitsINS_9allocatorI4DateEEE7destroyB8ue170006IS2_vEEvRS3_PT_, symObjAddr: 0x1E20, symBinAddr: 0x100003810, symSize: 0x30 }
  - { offsetInCU: 0x17AFF, offset: 0x1FFD9, size: 0x8, addend: 0x0, symName: __ZNSt3__19allocatorI4DateE7destroyB8ue170006EPS1_, symObjAddr: 0x1E50, symBinAddr: 0x100003840, symSize: 0x10 }
  - { offsetInCU: 0x17B31, offset: 0x2000B, size: 0x8, addend: 0x0, symName: __ZNSt3__19allocatorI4DateE10deallocateB8ue170006EPS1_m, symObjAddr: 0x1E60, symBinAddr: 0x100003850, symSize: 0x50 }
  - { offsetInCU: 0x17B71, offset: 0x2004B, size: 0x8, addend: 0x0, symName: __ZNSt3__16vectorIdNS_9allocatorIdEEEC2ERKS3_, symObjAddr: 0x1FB0, symBinAddr: 0x1000039A0, symSize: 0xA0 }
  - { offsetInCU: 0x17BB5, offset: 0x2008F, size: 0x8, addend: 0x0, symName: __ZNSt3__116allocator_traitsINS_9allocatorIdEEE37select_on_container_copy_constructionB8ue170006IS2_vvEES2_RKS2_, symObjAddr: 0x2050, symBinAddr: 0x100003A40, symSize: 0x10 }
  - { offsetInCU: 0x17BE3, offset: 0x200BD, size: 0x8, addend: 0x0, symName: __ZNKSt3__16vectorIdNS_9allocatorIdEEE7__allocB8ue170006Ev, symObjAddr: 0x2060, symBinAddr: 0x100003A50, symSize: 0x20 }
  - { offsetInCU: 0x17C0C, offset: 0x200E6, size: 0x8, addend: 0x0, symName: __ZNSt3__117__compressed_pairIPdNS_9allocatorIdEEEC1B8ue170006IDnS3_EEOT_OT0_, symObjAddr: 0x2080, symBinAddr: 0x100003A70, symSize: 0x30 }
  - { offsetInCU: 0x17C62, offset: 0x2013C, size: 0x8, addend: 0x0, symName: __ZNSt3__16vectorIdNS_9allocatorIdEEE16__init_with_sizeB8ue170006IPdS5_EEvT_T0_m, symObjAddr: 0x20B0, symBinAddr: 0x100003AA0, symSize: 0xB0 }
  - { offsetInCU: 0x17CD4, offset: 0x201AE, size: 0x8, addend: 0x0, symName: __ZNKSt3__16vectorIdNS_9allocatorIdEEE4sizeB8ue170006Ev, symObjAddr: 0x2160, symBinAddr: 0x100003B50, symSize: 0x20 }
  - { offsetInCU: 0x17CF8, offset: 0x201D2, size: 0x8, addend: 0x0, symName: __ZNKSt3__117__compressed_pairIPdNS_9allocatorIdEEE6secondB8ue170006Ev, symObjAddr: 0x2180, symBinAddr: 0x100003B70, symSize: 0x20 }
  - { offsetInCU: 0x17D1C, offset: 0x201F6, size: 0x8, addend: 0x0, symName: __ZNKSt3__122__compressed_pair_elemINS_9allocatorIdEELi1ELb1EE5__getB8ue170006Ev, symObjAddr: 0x21A0, symBinAddr: 0x100003B90, symSize: 0x10 }
  - { offsetInCU: 0x17D40, offset: 0x2021A, size: 0x8, addend: 0x0, symName: __ZNSt3__117__compressed_pairIPdNS_9allocatorIdEEEC2B8ue170006IDnS3_EEOT_OT0_, symObjAddr: 0x21B0, symBinAddr: 0x100003BA0, symSize: 0x40 }
  - { offsetInCU: 0x17D96, offset: 0x20270, size: 0x8, addend: 0x0, symName: __ZNSt3__122__compressed_pair_elemIPdLi0ELb0EEC2B8ue170006IDnvEEOT_, symObjAddr: 0x21F0, symBinAddr: 0x100003BE0, symSize: 0x20 }
  - { offsetInCU: 0x17DD6, offset: 0x202B0, size: 0x8, addend: 0x0, symName: __ZNSt3__122__compressed_pair_elemINS_9allocatorIdEELi1ELb1EEC2B8ue170006IS2_vEEOT_, symObjAddr: 0x2210, symBinAddr: 0x100003C00, symSize: 0x10 }
  - { offsetInCU: 0x17E16, offset: 0x202F0, size: 0x8, addend: 0x0, symName: __ZNSt3__16vectorIdNS_9allocatorIdEEE16__destroy_vectorC1B8ue170006ERS3_, symObjAddr: 0x2260, symBinAddr: 0x100003C50, symSize: 0x30 }
  - { offsetInCU: 0x17E4D, offset: 0x20327, size: 0x8, addend: 0x0, symName: __ZNSt3__16vectorIdNS_9allocatorIdEEE11__vallocateB8ue170006Em, symObjAddr: 0x2290, symBinAddr: 0x100003C80, symSize: 0xA0 }
  - { offsetInCU: 0x17E8E, offset: 0x20368, size: 0x8, addend: 0x0, symName: __ZNSt3__16vectorIdNS_9allocatorIdEEE18__construct_at_endIPdS5_EEvT_T0_m, symObjAddr: 0x2330, symBinAddr: 0x100003D20, symSize: 0x90 }
  - { offsetInCU: 0x17F03, offset: 0x203DD, size: 0x8, addend: 0x0, symName: __ZNSt3__128__exception_guard_exceptionsINS_6vectorIdNS_9allocatorIdEEE16__destroy_vectorEE10__completeB8ue170006Ev, symObjAddr: 0x23C0, symBinAddr: 0x100003DB0, symSize: 0x20 }
  - { offsetInCU: 0x17F27, offset: 0x20401, size: 0x8, addend: 0x0, symName: __ZNSt3__128__exception_guard_exceptionsINS_6vectorIdNS_9allocatorIdEEE16__destroy_vectorEED1B8ue170006Ev, symObjAddr: 0x23E0, symBinAddr: 0x100003DD0, symSize: 0x20 }
  - { offsetInCU: 0x17F4F, offset: 0x20429, size: 0x8, addend: 0x0, symName: __ZNSt3__128__exception_guard_exceptionsINS_6vectorIdNS_9allocatorIdEEE16__destroy_vectorEEC1B8ue170006ES5_, symObjAddr: 0x2400, symBinAddr: 0x100003DF0, symSize: 0x30 }
  - { offsetInCU: 0x17F85, offset: 0x2045F, size: 0x8, addend: 0x0, symName: __ZNSt3__128__exception_guard_exceptionsINS_6vectorIdNS_9allocatorIdEEE16__destroy_vectorEEC2B8ue170006ES5_, symObjAddr: 0x2430, symBinAddr: 0x100003E20, symSize: 0x20 }
  - { offsetInCU: 0x17FBB, offset: 0x20495, size: 0x8, addend: 0x0, symName: __ZNSt3__16vectorIdNS_9allocatorIdEEE16__destroy_vectorC2B8ue170006ERS3_, symObjAddr: 0x2450, symBinAddr: 0x100003E40, symSize: 0x20 }
  - { offsetInCU: 0x17FF1, offset: 0x204CB, size: 0x8, addend: 0x0, symName: __ZNKSt3__16vectorIdNS_9allocatorIdEEE8max_sizeEv, symObjAddr: 0x2470, symBinAddr: 0x100003E60, symSize: 0x60 }
  - { offsetInCU: 0x18018, offset: 0x204F2, size: 0x8, addend: 0x0, symName: __ZNKSt3__16vectorIdNS_9allocatorIdEEE20__throw_length_errorB8ue170006Ev, symObjAddr: 0x24D0, symBinAddr: 0x100003EC0, symSize: 0x20 }
  - { offsetInCU: 0x1803C, offset: 0x20516, size: 0x8, addend: 0x0, symName: __ZNSt3__16vectorIdNS_9allocatorIdEEE7__allocB8ue170006Ev, symObjAddr: 0x2530, symBinAddr: 0x100003F20, symSize: 0x20 }
  - { offsetInCU: 0x18060, offset: 0x2053A, size: 0x8, addend: 0x0, symName: __ZNSt3__16vectorIdNS_9allocatorIdEEE9__end_capB8ue170006Ev, symObjAddr: 0x2550, symBinAddr: 0x100003F40, symSize: 0x20 }
  - { offsetInCU: 0x18084, offset: 0x2055E, size: 0x8, addend: 0x0, symName: __ZNKSt3__16vectorIdNS_9allocatorIdEEE14__annotate_newB8ue170006Em, symObjAddr: 0x2570, symBinAddr: 0x100003F60, symSize: 0xB0 }
  - { offsetInCU: 0x180B7, offset: 0x20591, size: 0x8, addend: 0x0, symName: __ZNSt3__116allocator_traitsINS_9allocatorIdEEE8max_sizeB8ue170006IS2_vEEmRKS2_, symObjAddr: 0x2620, symBinAddr: 0x100004010, symSize: 0x20 }
  - { offsetInCU: 0x180E4, offset: 0x205BE, size: 0x8, addend: 0x0, symName: __ZNKSt3__19allocatorIdE8max_sizeB8ue170006Ev, symObjAddr: 0x2640, symBinAddr: 0x100004030, symSize: 0x20 }
  - { offsetInCU: 0x18108, offset: 0x205E2, size: 0x8, addend: 0x0, symName: __ZNSt3__19allocatorIdE8allocateB8ue170006Em, symObjAddr: 0x2660, symBinAddr: 0x100004050, symSize: 0x50 }
  - { offsetInCU: 0x1813A, offset: 0x20614, size: 0x8, addend: 0x0, symName: __ZNSt3__117__compressed_pairIPdNS_9allocatorIdEEE6secondB8ue170006Ev, symObjAddr: 0x26B0, symBinAddr: 0x1000040A0, symSize: 0x20 }
  - { offsetInCU: 0x1815E, offset: 0x20638, size: 0x8, addend: 0x0, symName: __ZNSt3__122__compressed_pair_elemINS_9allocatorIdEELi1ELb1EE5__getB8ue170006Ev, symObjAddr: 0x26D0, symBinAddr: 0x1000040C0, symSize: 0x10 }
  - { offsetInCU: 0x18182, offset: 0x2065C, size: 0x8, addend: 0x0, symName: __ZNSt3__117__compressed_pairIPdNS_9allocatorIdEEE5firstB8ue170006Ev, symObjAddr: 0x26E0, symBinAddr: 0x1000040D0, symSize: 0x20 }
  - { offsetInCU: 0x181A6, offset: 0x20680, size: 0x8, addend: 0x0, symName: __ZNSt3__122__compressed_pair_elemIPdLi0ELb0EE5__getB8ue170006Ev, symObjAddr: 0x2700, symBinAddr: 0x1000040F0, symSize: 0x10 }
  - { offsetInCU: 0x181CA, offset: 0x206A4, size: 0x8, addend: 0x0, symName: __ZNKSt3__16vectorIdNS_9allocatorIdEEE31__annotate_contiguous_containerB8ue170006EPKvS5_S5_S5_, symObjAddr: 0x2710, symBinAddr: 0x100004100, symSize: 0x20 }
  - { offsetInCU: 0x1821E, offset: 0x206F8, size: 0x8, addend: 0x0, symName: __ZNKSt3__16vectorIdNS_9allocatorIdEEE4dataB8ue170006Ev, symObjAddr: 0x2730, symBinAddr: 0x100004120, symSize: 0x20 }
  - { offsetInCU: 0x18242, offset: 0x2071C, size: 0x8, addend: 0x0, symName: __ZNKSt3__16vectorIdNS_9allocatorIdEEE8capacityB8ue170006Ev, symObjAddr: 0x2750, symBinAddr: 0x100004140, symSize: 0x30 }
  - { offsetInCU: 0x18266, offset: 0x20740, size: 0x8, addend: 0x0, symName: __ZNKSt3__16vectorIdNS_9allocatorIdEEE9__end_capB8ue170006Ev, symObjAddr: 0x2790, symBinAddr: 0x100004180, symSize: 0x20 }
  - { offsetInCU: 0x1828A, offset: 0x20764, size: 0x8, addend: 0x0, symName: __ZNKSt3__117__compressed_pairIPdNS_9allocatorIdEEE5firstB8ue170006Ev, symObjAddr: 0x27B0, symBinAddr: 0x1000041A0, symSize: 0x20 }
  - { offsetInCU: 0x182AE, offset: 0x20788, size: 0x8, addend: 0x0, symName: __ZNKSt3__122__compressed_pair_elemIPdLi0ELb0EE5__getB8ue170006Ev, symObjAddr: 0x27D0, symBinAddr: 0x1000041C0, symSize: 0x10 }
  - { offsetInCU: 0x182EB, offset: 0x207C5, size: 0x8, addend: 0x0, symName: __ZNSt3__16vectorIdNS_9allocatorIdEEE21_ConstructTransactionC1B8ue170006ERS3_m, symObjAddr: 0x27E0, symBinAddr: 0x1000041D0, symSize: 0x30 }
  - { offsetInCU: 0x18331, offset: 0x2080B, size: 0x8, addend: 0x0, symName: __ZNSt3__16vectorIdNS_9allocatorIdEEE21_ConstructTransactionD1B8ue170006Ev, symObjAddr: 0x2890, symBinAddr: 0x100004280, symSize: 0x20 }
  - { offsetInCU: 0x18359, offset: 0x20833, size: 0x8, addend: 0x0, symName: __ZNSt3__16vectorIdNS_9allocatorIdEEE21_ConstructTransactionC2B8ue170006ERS3_m, symObjAddr: 0x28B0, symBinAddr: 0x1000042A0, symSize: 0x40 }
  - { offsetInCU: 0x183BD, offset: 0x20897, size: 0x8, addend: 0x0, symName: __ZNSt3__14pairIPdS1_EC1B8ue170006IS1_S1_LPv0EEEOT_OT0_, symObjAddr: 0x2A00, symBinAddr: 0x1000043F0, symSize: 0x30 }
  - { offsetInCU: 0x1841A, offset: 0x208F4, size: 0x8, addend: 0x0, symName: __ZNSt3__14pairIPdS1_EC2B8ue170006IS1_S1_LPv0EEEOT_OT0_, symObjAddr: 0x2A30, symBinAddr: 0x100004420, symSize: 0x30 }
  - { offsetInCU: 0x18477, offset: 0x20951, size: 0x8, addend: 0x0, symName: __ZNKSt3__114__copy_trivialclB8ue170006IddLi0EEENS_4pairIPT_PT0_EES4_S4_S6_, symObjAddr: 0x2BD0, symBinAddr: 0x1000045C0, symSize: 0x40 }
  - { offsetInCU: 0x184DE, offset: 0x209B8, size: 0x8, addend: 0x0, symName: __ZNSt3__14pairIPdS1_EC1B8ue170006IRS1_S1_LPv0EEEOT_OT0_, symObjAddr: 0x2D30, symBinAddr: 0x100004720, symSize: 0x30 }
  - { offsetInCU: 0x1853B, offset: 0x20A15, size: 0x8, addend: 0x0, symName: __ZNSt3__14pairIPdS1_EC2B8ue170006IRS1_S1_LPv0EEEOT_OT0_, symObjAddr: 0x2D60, symBinAddr: 0x100004750, symSize: 0x30 }
  - { offsetInCU: 0x18598, offset: 0x20A72, size: 0x8, addend: 0x0, symName: __ZNSt3__118__unwrap_iter_implIPdLb1EE8__unwrapB8ue170006ES1_, symObjAddr: 0x2D90, symBinAddr: 0x100004780, symSize: 0x20 }
  - { offsetInCU: 0x185BA, offset: 0x20A94, size: 0x8, addend: 0x0, symName: __ZNSt3__118__unwrap_iter_implIPdLb1EE8__rewrapB8ue170006ES1_S1_, symObjAddr: 0x2DB0, symBinAddr: 0x1000047A0, symSize: 0x50 }
  - { offsetInCU: 0x185EA, offset: 0x20AC4, size: 0x8, addend: 0x0, symName: __ZNSt3__16vectorIdNS_9allocatorIdEEE21_ConstructTransactionD2B8ue170006Ev, symObjAddr: 0x2E00, symBinAddr: 0x1000047F0, symSize: 0x20 }
  - { offsetInCU: 0x18612, offset: 0x20AEC, size: 0x8, addend: 0x0, symName: __ZNSt3__128__exception_guard_exceptionsINS_6vectorIdNS_9allocatorIdEEE16__destroy_vectorEED2B8ue170006Ev, symObjAddr: 0x2E20, symBinAddr: 0x100004810, symSize: 0x40 }
  - { offsetInCU: 0x1863A, offset: 0x20B14, size: 0x8, addend: 0x0, symName: __ZNSt3__16vectorIdNS_9allocatorIdEEE16__destroy_vectorclB8ue170006Ev, symObjAddr: 0x2E60, symBinAddr: 0x100004850, symSize: 0x80 }
  - { offsetInCU: 0x1865E, offset: 0x20B38, size: 0x8, addend: 0x0, symName: __ZNSt3__16vectorIdNS_9allocatorIdEEE7__clearB8ue170006Ev, symObjAddr: 0x2EE0, symBinAddr: 0x1000048D0, symSize: 0x20 }
  - { offsetInCU: 0x18682, offset: 0x20B5C, size: 0x8, addend: 0x0, symName: __ZNKSt3__16vectorIdNS_9allocatorIdEEE17__annotate_deleteB8ue170006Ev, symObjAddr: 0x2F00, symBinAddr: 0x1000048F0, symSize: 0xB0 }
  - { offsetInCU: 0x186A6, offset: 0x20B80, size: 0x8, addend: 0x0, symName: __ZNSt3__116allocator_traitsINS_9allocatorIdEEE10deallocateB8ue170006ERS2_Pdm, symObjAddr: 0x2FB0, symBinAddr: 0x1000049A0, symSize: 0x30 }
  - { offsetInCU: 0x186E7, offset: 0x20BC1, size: 0x8, addend: 0x0, symName: __ZNSt3__16vectorIdNS_9allocatorIdEEE22__base_destruct_at_endB8ue170006EPd, symObjAddr: 0x2FE0, symBinAddr: 0x1000049D0, symSize: 0x80 }
  - { offsetInCU: 0x18729, offset: 0x20C03, size: 0x8, addend: 0x0, symName: __ZNSt3__116allocator_traitsINS_9allocatorIdEEE7destroyB8ue170006IdvEEvRS2_PT_, symObjAddr: 0x3060, symBinAddr: 0x100004A50, symSize: 0x30 }
  - { offsetInCU: 0x18765, offset: 0x20C3F, size: 0x8, addend: 0x0, symName: __ZNSt3__19allocatorIdE7destroyB8ue170006EPd, symObjAddr: 0x3090, symBinAddr: 0x100004A80, symSize: 0x10 }
  - { offsetInCU: 0x18797, offset: 0x20C71, size: 0x8, addend: 0x0, symName: __ZNSt3__19allocatorIdE10deallocateB8ue170006EPdm, symObjAddr: 0x30A0, symBinAddr: 0x100004A90, symSize: 0x40 }
  - { offsetInCU: 0x187D7, offset: 0x20CB1, size: 0x8, addend: 0x0, symName: __ZNSt3__16vectorI4DateNS_9allocatorIS1_EEED2B8ue170006Ev, symObjAddr: 0x30E0, symBinAddr: 0x100004AD0, symSize: 0x40 }
  - { offsetInCU: 0x187FF, offset: 0x20CD9, size: 0x8, addend: 0x0, symName: __ZNSt3__14pairIKNS_12basic_stringIcNS_11char_traitsIcEENS_9allocatorIcEEEE9RateCurveED2Ev, symObjAddr: 0x3120, symBinAddr: 0x100004B10, symSize: 0x30 }
  - { offsetInCU: 0x1882A, offset: 0x20D04, size: 0x8, addend: 0x0, symName: __ZN9RateCurveD1Ev, symObjAddr: 0x3150, symBinAddr: 0x100004B40, symSize: 0x20 }
  - { offsetInCU: 0x18855, offset: 0x20D2F, size: 0x8, addend: 0x0, symName: __ZN9RateCurveD2Ev, symObjAddr: 0x3170, symBinAddr: 0x100004B60, symSize: 0x40 }
  - { offsetInCU: 0x18880, offset: 0x20D5A, size: 0x8, addend: 0x0, symName: __ZNSt3__16vectorIdNS_9allocatorIdEEED1B8ue170006Ev, symObjAddr: 0x31B0, symBinAddr: 0x100004BA0, symSize: 0x20 }
  - { offsetInCU: 0x188A8, offset: 0x20D82, size: 0x8, addend: 0x0, symName: __ZNSt3__16vectorIdNS_9allocatorIdEEED2B8ue170006Ev, symObjAddr: 0x31D0, symBinAddr: 0x100004BC0, symSize: 0x40 }
  - { offsetInCU: 0x188D0, offset: 0x20DAA, size: 0x8, addend: 0x0, symName: __ZNSt3__14pairIKNS_12basic_stringIcNS_11char_traitsIcEENS_9allocatorIcEEEE8VolCurveEC2B8ue170006ERKS9_, symObjAddr: 0x3210, symBinAddr: 0x100004C00, symSize: 0x60 }
  - { offsetInCU: 0x18902, offset: 0x20DDC, size: 0x8, addend: 0x0, symName: __ZN8VolCurveC1ERKS_, symObjAddr: 0x3270, symBinAddr: 0x100004C60, symSize: 0x30 }
  - { offsetInCU: 0x18936, offset: 0x20E10, size: 0x8, addend: 0x0, symName: __ZN8VolCurveC2ERKS_, symObjAddr: 0x32A0, symBinAddr: 0x100004C90, symSize: 0xA0 }
  - { offsetInCU: 0x1896A, offset: 0x20E44, size: 0x8, addend: 0x0, symName: __ZNSt3__14pairIKNS_12basic_stringIcNS_11char_traitsIcEENS_9allocatorIcEEEE8VolCurveED2Ev, symObjAddr: 0x3340, symBinAddr: 0x100004D30, symSize: 0x30 }
  - { offsetInCU: 0x18995, offset: 0x20E6F, size: 0x8, addend: 0x0, symName: __ZN8VolCurveD1Ev, symObjAddr: 0x3370, symBinAddr: 0x100004D60, symSize: 0x20 }
  - { offsetInCU: 0x189C0, offset: 0x20E9A, size: 0x8, addend: 0x0, symName: __ZN8VolCurveD2Ev, symObjAddr: 0x3390, symBinAddr: 0x100004D80, symSize: 0x40 }
  - { offsetInCU: 0x18A09, offset: 0x20EE3, size: 0x8, addend: 0x0, symName: __ZNKSt3__112basic_stringIcNS_11char_traitsIcEENS_9allocatorIcEEE4dataB8ue170006Ev, symObjAddr: 0x3E70, symBinAddr: 0x100004DC0, symSize: 0x30 }
  - { offsetInCU: 0x18A2D, offset: 0x20F07, size: 0x8, addend: 0x0, symName: __ZNKSt3__112basic_stringIcNS_11char_traitsIcEENS_9allocatorIcEEE4sizeB8ue170006Ev, symObjAddr: 0x3EA0, symBinAddr: 0x100004DF0, symSize: 0x50 }
  - { offsetInCU: 0x18A51, offset: 0x20F2B, size: 0x8, addend: 0x0, symName: __ZNKSt3__112basic_stringIcNS_11char_traitsIcEENS_9allocatorIcEEE13__get_pointerB8ue170006Ev, symObjAddr: 0x3F00, symBinAddr: 0x100004E50, symSize: 0x50 }
  - { offsetInCU: 0x18A75, offset: 0x20F4F, size: 0x8, addend: 0x0, symName: __ZNKSt3__112basic_stringIcNS_11char_traitsIcEENS_9allocatorIcEEE18__get_long_pointerB8ue170006Ev, symObjAddr: 0x3F50, symBinAddr: 0x100004EA0, symSize: 0x20 }
  - { offsetInCU: 0x18A99, offset: 0x20F73, size: 0x8, addend: 0x0, symName: __ZNKSt3__112basic_stringIcNS_11char_traitsIcEENS_9allocatorIcEEE19__get_short_pointerB8ue170006Ev, symObjAddr: 0x3F70, symBinAddr: 0x100004EC0, symSize: 0x30 }
  - { offsetInCU: 0x18ABD, offset: 0x20F97, size: 0x8, addend: 0x0, symName: __ZNSt3__114pointer_traitsIPKcE10pointer_toB8ue170006ERS1_, symObjAddr: 0x3FA0, symBinAddr: 0x100004EF0, symSize: 0x10 }
  - { offsetInCU: 0x18ADF, offset: 0x20FB9, size: 0x8, addend: 0x0, symName: __ZNKSt3__112basic_stringIcNS_11char_traitsIcEENS_9allocatorIcEEE15__get_long_sizeB8ue170006Ev, symObjAddr: 0x3FB0, symBinAddr: 0x100004F00, symSize: 0x20 }
  - { offsetInCU: 0x18B03, offset: 0x20FDD, size: 0x8, addend: 0x0, symName: __ZNKSt3__112basic_stringIcNS_11char_traitsIcEENS_9allocatorIcEEE16__get_short_sizeB8ue170006Ev, symObjAddr: 0x3FD0, symBinAddr: 0x100004F20, symSize: 0x30 }
  - { offsetInCU: 0x18B27, offset: 0x21001, size: 0x8, addend: 0x0, symName: __ZNSt3__16vectorI4DateNS_9allocatorIS1_EEE22__construct_one_at_endB8ue170006IJRKS1_EEEvDpOT_, symObjAddr: 0x4000, symBinAddr: 0x100004F50, symSize: 0x90 }
  - { offsetInCU: 0x18B73, offset: 0x2104D, size: 0x8, addend: 0x0, symName: __ZNSt3__16vectorI4DateNS_9allocatorIS1_EEE21__push_back_slow_pathIRKS1_EEvOT_, symObjAddr: 0x4090, symBinAddr: 0x100004FE0, symSize: 0xD0 }
  - { offsetInCU: 0x18BD0, offset: 0x210AA, size: 0x8, addend: 0x0, symName: __ZNSt3__116allocator_traitsINS_9allocatorI4DateEEE9constructB8ue170006IS2_JRKS2_EvEEvRS3_PT_DpOT0_, symObjAddr: 0x4160, symBinAddr: 0x1000050B0, symSize: 0x30 }
  - { offsetInCU: 0x18C26, offset: 0x21100, size: 0x8, addend: 0x0, symName: __ZNSt3__19allocatorI4DateE9constructB8ue170006IS1_JRKS1_EEEvPT_DpOT0_, symObjAddr: 0x4190, symBinAddr: 0x1000050E0, symSize: 0x30 }
  - { offsetInCU: 0x18C79, offset: 0x21153, size: 0x8, addend: 0x0, symName: __ZNKSt3__16vectorI4DateNS_9allocatorIS1_EEE11__recommendB8ue170006Em, symObjAddr: 0x41C0, symBinAddr: 0x100005110, symSize: 0xA0 }
  - { offsetInCU: 0x18CCD, offset: 0x211A7, size: 0x8, addend: 0x0, symName: __ZNSt3__114__split_bufferI4DateRNS_9allocatorIS1_EEEC1EmmS4_, symObjAddr: 0x4260, symBinAddr: 0x1000051B0, symSize: 0x40 }
  - { offsetInCU: 0x18D22, offset: 0x211FC, size: 0x8, addend: 0x0, symName: __ZNSt3__114__split_bufferI4DateRNS_9allocatorIS1_EEED1Ev, symObjAddr: 0x43C0, symBinAddr: 0x100005310, symSize: 0x20 }
  - { offsetInCU: 0x18D4D, offset: 0x21227, size: 0x8, addend: 0x0, symName: __ZNSt3__114__split_bufferI4DateRNS_9allocatorIS1_EEEC2EmmS4_, symObjAddr: 0x4460, symBinAddr: 0x1000053B0, symSize: 0xC0 }
  - { offsetInCU: 0x18DC0, offset: 0x2129A, size: 0x8, addend: 0x0, symName: __ZNSt3__117__compressed_pairIP4DateRNS_9allocatorIS1_EEEC1B8ue170006IDnS5_EEOT_OT0_, symObjAddr: 0x4520, symBinAddr: 0x100005470, symSize: 0x30 }
  - { offsetInCU: 0x18E16, offset: 0x212F0, size: 0x8, addend: 0x0, symName: __ZNSt3__114__split_bufferI4DateRNS_9allocatorIS1_EEE7__allocB8ue170006Ev, symObjAddr: 0x4550, symBinAddr: 0x1000054A0, symSize: 0x20 }
  - { offsetInCU: 0x18E3A, offset: 0x21314, size: 0x8, addend: 0x0, symName: __ZNSt3__114__split_bufferI4DateRNS_9allocatorIS1_EEE9__end_capB8ue170006Ev, symObjAddr: 0x4570, symBinAddr: 0x1000054C0, symSize: 0x20 }
  - { offsetInCU: 0x18E5E, offset: 0x21338, size: 0x8, addend: 0x0, symName: __ZNSt3__117__compressed_pairIP4DateRNS_9allocatorIS1_EEEC2B8ue170006IDnS5_EEOT_OT0_, symObjAddr: 0x4590, symBinAddr: 0x1000054E0, symSize: 0x40 }
  - { offsetInCU: 0x18EB4, offset: 0x2138E, size: 0x8, addend: 0x0, symName: __ZNSt3__122__compressed_pair_elemIRNS_9allocatorI4DateEELi1ELb0EEC2B8ue170006IS4_vEEOT_, symObjAddr: 0x45D0, symBinAddr: 0x100005520, symSize: 0x20 }
  - { offsetInCU: 0x18EF4, offset: 0x213CE, size: 0x8, addend: 0x0, symName: __ZNSt3__117__compressed_pairIP4DateRNS_9allocatorIS1_EEE6secondB8ue170006Ev, symObjAddr: 0x45F0, symBinAddr: 0x100005540, symSize: 0x20 }
  - { offsetInCU: 0x18F18, offset: 0x213F2, size: 0x8, addend: 0x0, symName: __ZNSt3__122__compressed_pair_elemIRNS_9allocatorI4DateEELi1ELb0EE5__getB8ue170006Ev, symObjAddr: 0x4610, symBinAddr: 0x100005560, symSize: 0x20 }
  - { offsetInCU: 0x18F3C, offset: 0x21416, size: 0x8, addend: 0x0, symName: __ZNSt3__117__compressed_pairIP4DateRNS_9allocatorIS1_EEE5firstB8ue170006Ev, symObjAddr: 0x4630, symBinAddr: 0x100005580, symSize: 0x20 }
  - { offsetInCU: 0x18F60, offset: 0x2143A, size: 0x8, addend: 0x0, symName: __ZNSt3__116reverse_iteratorIP4DateEC1B8ue170006ES2_, symObjAddr: 0x46C0, symBinAddr: 0x100005610, symSize: 0x30 }
  - { offsetInCU: 0x18F96, offset: 0x21470, size: 0x8, addend: 0x0, symName: __ZNKSt3__116reverse_iteratorIP4DateE4baseB8ue170006Ev, symObjAddr: 0x46F0, symBinAddr: 0x100005640, symSize: 0x20 }
  - { offsetInCU: 0x18FDD, offset: 0x214B7, size: 0x8, addend: 0x0, symName: __ZNKSt3__111__move_loopINS_17_ClassicAlgPolicyEEclB8ue170006INS_16reverse_iteratorIP4DateEES7_S7_EENS_4pairIT_T1_EES9_T0_SA_, symObjAddr: 0x4B90, symBinAddr: 0x100005AE0, symSize: 0xA0 }
  - { offsetInCU: 0x1904B, offset: 0x21525, size: 0x8, addend: 0x0, symName: __ZNSt3__18_IterOpsINS_17_ClassicAlgPolicyEE11__iter_moveB8ue170006IRNS_16reverse_iteratorIP4DateEEEENS_9enable_ifIXsr12is_referenceIDTdeclsr3stdE7declvalIRT_EEEEE5valueEDTclsr3stdE4movedeclsr3stdE7declvalISB_EEEEE4typeEOSA_, symObjAddr: 0x4DB0, symBinAddr: 0x100005D00, symSize: 0x20 }
  - { offsetInCU: 0x19076, offset: 0x21550, size: 0x8, addend: 0x0, symName: __ZNKSt3__116reverse_iteratorIP4DateEdeB8ue170006Ev, symObjAddr: 0x4DD0, symBinAddr: 0x100005D20, symSize: 0x30 }
  - { offsetInCU: 0x190A8, offset: 0x21582, size: 0x8, addend: 0x0, symName: __ZNSt3__116reverse_iteratorIP4DateEppB8ue170006Ev, symObjAddr: 0x4E00, symBinAddr: 0x100005D50, symSize: 0x20 }
  - { offsetInCU: 0x190CC, offset: 0x215A6, size: 0x8, addend: 0x0, symName: __ZNSt3__18_IterOpsINS_17_ClassicAlgPolicyEE25__validate_iter_referenceB8ue170006IRNS_16reverse_iteratorIP4DateEEEEvv, symObjAddr: 0x4E20, symBinAddr: 0x100005D70, symSize: 0x10 }
  - { offsetInCU: 0x190E9, offset: 0x215C3, size: 0x8, addend: 0x0, symName: __ZNSt3__118__unwrap_iter_implINS_16reverse_iteratorIP4DateEELb0EE8__unwrapB8ue170006ES4_, symObjAddr: 0x4E30, symBinAddr: 0x100005D80, symSize: 0x20 }
  - { offsetInCU: 0x19110, offset: 0x215EA, size: 0x8, addend: 0x0, symName: __ZNSt3__14pairINS_16reverse_iteratorIP4DateEES4_EC1B8ue170006IS4_S4_LPv0EEEOT_OT0_, symObjAddr: 0x4E50, symBinAddr: 0x100005DA0, symSize: 0x30 }
  - { offsetInCU: 0x1916D, offset: 0x21647, size: 0x8, addend: 0x0, symName: __ZNSt3__14pairINS_16reverse_iteratorIP4DateEES4_EC2B8ue170006IS4_S4_LPv0EEEOT_OT0_, symObjAddr: 0x4E80, symBinAddr: 0x100005DD0, symSize: 0x40 }
  - { offsetInCU: 0x191CA, offset: 0x216A4, size: 0x8, addend: 0x0, symName: __ZNSt3__118__unwrap_iter_implINS_16reverse_iteratorIP4DateEELb0EE8__rewrapB8ue170006ES4_S4_, symObjAddr: 0x4EC0, symBinAddr: 0x100005E10, symSize: 0x30 }
  - { offsetInCU: 0x191F6, offset: 0x216D0, size: 0x8, addend: 0x0, symName: __ZNSt3__116reverse_iteratorIP4DateEC2B8ue170006ES2_, symObjAddr: 0x4EF0, symBinAddr: 0x100005E40, symSize: 0x30 }
  - { offsetInCU: 0x1922C, offset: 0x21706, size: 0x8, addend: 0x0, symName: __ZNSt3__114__split_bufferI4DateRNS_9allocatorIS1_EEED2Ev, symObjAddr: 0x4F20, symBinAddr: 0x100005E70, symSize: 0x70 }
  - { offsetInCU: 0x19257, offset: 0x21731, size: 0x8, addend: 0x0, symName: __ZNSt3__114__split_bufferI4DateRNS_9allocatorIS1_EEE5clearB8ue170006Ev, symObjAddr: 0x4F90, symBinAddr: 0x100005EE0, symSize: 0x20 }
  - { offsetInCU: 0x1927B, offset: 0x21755, size: 0x8, addend: 0x0, symName: __ZNKSt3__114__split_bufferI4DateRNS_9allocatorIS1_EEE8capacityB8ue170006Ev, symObjAddr: 0x4FB0, symBinAddr: 0x100005F00, symSize: 0x40 }
  - { offsetInCU: 0x1929F, offset: 0x21779, size: 0x8, addend: 0x0, symName: __ZNSt3__114__split_bufferI4DateRNS_9allocatorIS1_EEE17__destruct_at_endB8ue170006EPS1_, symObjAddr: 0x4FF0, symBinAddr: 0x100005F40, symSize: 0x30 }
  - { offsetInCU: 0x192D0, offset: 0x217AA, size: 0x8, addend: 0x0, symName: __ZNSt3__114__split_bufferI4DateRNS_9allocatorIS1_EEE17__destruct_at_endB8ue170006EPS1_NS_17integral_constantIbLb0EEE, symObjAddr: 0x5020, symBinAddr: 0x100005F70, symSize: 0x80 }
  - { offsetInCU: 0x1930F, offset: 0x217E9, size: 0x8, addend: 0x0, symName: __ZNKSt3__114__split_bufferI4DateRNS_9allocatorIS1_EEE9__end_capB8ue170006Ev, symObjAddr: 0x50A0, symBinAddr: 0x100005FF0, symSize: 0x20 }
  - { offsetInCU: 0x19333, offset: 0x2180D, size: 0x8, addend: 0x0, symName: __ZNKSt3__117__compressed_pairIP4DateRNS_9allocatorIS1_EEE5firstB8ue170006Ev, symObjAddr: 0x50C0, symBinAddr: 0x100006010, symSize: 0x20 }
  - { offsetInCU: 0x19357, offset: 0x21831, size: 0x8, addend: 0x0, symName: __ZNSt3__16vectorIdNS_9allocatorIdEEE22__construct_one_at_endB8ue170006IJRKdEEEvDpOT_, symObjAddr: 0x50E0, symBinAddr: 0x100006030, symSize: 0x90 }
  - { offsetInCU: 0x193A3, offset: 0x2187D, size: 0x8, addend: 0x0, symName: __ZNSt3__16vectorIdNS_9allocatorIdEEE21__push_back_slow_pathIRKdEEvOT_, symObjAddr: 0x5170, symBinAddr: 0x1000060C0, symSize: 0xD0 }
  - { offsetInCU: 0x19400, offset: 0x218DA, size: 0x8, addend: 0x0, symName: __ZNSt3__116allocator_traitsINS_9allocatorIdEEE9constructB8ue170006IdJRKdEvEEvRS2_PT_DpOT0_, symObjAddr: 0x5240, symBinAddr: 0x100006190, symSize: 0x30 }
  - { offsetInCU: 0x19456, offset: 0x21930, size: 0x8, addend: 0x0, symName: __ZNSt3__19allocatorIdE9constructB8ue170006IdJRKdEEEvPT_DpOT0_, symObjAddr: 0x5270, symBinAddr: 0x1000061C0, symSize: 0x30 }
  - { offsetInCU: 0x194A9, offset: 0x21983, size: 0x8, addend: 0x0, symName: __ZNKSt3__16vectorIdNS_9allocatorIdEEE11__recommendB8ue170006Em, symObjAddr: 0x52A0, symBinAddr: 0x1000061F0, symSize: 0xA0 }
  - { offsetInCU: 0x194FD, offset: 0x219D7, size: 0x8, addend: 0x0, symName: __ZNSt3__114__split_bufferIdRNS_9allocatorIdEEEC1EmmS3_, symObjAddr: 0x5340, symBinAddr: 0x100006290, symSize: 0x40 }
  - { offsetInCU: 0x19552, offset: 0x21A2C, size: 0x8, addend: 0x0, symName: __ZNSt3__114__split_bufferIdRNS_9allocatorIdEEED1Ev, symObjAddr: 0x54A0, symBinAddr: 0x1000063F0, symSize: 0x20 }
  - { offsetInCU: 0x1957D, offset: 0x21A57, size: 0x8, addend: 0x0, symName: __ZNSt3__114__split_bufferIdRNS_9allocatorIdEEEC2EmmS3_, symObjAddr: 0x54C0, symBinAddr: 0x100006410, symSize: 0xD0 }
  - { offsetInCU: 0x195F0, offset: 0x21ACA, size: 0x8, addend: 0x0, symName: __ZNSt3__117__compressed_pairIPdRNS_9allocatorIdEEEC1B8ue170006IDnS4_EEOT_OT0_, symObjAddr: 0x5590, symBinAddr: 0x1000064E0, symSize: 0x30 }
  - { offsetInCU: 0x19646, offset: 0x21B20, size: 0x8, addend: 0x0, symName: __ZNSt3__114__split_bufferIdRNS_9allocatorIdEEE7__allocB8ue170006Ev, symObjAddr: 0x55C0, symBinAddr: 0x100006510, symSize: 0x20 }
  - { offsetInCU: 0x1966A, offset: 0x21B44, size: 0x8, addend: 0x0, symName: __ZNSt3__114__split_bufferIdRNS_9allocatorIdEEE9__end_capB8ue170006Ev, symObjAddr: 0x55E0, symBinAddr: 0x100006530, symSize: 0x20 }
  - { offsetInCU: 0x1968E, offset: 0x21B68, size: 0x8, addend: 0x0, symName: __ZNSt3__117__compressed_pairIPdRNS_9allocatorIdEEEC2B8ue170006IDnS4_EEOT_OT0_, symObjAddr: 0x5600, symBinAddr: 0x100006550, symSize: 0x40 }
  - { offsetInCU: 0x196E4, offset: 0x21BBE, size: 0x8, addend: 0x0, symName: __ZNSt3__122__compressed_pair_elemIRNS_9allocatorIdEELi1ELb0EEC2B8ue170006IS3_vEEOT_, symObjAddr: 0x5640, symBinAddr: 0x100006590, symSize: 0x20 }
  - { offsetInCU: 0x19724, offset: 0x21BFE, size: 0x8, addend: 0x0, symName: __ZNSt3__117__compressed_pairIPdRNS_9allocatorIdEEE6secondB8ue170006Ev, symObjAddr: 0x5660, symBinAddr: 0x1000065B0, symSize: 0x20 }
  - { offsetInCU: 0x19748, offset: 0x21C22, size: 0x8, addend: 0x0, symName: __ZNSt3__122__compressed_pair_elemIRNS_9allocatorIdEELi1ELb0EE5__getB8ue170006Ev, symObjAddr: 0x5680, symBinAddr: 0x1000065D0, symSize: 0x20 }
  - { offsetInCU: 0x1976C, offset: 0x21C46, size: 0x8, addend: 0x0, symName: __ZNSt3__117__compressed_pairIPdRNS_9allocatorIdEEE5firstB8ue170006Ev, symObjAddr: 0x56A0, symBinAddr: 0x1000065F0, symSize: 0x20 }
  - { offsetInCU: 0x19790, offset: 0x21C6A, size: 0x8, addend: 0x0, symName: __ZNSt3__116reverse_iteratorIPdEC1B8ue170006ES1_, symObjAddr: 0x5730, symBinAddr: 0x100006680, symSize: 0x30 }
  - { offsetInCU: 0x197C6, offset: 0x21CA0, size: 0x8, addend: 0x0, symName: __ZNKSt3__116reverse_iteratorIPdE4baseB8ue170006Ev, symObjAddr: 0x5760, symBinAddr: 0x1000066B0, symSize: 0x20 }
  - { offsetInCU: 0x19803, offset: 0x21CDD, size: 0x8, addend: 0x0, symName: __ZNKSt3__111__move_loopINS_17_ClassicAlgPolicyEEclB8ue170006INS_16reverse_iteratorIPdEES6_S6_EENS_4pairIT_T1_EES8_T0_S9_, symObjAddr: 0x5C00, symBinAddr: 0x100006B50, symSize: 0xA0 }
  - { offsetInCU: 0x19871, offset: 0x21D4B, size: 0x8, addend: 0x0, symName: __ZNSt3__18_IterOpsINS_17_ClassicAlgPolicyEE11__iter_moveB8ue170006IRNS_16reverse_iteratorIPdEEEENS_9enable_ifIXsr12is_referenceIDTdeclsr3stdE7declvalIRT_EEEEE5valueEDTclsr3stdE4movedeclsr3stdE7declvalISA_EEEEE4typeEOS9_, symObjAddr: 0x5E20, symBinAddr: 0x100006D70, symSize: 0x20 }
  - { offsetInCU: 0x1989C, offset: 0x21D76, size: 0x8, addend: 0x0, symName: __ZNKSt3__116reverse_iteratorIPdEdeB8ue170006Ev, symObjAddr: 0x5E40, symBinAddr: 0x100006D90, symSize: 0x30 }
  - { offsetInCU: 0x198CE, offset: 0x21DA8, size: 0x8, addend: 0x0, symName: __ZNSt3__116reverse_iteratorIPdEppB8ue170006Ev, symObjAddr: 0x5E70, symBinAddr: 0x100006DC0, symSize: 0x20 }
  - { offsetInCU: 0x198F2, offset: 0x21DCC, size: 0x8, addend: 0x0, symName: __ZNSt3__18_IterOpsINS_17_ClassicAlgPolicyEE25__validate_iter_referenceB8ue170006IRNS_16reverse_iteratorIPdEEEEvv, symObjAddr: 0x5E90, symBinAddr: 0x100006DE0, symSize: 0x10 }
  - { offsetInCU: 0x1990F, offset: 0x21DE9, size: 0x8, addend: 0x0, symName: __ZNSt3__118__unwrap_iter_implINS_16reverse_iteratorIPdEELb0EE8__unwrapB8ue170006ES3_, symObjAddr: 0x5EA0, symBinAddr: 0x100006DF0, symSize: 0x20 }
  - { offsetInCU: 0x19936, offset: 0x21E10, size: 0x8, addend: 0x0, symName: __ZNSt3__14pairINS_16reverse_iteratorIPdEES3_EC1B8ue170006IS3_S3_LPv0EEEOT_OT0_, symObjAddr: 0x5EC0, symBinAddr: 0x100006E10, symSize: 0x30 }
  - { offsetInCU: 0x19993, offset: 0x21E6D, size: 0x8, addend: 0x0, symName: __ZNSt3__14pairINS_16reverse_iteratorIPdEES3_EC2B8ue170006IS3_S3_LPv0EEEOT_OT0_, symObjAddr: 0x5EF0, symBinAddr: 0x100006E40, symSize: 0x40 }
  - { offsetInCU: 0x199F0, offset: 0x21ECA, size: 0x8, addend: 0x0, symName: __ZNSt3__118__unwrap_iter_implINS_16reverse_iteratorIPdEELb0EE8__rewrapB8ue170006ES3_S3_, symObjAddr: 0x5F30, symBinAddr: 0x100006E80, symSize: 0x30 }
  - { offsetInCU: 0x19A1C, offset: 0x21EF6, size: 0x8, addend: 0x0, symName: __ZNSt3__116reverse_iteratorIPdEC2B8ue170006ES1_, symObjAddr: 0x5F60, symBinAddr: 0x100006EB0, symSize: 0x30 }
  - { offsetInCU: 0x19A52, offset: 0x21F2C, size: 0x8, addend: 0x0, symName: __ZNSt3__114__split_bufferIdRNS_9allocatorIdEEED2Ev, symObjAddr: 0x5F90, symBinAddr: 0x100006EE0, symSize: 0x70 }
  - { offsetInCU: 0x19A7D, offset: 0x21F57, size: 0x8, addend: 0x0, symName: __ZNSt3__114__split_bufferIdRNS_9allocatorIdEEE5clearB8ue170006Ev, symObjAddr: 0x6000, symBinAddr: 0x100006F50, symSize: 0x20 }
  - { offsetInCU: 0x19AA1, offset: 0x21F7B, size: 0x8, addend: 0x0, symName: __ZNKSt3__114__split_bufferIdRNS_9allocatorIdEEE8capacityB8ue170006Ev, symObjAddr: 0x6020, symBinAddr: 0x100006F70, symSize: 0x30 }
  - { offsetInCU: 0x19AC5, offset: 0x21F9F, size: 0x8, addend: 0x0, symName: __ZNSt3__114__split_bufferIdRNS_9allocatorIdEEE17__destruct_at_endB8ue170006EPd, symObjAddr: 0x6050, symBinAddr: 0x100006FA0, symSize: 0x30 }
  - { offsetInCU: 0x19AF6, offset: 0x21FD0, size: 0x8, addend: 0x0, symName: __ZNSt3__114__split_bufferIdRNS_9allocatorIdEEE17__destruct_at_endB8ue170006EPdNS_17integral_constantIbLb0EEE, symObjAddr: 0x6080, symBinAddr: 0x100006FD0, symSize: 0x80 }
  - { offsetInCU: 0x19B35, offset: 0x2200F, size: 0x8, addend: 0x0, symName: __ZNKSt3__114__split_bufferIdRNS_9allocatorIdEEE9__end_capB8ue170006Ev, symObjAddr: 0x6100, symBinAddr: 0x100007050, symSize: 0x20 }
  - { offsetInCU: 0x19B59, offset: 0x22033, size: 0x8, addend: 0x0, symName: __ZNKSt3__117__compressed_pairIPdRNS_9allocatorIdEEE5firstB8ue170006Ev, symObjAddr: 0x6120, symBinAddr: 0x100007070, symSize: 0x20 }
  - { offsetInCU: 0x19B7C, offset: 0x22056, size: 0x8, addend: 0x0, symName: __ZNKSt3__112__hash_tableINS_17__hash_value_typeINS_12basic_stringIcNS_11char_traitsIcEENS_9allocatorIcEEEE9RateCurveEENS_22__unordered_map_hasherIS7_S9_NS_4hashIS7_EENS_8equal_toIS7_EELb1EEENS_21__unordered_map_equalIS7_S9_SE_SC_Lb1EEENS5_IS9_EEE5beginEv, symObjAddr: 0x6140, symBinAddr: 0x100007090, symSize: 0x30 }
  - { offsetInCU: 0x19BA3, offset: 0x2207D, size: 0x8, addend: 0x0, symName: __ZNSt3__125__hash_map_const_iteratorINS_21__hash_const_iteratorIPNS_11__hash_nodeINS_17__hash_value_typeINS_12basic_stringIcNS_11char_traitsIcEENS_9allocatorIcEEEE9RateCurveEEPvEEEEEC1B8ue170006ESF_, symObjAddr: 0x6170, symBinAddr: 0x1000070C0, symSize: 0x30 }
  - { offsetInCU: 0x19BDA, offset: 0x220B4, size: 0x8, addend: 0x0, symName: __ZNKSt3__117__compressed_pairINS_16__hash_node_baseIPNS_11__hash_nodeINS_17__hash_value_typeINS_12basic_stringIcNS_11char_traitsIcEENS_9allocatorIcEEEE9RateCurveEEPvEEEENS7_ISD_EEE5firstB8ue170006Ev, symObjAddr: 0x61A0, symBinAddr: 0x1000070F0, symSize: 0x20 }
  - { offsetInCU: 0x19BFE, offset: 0x220D8, size: 0x8, addend: 0x0, symName: __ZNSt3__121__hash_const_iteratorIPNS_11__hash_nodeINS_17__hash_value_typeINS_12basic_stringIcNS_11char_traitsIcEENS_9allocatorIcEEEE9RateCurveEEPvEEEC1B8ue170006EPNS_16__hash_node_baseISD_EE, symObjAddr: 0x61C0, symBinAddr: 0x100007110, symSize: 0x30 }
  - { offsetInCU: 0x19C35, offset: 0x2210F, size: 0x8, addend: 0x0, symName: __ZNKSt3__122__compressed_pair_elemINS_16__hash_node_baseIPNS_11__hash_nodeINS_17__hash_value_typeINS_12basic_stringIcNS_11char_traitsIcEENS_9allocatorIcEEEE9RateCurveEEPvEEEELi0ELb0EE5__getB8ue170006Ev, symObjAddr: 0x61F0, symBinAddr: 0x100007140, symSize: 0x10 }
  - { offsetInCU: 0x19C59, offset: 0x22133, size: 0x8, addend: 0x0, symName: __ZNSt3__121__hash_const_iteratorIPNS_11__hash_nodeINS_17__hash_value_typeINS_12basic_stringIcNS_11char_traitsIcEENS_9allocatorIcEEEE9RateCurveEEPvEEEC2B8ue170006EPNS_16__hash_node_baseISD_EE, symObjAddr: 0x6200, symBinAddr: 0x100007150, symSize: 0x20 }
  - { offsetInCU: 0x19C90, offset: 0x2216A, size: 0x8, addend: 0x0, symName: __ZNSt3__125__hash_map_const_iteratorINS_21__hash_const_iteratorIPNS_11__hash_nodeINS_17__hash_value_typeINS_12basic_stringIcNS_11char_traitsIcEENS_9allocatorIcEEEE9RateCurveEEPvEEEEEC2B8ue170006ESF_, symObjAddr: 0x6220, symBinAddr: 0x100007170, symSize: 0x20 }
  - { offsetInCU: 0x19CC6, offset: 0x221A0, size: 0x8, addend: 0x0, symName: __ZNKSt3__112__hash_tableINS_17__hash_value_typeINS_12basic_stringIcNS_11char_traitsIcEENS_9allocatorIcEEEE9RateCurveEENS_22__unordered_map_hasherIS7_S9_NS_4hashIS7_EENS_8equal_toIS7_EELb1EEENS_21__unordered_map_equalIS7_S9_SE_SC_Lb1EEENS5_IS9_EEE3endEv, symObjAddr: 0x6240, symBinAddr: 0x100007190, symSize: 0x30 }
  - { offsetInCU: 0x19CED, offset: 0x221C7, size: 0x8, addend: 0x0, symName: __ZNSt3__121__hash_const_iteratorIPNS_11__hash_nodeINS_17__hash_value_typeINS_12basic_stringIcNS_11char_traitsIcEENS_9allocatorIcEEEE9RateCurveEEPvEEEppB8ue170006Ev, symObjAddr: 0x62D0, symBinAddr: 0x100007220, symSize: 0x20 }
  - { offsetInCU: 0x19D11, offset: 0x221EB, size: 0x8, addend: 0x0, symName: __ZNKSt3__121__hash_const_iteratorIPNS_11__hash_nodeINS_17__hash_value_typeINS_12basic_stringIcNS_11char_traitsIcEENS_9allocatorIcEEEE9RateCurveEEPvEEEptB8ue170006Ev, symObjAddr: 0x62F0, symBinAddr: 0x100007240, symSize: 0x30 }
  - { offsetInCU: 0x19D35, offset: 0x2220F, size: 0x8, addend: 0x0, symName: __ZNKSt3__117__hash_value_typeINS_12basic_stringIcNS_11char_traitsIcEENS_9allocatorIcEEEE9RateCurveE11__get_valueB8ue170006Ev, symObjAddr: 0x6320, symBinAddr: 0x100007270, symSize: 0x20 }
  - { offsetInCU: 0x19D59, offset: 0x22233, size: 0x8, addend: 0x0, symName: __ZNSt3__114pointer_traitsIPKNS_17__hash_value_typeINS_12basic_stringIcNS_11char_traitsIcEENS_9allocatorIcEEEE9RateCurveEEE10pointer_toB8ue170006ERSA_, symObjAddr: 0x6340, symBinAddr: 0x100007290, symSize: 0x10 }
  - { offsetInCU: 0x19D7B, offset: 0x22255, size: 0x8, addend: 0x0, symName: __ZNSt3__116__hash_node_baseIPNS_11__hash_nodeINS_17__hash_value_typeINS_12basic_stringIcNS_11char_traitsIcEENS_9allocatorIcEEEE9RateCurveEEPvEEE8__upcastB8ue170006Ev, symObjAddr: 0x6350, symBinAddr: 0x1000072A0, symSize: 0x20 }
  - { offsetInCU: 0x19D9F, offset: 0x22279, size: 0x8, addend: 0x0, symName: __ZNSt3__114pointer_traitsIPNS_16__hash_node_baseIPNS_11__hash_nodeINS_17__hash_value_typeINS_12basic_stringIcNS_11char_traitsIcEENS_9allocatorIcEEEE9RateCurveEEPvEEEEE10pointer_toB8ue170006ERSF_, symObjAddr: 0x6370, symBinAddr: 0x1000072C0, symSize: 0x10 }
  - { offsetInCU: 0x19DC0, offset: 0x2229A, size: 0x8, addend: 0x0, symName: __ZNKSt3__112__hash_tableINS_17__hash_value_typeINS_12basic_stringIcNS_11char_traitsIcEENS_9allocatorIcEEEE8VolCurveEENS_22__unordered_map_hasherIS7_S9_NS_4hashIS7_EENS_8equal_toIS7_EELb1EEENS_21__unordered_map_equalIS7_S9_SE_SC_Lb1EEENS5_IS9_EEE5beginEv, symObjAddr: 0x63B0, symBinAddr: 0x100007300, symSize: 0x30 }
  - { offsetInCU: 0x19DE7, offset: 0x222C1, size: 0x8, addend: 0x0, symName: __ZNSt3__125__hash_map_const_iteratorINS_21__hash_const_iteratorIPNS_11__hash_nodeINS_17__hash_value_typeINS_12basic_stringIcNS_11char_traitsIcEENS_9allocatorIcEEEE8VolCurveEEPvEEEEEC1B8ue170006ESF_, symObjAddr: 0x63E0, symBinAddr: 0x100007330, symSize: 0x30 }
  - { offsetInCU: 0x19E1E, offset: 0x222F8, size: 0x8, addend: 0x0, symName: __ZNKSt3__117__compressed_pairINS_16__hash_node_baseIPNS_11__hash_nodeINS_17__hash_value_typeINS_12basic_stringIcNS_11char_traitsIcEENS_9allocatorIcEEEE8VolCurveEEPvEEEENS7_ISD_EEE5firstB8ue170006Ev, symObjAddr: 0x6410, symBinAddr: 0x100007360, symSize: 0x20 }
  - { offsetInCU: 0x19E42, offset: 0x2231C, size: 0x8, addend: 0x0, symName: __ZNSt3__121__hash_const_iteratorIPNS_11__hash_nodeINS_17__hash_value_typeINS_12basic_stringIcNS_11char_traitsIcEENS_9allocatorIcEEEE8VolCurveEEPvEEEC1B8ue170006EPNS_16__hash_node_baseISD_EE, symObjAddr: 0x6430, symBinAddr: 0x100007380, symSize: 0x30 }
  - { offsetInCU: 0x19E79, offset: 0x22353, size: 0x8, addend: 0x0, symName: __ZNKSt3__122__compressed_pair_elemINS_16__hash_node_baseIPNS_11__hash_nodeINS_17__hash_value_typeINS_12basic_stringIcNS_11char_traitsIcEENS_9allocatorIcEEEE8VolCurveEEPvEEEELi0ELb0EE5__getB8ue170006Ev, symObjAddr: 0x6460, symBinAddr: 0x1000073B0, symSize: 0x10 }
  - { offsetInCU: 0x19E9D, offset: 0x22377, size: 0x8, addend: 0x0, symName: __ZNSt3__121__hash_const_iteratorIPNS_11__hash_nodeINS_17__hash_value_typeINS_12basic_stringIcNS_11char_traitsIcEENS_9allocatorIcEEEE8VolCurveEEPvEEEC2B8ue170006EPNS_16__hash_node_baseISD_EE, symObjAddr: 0x6470, symBinAddr: 0x1000073C0, symSize: 0x20 }
  - { offsetInCU: 0x19ED4, offset: 0x223AE, size: 0x8, addend: 0x0, symName: __ZNSt3__125__hash_map_const_iteratorINS_21__hash_const_iteratorIPNS_11__hash_nodeINS_17__hash_value_typeINS_12basic_stringIcNS_11char_traitsIcEENS_9allocatorIcEEEE8VolCurveEEPvEEEEEC2B8ue170006ESF_, symObjAddr: 0x6490, symBinAddr: 0x1000073E0, symSize: 0x20 }
  - { offsetInCU: 0x19F0A, offset: 0x223E4, size: 0x8, addend: 0x0, symName: __ZNKSt3__112__hash_tableINS_17__hash_value_typeINS_12basic_stringIcNS_11char_traitsIcEENS_9allocatorIcEEEE8VolCurveEENS_22__unordered_map_hasherIS7_S9_NS_4hashIS7_EENS_8equal_toIS7_EELb1EEENS_21__unordered_map_equalIS7_S9_SE_SC_Lb1EEENS5_IS9_EEE3endEv, symObjAddr: 0x64B0, symBinAddr: 0x100007400, symSize: 0x30 }
  - { offsetInCU: 0x19F31, offset: 0x2240B, size: 0x8, addend: 0x0, symName: __ZNSt3__121__hash_const_iteratorIPNS_11__hash_nodeINS_17__hash_value_typeINS_12basic_stringIcNS_11char_traitsIcEENS_9allocatorIcEEEE8VolCurveEEPvEEEppB8ue170006Ev, symObjAddr: 0x6540, symBinAddr: 0x100007490, symSize: 0x20 }
  - { offsetInCU: 0x19F55, offset: 0x2242F, size: 0x8, addend: 0x0, symName: __ZNKSt3__121__hash_const_iteratorIPNS_11__hash_nodeINS_17__hash_value_typeINS_12basic_stringIcNS_11char_traitsIcEENS_9allocatorIcEEEE8VolCurveEEPvEEEptB8ue170006Ev, symObjAddr: 0x6560, symBinAddr: 0x1000074B0, symSize: 0x30 }
  - { offsetInCU: 0x19F79, offset: 0x22453, size: 0x8, addend: 0x0, symName: __ZNKSt3__117__hash_value_typeINS_12basic_stringIcNS_11char_traitsIcEENS_9allocatorIcEEEE8VolCurveE11__get_valueB8ue170006Ev, symObjAddr: 0x6590, symBinAddr: 0x1000074E0, symSize: 0x20 }
  - { offsetInCU: 0x19F9D, offset: 0x22477, size: 0x8, addend: 0x0, symName: __ZNSt3__114pointer_traitsIPKNS_17__hash_value_typeINS_12basic_stringIcNS_11char_traitsIcEENS_9allocatorIcEEEE8VolCurveEEE10pointer_toB8ue170006ERSA_, symObjAddr: 0x65B0, symBinAddr: 0x100007500, symSize: 0x10 }
  - { offsetInCU: 0x19FBF, offset: 0x22499, size: 0x8, addend: 0x0, symName: __ZNSt3__116__hash_node_baseIPNS_11__hash_nodeINS_17__hash_value_typeINS_12basic_stringIcNS_11char_traitsIcEENS_9allocatorIcEEEE8VolCurveEEPvEEE8__upcastB8ue170006Ev, symObjAddr: 0x65C0, symBinAddr: 0x100007510, symSize: 0x20 }
  - { offsetInCU: 0x19FE3, offset: 0x224BD, size: 0x8, addend: 0x0, symName: __ZNSt3__114pointer_traitsIPNS_16__hash_node_baseIPNS_11__hash_nodeINS_17__hash_value_typeINS_12basic_stringIcNS_11char_traitsIcEENS_9allocatorIcEEEE8VolCurveEEPvEEEEE10pointer_toB8ue170006ERSF_, symObjAddr: 0x65E0, symBinAddr: 0x100007530, symSize: 0x10 }
  - { offsetInCU: 0x1A005, offset: 0x224DF, size: 0x8, addend: 0x0, symName: __ZNSt3__112__hash_tableINS_17__hash_value_typeINS_12basic_stringIcNS_11char_traitsIcEENS_9allocatorIcEEEE9RateCurveEENS_22__unordered_map_hasherIS7_S9_NS_4hashIS7_EENS_8equal_toIS7_EELb1EEENS_21__unordered_map_equalIS7_S9_SE_SC_Lb1EEENS5_IS9_EEE16__emplace_uniqueB8ue170006IRKS7_RKS8_EENS_9enable_ifIXsr21__can_extract_map_keyIT_S7_NS_4pairISL_S8_EEEE5valueENSR_INS_15__hash_iteratorIPNS_11__hash_nodeIS9_PvEEEEbEEE4typeEOSQ_OT0_, symObjAddr: 0x6620, symBinAddr: 0x100007570, symSize: 0x40 }
  - { offsetInCU: 0x1A059, offset: 0x22533, size: 0x8, addend: 0x0, symName: __ZNSt3__14pairINS_19__hash_map_iteratorINS_15__hash_iteratorIPNS_11__hash_nodeINS_17__hash_value_typeINS_12basic_stringIcNS_11char_traitsIcEENS_9allocatorIcEEEE9RateCurveEEPvEEEEEEbEC1B8ue170006ISG_bLSD_0EEEONS0_IT_T0_EE, symObjAddr: 0x6660, symBinAddr: 0x1000075B0, symSize: 0x30 }
  - { offsetInCU: 0x1A0A8, offset: 0x22582, size: 0x8, addend: 0x0, symName: __ZNSt3__112__hash_tableINS_17__hash_value_typeINS_12basic_stringIcNS_11char_traitsIcEENS_9allocatorIcEEEE9RateCurveEENS_22__unordered_map_hasherIS7_S9_NS_4hashIS7_EENS_8equal_toIS7_EELb1EEENS_21__unordered_map_equalIS7_S9_SE_SC_Lb1EEENS5_IS9_EEE25__emplace_unique_key_argsIS7_JRKS7_RKS8_EEENS_4pairINS_15__hash_iteratorIPNS_11__hash_nodeIS9_PvEEEEbEERKT_DpOT0_, symObjAddr: 0x6690, symBinAddr: 0x1000075E0, symSize: 0x650 }
  - { offsetInCU: 0x1A19A, offset: 0x22674, size: 0x8, addend: 0x0, symName: __ZNSt3__112__hash_tableINS_17__hash_value_typeINS_12basic_stringIcNS_11char_traitsIcEENS_9allocatorIcEEEE9RateCurveEENS_22__unordered_map_hasherIS7_S9_NS_4hashIS7_EENS_8equal_toIS7_EELb1EEENS_21__unordered_map_equalIS7_S9_SE_SC_Lb1EEENS5_IS9_EEE13hash_functionB8ue170006Ev, symObjAddr: 0x6CE0, symBinAddr: 0x100007C30, symSize: 0x20 }
  - { offsetInCU: 0x1A1BE, offset: 0x22698, size: 0x8, addend: 0x0, symName: __ZNKSt3__122__unordered_map_hasherINS_12basic_stringIcNS_11char_traitsIcEENS_9allocatorIcEEEENS_17__hash_value_typeIS6_9RateCurveEENS_4hashIS6_EENS_8equal_toIS6_EELb1EEclB8ue170006ERKS6_, symObjAddr: 0x6D00, symBinAddr: 0x100007C50, symSize: 0x30 }
  - { offsetInCU: 0x1A1F1, offset: 0x226CB, size: 0x8, addend: 0x0, symName: __ZNKSt3__112__hash_tableINS_17__hash_value_typeINS_12basic_stringIcNS_11char_traitsIcEENS_9allocatorIcEEEE9RateCurveEENS_22__unordered_map_hasherIS7_S9_NS_4hashIS7_EENS_8equal_toIS7_EELb1EEENS_21__unordered_map_equalIS7_S9_SE_SC_Lb1EEENS5_IS9_EEE12bucket_countB8ue170006Ev, symObjAddr: 0x6D30, symBinAddr: 0x100007C80, symSize: 0x30 }
  - { offsetInCU: 0x1A215, offset: 0x226EF, size: 0x8, addend: 0x0, symName: __ZNKSt3__110unique_ptrIA_PNS_16__hash_node_baseIPNS_11__hash_nodeINS_17__hash_value_typeINS_12basic_stringIcNS_11char_traitsIcEENS_9allocatorIcEEEE9RateCurveEEPvEEEENS_25__bucket_list_deallocatorINS7_ISG_EEEEEixB8ue170006Em, symObjAddr: 0x6DE0, symBinAddr: 0x100007D30, symSize: 0x30 }
  - { offsetInCU: 0x1A248, offset: 0x22722, size: 0x8, addend: 0x0, symName: __ZNKSt3__116__hash_node_baseIPNS_11__hash_nodeINS_17__hash_value_typeINS_12basic_stringIcNS_11char_traitsIcEENS_9allocatorIcEEEE9RateCurveEEPvEEE6__hashB8ue170006Ev, symObjAddr: 0x6E10, symBinAddr: 0x100007D60, symSize: 0x20 }
  - { offsetInCU: 0x1A26C, offset: 0x22746, size: 0x8, addend: 0x0, symName: __ZNSt3__112__hash_tableINS_17__hash_value_typeINS_12basic_stringIcNS_11char_traitsIcEENS_9allocatorIcEEEE9RateCurveEENS_22__unordered_map_hasherIS7_S9_NS_4hashIS7_EENS_8equal_toIS7_EELb1EEENS_21__unordered_map_equalIS7_S9_SE_SC_Lb1EEENS5_IS9_EEE6key_eqB8ue170006Ev, symObjAddr: 0x6E30, symBinAddr: 0x100007D80, symSize: 0x20 }
  - { offsetInCU: 0x1A290, offset: 0x2276A, size: 0x8, addend: 0x0, symName: __ZNKSt3__121__unordered_map_equalINS_12basic_stringIcNS_11char_traitsIcEENS_9allocatorIcEEEENS_17__hash_value_typeIS6_9RateCurveEENS_8equal_toIS6_EENS_4hashIS6_EELb1EEclB8ue170006ERKS9_RKS6_, symObjAddr: 0x6E50, symBinAddr: 0x100007DA0, symSize: 0x40 }
  - { offsetInCU: 0x1A2D1, offset: 0x227AB, size: 0x8, addend: 0x0, symName: __ZNSt3__112__hash_tableINS_17__hash_value_typeINS_12basic_stringIcNS_11char_traitsIcEENS_9allocatorIcEEEE9RateCurveEENS_22__unordered_map_hasherIS7_S9_NS_4hashIS7_EENS_8equal_toIS7_EELb1EEENS_21__unordered_map_equalIS7_S9_SE_SC_Lb1EEENS5_IS9_EEE21__construct_node_hashIRKS7_JRKS8_EEENS_10unique_ptrINS_11__hash_nodeIS9_PvEENS_22__hash_node_destructorINS5_ISS_EEEEEEmOT_DpOT0_, symObjAddr: 0x6E90, symBinAddr: 0x100007DE0, symSize: 0x140 }
  - { offsetInCU: 0x1A358, offset: 0x22832, size: 0x8, addend: 0x0, symName: __ZNSt3__112__hash_tableINS_17__hash_value_typeINS_12basic_stringIcNS_11char_traitsIcEENS_9allocatorIcEEEE9RateCurveEENS_22__unordered_map_hasherIS7_S9_NS_4hashIS7_EENS_8equal_toIS7_EELb1EEENS_21__unordered_map_equalIS7_S9_SE_SC_Lb1EEENS5_IS9_EEE4sizeB8ue170006Ev, symObjAddr: 0x6FD0, symBinAddr: 0x100007F20, symSize: 0x20 }
  - { offsetInCU: 0x1A37C, offset: 0x22856, size: 0x8, addend: 0x0, symName: __ZNSt3__112__hash_tableINS_17__hash_value_typeINS_12basic_stringIcNS_11char_traitsIcEENS_9allocatorIcEEEE9RateCurveEENS_22__unordered_map_hasherIS7_S9_NS_4hashIS7_EENS_8equal_toIS7_EELb1EEENS_21__unordered_map_equalIS7_S9_SE_SC_Lb1EEENS5_IS9_EEE15max_load_factorB8ue170006Ev, symObjAddr: 0x6FF0, symBinAddr: 0x100007F40, symSize: 0x20 }
  - { offsetInCU: 0x1A3A0, offset: 0x2287A, size: 0x8, addend: 0x0, symName: __ZNSt3__112__hash_tableINS_17__hash_value_typeINS_12basic_stringIcNS_11char_traitsIcEENS_9allocatorIcEEEE9RateCurveEENS_22__unordered_map_hasherIS7_S9_NS_4hashIS7_EENS_8equal_toIS7_EELb1EEENS_21__unordered_map_equalIS7_S9_SE_SC_Lb1EEENS5_IS9_EEE15__rehash_uniqueB8ue170006Em, symObjAddr: 0x7010, symBinAddr: 0x100007F60, symSize: 0x30 }
  - { offsetInCU: 0x1A3D2, offset: 0x228AC, size: 0x8, addend: 0x0, symName: __Z4ceilB8ue170006f, symObjAddr: 0x7080, symBinAddr: 0x100007FD0, symSize: 0x20 }
  - { offsetInCU: 0x1A401, offset: 0x228DB, size: 0x8, addend: 0x0, symName: __ZNSt3__117__compressed_pairINS_16__hash_node_baseIPNS_11__hash_nodeINS_17__hash_value_typeINS_12basic_stringIcNS_11char_traitsIcEENS_9allocatorIcEEEE9RateCurveEEPvEEEENS7_ISD_EEE5firstB8ue170006Ev, symObjAddr: 0x70A0, symBinAddr: 0x100007FF0, symSize: 0x20 }
  - { offsetInCU: 0x1A425, offset: 0x228FF, size: 0x8, addend: 0x0, symName: __ZNSt3__116__hash_node_baseIPNS_11__hash_nodeINS_17__hash_value_typeINS_12basic_stringIcNS_11char_traitsIcEENS_9allocatorIcEEEE9RateCurveEEPvEEE5__ptrB8ue170006Ev, symObjAddr: 0x70C0, symBinAddr: 0x100008010, symSize: 0x20 }
  - { offsetInCU: 0x1A449, offset: 0x22923, size: 0x8, addend: 0x0, symName: __ZNKSt3__110unique_ptrINS_11__hash_nodeINS_17__hash_value_typeINS_12basic_stringIcNS_11char_traitsIcEENS_9allocatorIcEEEE9RateCurveEEPvEENS_22__hash_node_destructorINS6_ISC_EEEEEptB8ue170006Ev, symObjAddr: 0x70E0, symBinAddr: 0x100008030, symSize: 0x20 }
  - { offsetInCU: 0x1A46D, offset: 0x22947, size: 0x8, addend: 0x0, symName: __ZNKSt3__110unique_ptrINS_11__hash_nodeINS_17__hash_value_typeINS_12basic_stringIcNS_11char_traitsIcEENS_9allocatorIcEEEE9RateCurveEEPvEENS_22__hash_node_destructorINS6_ISC_EEEEE3getB8ue170006Ev, symObjAddr: 0x7100, symBinAddr: 0x100008050, symSize: 0x20 }
  - { offsetInCU: 0x1A491, offset: 0x2296B, size: 0x8, addend: 0x0, symName: __ZNSt3__110unique_ptrINS_11__hash_nodeINS_17__hash_value_typeINS_12basic_stringIcNS_11char_traitsIcEENS_9allocatorIcEEEE9RateCurveEEPvEENS_22__hash_node_destructorINS6_ISC_EEEEE7releaseB8ue170006Ev, symObjAddr: 0x7120, symBinAddr: 0x100008070, symSize: 0x40 }
  - { offsetInCU: 0x1A4C4, offset: 0x2299E, size: 0x8, addend: 0x0, symName: __ZNSt3__110unique_ptrINS_11__hash_nodeINS_17__hash_value_typeINS_12basic_stringIcNS_11char_traitsIcEENS_9allocatorIcEEEE9RateCurveEEPvEENS_22__hash_node_destructorINS6_ISC_EEEEED1B8ue170006Ev, symObjAddr: 0x7160, symBinAddr: 0x1000080B0, symSize: 0x20 }
  - { offsetInCU: 0x1A4EC, offset: 0x229C6, size: 0x8, addend: 0x0, symName: __ZNSt3__115__hash_iteratorIPNS_11__hash_nodeINS_17__hash_value_typeINS_12basic_stringIcNS_11char_traitsIcEENS_9allocatorIcEEEE9RateCurveEEPvEEEC1B8ue170006EPNS_16__hash_node_baseISD_EE, symObjAddr: 0x7180, symBinAddr: 0x1000080D0, symSize: 0x30 }
  - { offsetInCU: 0x1A52D, offset: 0x22A07, size: 0x8, addend: 0x0, symName: __ZNSt3__14pairINS_15__hash_iteratorIPNS_11__hash_nodeINS_17__hash_value_typeINS_12basic_stringIcNS_11char_traitsIcEENS_9allocatorIcEEEE9RateCurveEEPvEEEEbEC1B8ue170006ISF_RbLSC_0EEEOT_OT0_, symObjAddr: 0x71B0, symBinAddr: 0x100008100, symSize: 0x30 }
  - { offsetInCU: 0x1A58A, offset: 0x22A64, size: 0x8, addend: 0x0, symName: __ZNSt3__117__compressed_pairImNS_22__unordered_map_hasherINS_12basic_stringIcNS_11char_traitsIcEENS_9allocatorIcEEEENS_17__hash_value_typeIS7_9RateCurveEENS_4hashIS7_EENS_8equal_toIS7_EELb1EEEE6secondB8ue170006Ev, symObjAddr: 0x71E0, symBinAddr: 0x100008130, symSize: 0x20 }
  - { offsetInCU: 0x1A5AE, offset: 0x22A88, size: 0x8, addend: 0x0, symName: __ZNSt3__122__compressed_pair_elemINS_22__unordered_map_hasherINS_12basic_stringIcNS_11char_traitsIcEENS_9allocatorIcEEEENS_17__hash_value_typeIS7_9RateCurveEENS_4hashIS7_EENS_8equal_toIS7_EELb1EEELi1ELb1EE5__getB8ue170006Ev, symObjAddr: 0x7200, symBinAddr: 0x100008150, symSize: 0x10 }
  - { offsetInCU: 0x1A5D2, offset: 0x22AAC, size: 0x8, addend: 0x0, symName: __ZNKSt3__113__string_hashIcNS_9allocatorIcEEEclB8ue170006ERKNS_12basic_stringIcNS_11char_traitsIcEES2_EE, symObjAddr: 0x7210, symBinAddr: 0x100008160, symSize: 0x60 }
  - { offsetInCU: 0x1A605, offset: 0x22ADF, size: 0x8, addend: 0x0, symName: __ZNKSt3__121__murmur2_or_cityhashImLm64EEclB8ue170006EPKvm, symObjAddr: 0x72B0, symBinAddr: 0x100008200, symSize: 0x3D0 }
  - { offsetInCU: 0x1A69B, offset: 0x22B75, size: 0x8, addend: 0x0, symName: __ZNSt3__121__murmur2_or_cityhashImLm64EE18__hash_len_0_to_16B8ue170006EPKcm, symObjAddr: 0x7680, symBinAddr: 0x1000085D0, symSize: 0x180 }
  - { offsetInCU: 0x1A776, offset: 0x22C50, size: 0x8, addend: 0x0, symName: __ZNSt3__121__murmur2_or_cityhashImLm64EE19__hash_len_17_to_32B8ue170006EPKcm, symObjAddr: 0x7800, symBinAddr: 0x100008750, symSize: 0x100 }
  - { offsetInCU: 0x1A7DE, offset: 0x22CB8, size: 0x8, addend: 0x0, symName: __ZNSt3__121__murmur2_or_cityhashImLm64EE19__hash_len_33_to_64B8ue170006EPKcm, symObjAddr: 0x7900, symBinAddr: 0x100008850, symSize: 0x260 }
  - { offsetInCU: 0x1A892, offset: 0x22D6C, size: 0x8, addend: 0x0, symName: __ZNSt3__121__murmur2_or_cityhashImLm64EE13__hash_len_16B8ue170006Emm, symObjAddr: 0x7B80, symBinAddr: 0x100008AD0, symSize: 0x90 }
  - { offsetInCU: 0x1A8EC, offset: 0x22DC6, size: 0x8, addend: 0x0, symName: __ZNSt3__121__murmur2_or_cityhashImLm64EE29__weak_hash_len_32_with_seedsB8ue170006EPKcmm, symObjAddr: 0x7C10, symBinAddr: 0x100008B60, symSize: 0x90 }
  - { offsetInCU: 0x1A92A, offset: 0x22E04, size: 0x8, addend: 0x0, symName: __ZNSt3__121__murmur2_or_cityhashImLm64EE8__rotateB8ue170006Emi, symObjAddr: 0x7CA0, symBinAddr: 0x100008BF0, symSize: 0x50 }
  - { offsetInCU: 0x1A95A, offset: 0x22E34, size: 0x8, addend: 0x0, symName: __ZNSt3__14pairImmEaSB8ue170006EOS1_, symObjAddr: 0x7CF0, symBinAddr: 0x100008C40, symSize: 0x30 }
  - { offsetInCU: 0x1A98D, offset: 0x22E67, size: 0x8, addend: 0x0, symName: __ZNSt3__121__murmur2_or_cityhashImLm64EE11__shift_mixB8ue170006Em, symObjAddr: 0x7D60, symBinAddr: 0x100008CB0, symSize: 0x20 }
  - { offsetInCU: 0x1A9AF, offset: 0x22E89, size: 0x8, addend: 0x0, symName: __ZNSt3__121__murmur2_or_cityhashImLm64EE22__rotate_by_at_least_1B8ue170006Emi, symObjAddr: 0x7D80, symBinAddr: 0x100008CD0, symSize: 0x30 }
  - { offsetInCU: 0x1A9DF, offset: 0x22EB9, size: 0x8, addend: 0x0, symName: __ZNSt3__121__murmur2_or_cityhashImLm64EE29__weak_hash_len_32_with_seedsB8ue170006Emmmmmm, symObjAddr: 0x7DD0, symBinAddr: 0x100008D20, symSize: 0xD0 }
  - { offsetInCU: 0x1AA5B, offset: 0x22F35, size: 0x8, addend: 0x0, symName: __ZNSt3__14pairImmEC1B8ue170006ImmLPv0EEEOT_OT0_, symObjAddr: 0x7EA0, symBinAddr: 0x100008DF0, symSize: 0x30 }
  - { offsetInCU: 0x1AAB8, offset: 0x22F92, size: 0x8, addend: 0x0, symName: __ZNSt3__14pairImmEC2B8ue170006ImmLPv0EEEOT_OT0_, symObjAddr: 0x7ED0, symBinAddr: 0x100008E20, symSize: 0x30 }
  - { offsetInCU: 0x1AB15, offset: 0x22FEF, size: 0x8, addend: 0x0, symName: __ZNKSt3__110unique_ptrIA_PNS_16__hash_node_baseIPNS_11__hash_nodeINS_17__hash_value_typeINS_12basic_stringIcNS_11char_traitsIcEENS_9allocatorIcEEEE9RateCurveEEPvEEEENS_25__bucket_list_deallocatorINS7_ISG_EEEEE11get_deleterB8ue170006Ev, symObjAddr: 0x7F00, symBinAddr: 0x100008E50, symSize: 0x20 }
  - { offsetInCU: 0x1AB39, offset: 0x23013, size: 0x8, addend: 0x0, symName: __ZNKSt3__125__bucket_list_deallocatorINS_9allocatorIPNS_16__hash_node_baseIPNS_11__hash_nodeINS_17__hash_value_typeINS_12basic_stringIcNS_11char_traitsIcEENS1_IcEEEE9RateCurveEEPvEEEEEEE4sizeB8ue170006Ev, symObjAddr: 0x7F20, symBinAddr: 0x100008E70, symSize: 0x20 }
  - { offsetInCU: 0x1AB5D, offset: 0x23037, size: 0x8, addend: 0x0, symName: __ZNKSt3__117__compressed_pairIPPNS_16__hash_node_baseIPNS_11__hash_nodeINS_17__hash_value_typeINS_12basic_stringIcNS_11char_traitsIcEENS_9allocatorIcEEEE9RateCurveEEPvEEEENS_25__bucket_list_deallocatorINS7_ISG_EEEEE6secondB8ue170006Ev, symObjAddr: 0x7F40, symBinAddr: 0x100008E90, symSize: 0x20 }
  - { offsetInCU: 0x1AB81, offset: 0x2305B, size: 0x8, addend: 0x0, symName: __ZNKSt3__122__compressed_pair_elemINS_25__bucket_list_deallocatorINS_9allocatorIPNS_16__hash_node_baseIPNS_11__hash_nodeINS_17__hash_value_typeINS_12basic_stringIcNS_11char_traitsIcEENS2_IcEEEE9RateCurveEEPvEEEEEEEELi1ELb0EE5__getB8ue170006Ev, symObjAddr: 0x7F60, symBinAddr: 0x100008EB0, symSize: 0x10 }
  - { offsetInCU: 0x1ABA5, offset: 0x2307F, size: 0x8, addend: 0x0, symName: __ZNKSt3__117__compressed_pairImNS_9allocatorIPNS_16__hash_node_baseIPNS_11__hash_nodeINS_17__hash_value_typeINS_12basic_stringIcNS_11char_traitsIcEENS1_IcEEEE9RateCurveEEPvEEEEEEE5firstB8ue170006Ev, symObjAddr: 0x7F70, symBinAddr: 0x100008EC0, symSize: 0x20 }
  - { offsetInCU: 0x1ABC9, offset: 0x230A3, size: 0x8, addend: 0x0, symName: __ZNKSt3__122__compressed_pair_elemImLi0ELb0EE5__getB8ue170006Ev, symObjAddr: 0x7F90, symBinAddr: 0x100008EE0, symSize: 0x10 }
  - { offsetInCU: 0x1ABED, offset: 0x230C7, size: 0x8, addend: 0x0, symName: __ZNKSt3__117__compressed_pairIPPNS_16__hash_node_baseIPNS_11__hash_nodeINS_17__hash_value_typeINS_12basic_stringIcNS_11char_traitsIcEENS_9allocatorIcEEEE9RateCurveEEPvEEEENS_25__bucket_list_deallocatorINS7_ISG_EEEEE5firstB8ue170006Ev, symObjAddr: 0x7FA0, symBinAddr: 0x100008EF0, symSize: 0x20 }
  - { offsetInCU: 0x1AC11, offset: 0x230EB, size: 0x8, addend: 0x0, symName: __ZNKSt3__122__compressed_pair_elemIPPNS_16__hash_node_baseIPNS_11__hash_nodeINS_17__hash_value_typeINS_12basic_stringIcNS_11char_traitsIcEENS_9allocatorIcEEEE9RateCurveEEPvEEEELi0ELb0EE5__getB8ue170006Ev, symObjAddr: 0x7FC0, symBinAddr: 0x100008F10, symSize: 0x10 }
  - { offsetInCU: 0x1AC35, offset: 0x2310F, size: 0x8, addend: 0x0, symName: __ZNSt3__117__compressed_pairIfNS_21__unordered_map_equalINS_12basic_stringIcNS_11char_traitsIcEENS_9allocatorIcEEEENS_17__hash_value_typeIS7_9RateCurveEENS_8equal_toIS7_EENS_4hashIS7_EELb1EEEE6secondB8ue170006Ev, symObjAddr: 0x7FD0, symBinAddr: 0x100008F20, symSize: 0x20 }
  - { offsetInCU: 0x1AC59, offset: 0x23133, size: 0x8, addend: 0x0, symName: __ZNSt3__122__compressed_pair_elemINS_21__unordered_map_equalINS_12basic_stringIcNS_11char_traitsIcEENS_9allocatorIcEEEENS_17__hash_value_typeIS7_9RateCurveEENS_8equal_toIS7_EENS_4hashIS7_EELb1EEELi1ELb1EE5__getB8ue170006Ev, symObjAddr: 0x7FF0, symBinAddr: 0x100008F40, symSize: 0x10 }
  - { offsetInCU: 0x1AC7D, offset: 0x23157, size: 0x8, addend: 0x0, symName: __ZNKSt3__18equal_toINS_12basic_stringIcNS_11char_traitsIcEENS_9allocatorIcEEEEEclB8ue170006ERKS6_S9_, symObjAddr: 0x8000, symBinAddr: 0x100008F50, symSize: 0x30 }
  - { offsetInCU: 0x1ACBF, offset: 0x23199, size: 0x8, addend: 0x0, symName: __ZNSt3__111char_traitsIcE7compareB8ue170006EPKcS3_m, symObjAddr: 0x8140, symBinAddr: 0x100009090, symSize: 0x30 }
  - { offsetInCU: 0x1ACFD, offset: 0x231D7, size: 0x8, addend: 0x0, symName: __ZNSt3__112__hash_tableINS_17__hash_value_typeINS_12basic_stringIcNS_11char_traitsIcEENS_9allocatorIcEEEE9RateCurveEENS_22__unordered_map_hasherIS7_S9_NS_4hashIS7_EENS_8equal_toIS7_EELb1EEENS_21__unordered_map_equalIS7_S9_SE_SC_Lb1EEENS5_IS9_EEE12__node_allocB8ue170006Ev, symObjAddr: 0x8170, symBinAddr: 0x1000090C0, symSize: 0x20 }
  - { offsetInCU: 0x1AD21, offset: 0x231FB, size: 0x8, addend: 0x0, symName: __ZNSt3__116allocator_traitsINS_9allocatorINS_11__hash_nodeINS_17__hash_value_typeINS_12basic_stringIcNS_11char_traitsIcEENS1_IcEEEE9RateCurveEEPvEEEEE8allocateB8ue170006ERSD_m, symObjAddr: 0x8190, symBinAddr: 0x1000090E0, symSize: 0x30 }
  - { offsetInCU: 0x1AD53, offset: 0x2322D, size: 0x8, addend: 0x0, symName: __ZNSt3__122__hash_node_destructorINS_9allocatorINS_11__hash_nodeINS_17__hash_value_typeINS_12basic_stringIcNS_11char_traitsIcEENS1_IcEEEE9RateCurveEEPvEEEEEC1B8ue170006ERSD_b, symObjAddr: 0x81C0, symBinAddr: 0x100009110, symSize: 0x40 }
  - { offsetInCU: 0x1AD9E, offset: 0x23278, size: 0x8, addend: 0x0, symName: __ZNSt3__110unique_ptrINS_11__hash_nodeINS_17__hash_value_typeINS_12basic_stringIcNS_11char_traitsIcEENS_9allocatorIcEEEE9RateCurveEEPvEENS_22__hash_node_destructorINS6_ISC_EEEEEC1B8ue170006ILb1EvEEPSC_NS_16__dependent_typeINS_27__unique_ptr_deleter_sfinaeISF_EEXT_EE20__good_rval_ref_typeE, symObjAddr: 0x8200, symBinAddr: 0x100009150, symSize: 0x30 }
  - { offsetInCU: 0x1ADED, offset: 0x232C7, size: 0x8, addend: 0x0, symName: __ZNSt3__116allocator_traitsINS_9allocatorINS_11__hash_nodeINS_17__hash_value_typeINS_12basic_stringIcNS_11char_traitsIcEENS1_IcEEEE9RateCurveEEPvEEEEE9constructB8ue170006INS_4pairIKS8_S9_EEJRSH_RKS9_EvEEvRSD_PT_DpOT0_, symObjAddr: 0x8230, symBinAddr: 0x100009180, symSize: 0x40 }
  - { offsetInCU: 0x1AE57, offset: 0x23331, size: 0x8, addend: 0x0, symName: __ZNSt3__122__hash_key_value_typesINS_17__hash_value_typeINS_12basic_stringIcNS_11char_traitsIcEENS_9allocatorIcEEEE9RateCurveEEE9__get_ptrB8ue170006ERS9_, symObjAddr: 0x8270, symBinAddr: 0x1000091C0, symSize: 0x20 }
  - { offsetInCU: 0x1AE79, offset: 0x23353, size: 0x8, addend: 0x0, symName: __ZNSt3__110unique_ptrINS_11__hash_nodeINS_17__hash_value_typeINS_12basic_stringIcNS_11char_traitsIcEENS_9allocatorIcEEEE9RateCurveEEPvEENS_22__hash_node_destructorINS6_ISC_EEEEE11get_deleterB8ue170006Ev, symObjAddr: 0x8290, symBinAddr: 0x1000091E0, symSize: 0x20 }
  - { offsetInCU: 0x1AE9D, offset: 0x23377, size: 0x8, addend: 0x0, symName: __ZNSt3__117__compressed_pairINS_16__hash_node_baseIPNS_11__hash_nodeINS_17__hash_value_typeINS_12basic_stringIcNS_11char_traitsIcEENS_9allocatorIcEEEE9RateCurveEEPvEEEENS7_ISD_EEE6secondB8ue170006Ev, symObjAddr: 0x82B0, symBinAddr: 0x100009200, symSize: 0x20 }
  - { offsetInCU: 0x1AEC1, offset: 0x2339B, size: 0x8, addend: 0x0, symName: __ZNSt3__122__compressed_pair_elemINS_9allocatorINS_11__hash_nodeINS_17__hash_value_typeINS_12basic_stringIcNS_11char_traitsIcEENS1_IcEEEE9RateCurveEEPvEEEELi1ELb1EE5__getB8ue170006Ev, symObjAddr: 0x82D0, symBinAddr: 0x100009220, symSize: 0x10 }
  - { offsetInCU: 0x1AEE5, offset: 0x233BF, size: 0x8, addend: 0x0, symName: __ZNSt3__19allocatorINS_11__hash_nodeINS_17__hash_value_typeINS_12basic_stringIcNS_11char_traitsIcEENS0_IcEEEE9RateCurveEEPvEEE8allocateB8ue170006Em, symObjAddr: 0x82E0, symBinAddr: 0x100009230, symSize: 0x50 }
  - { offsetInCU: 0x1AF21, offset: 0x233FB, size: 0x8, addend: 0x0, symName: __ZNSt3__116allocator_traitsINS_9allocatorINS_11__hash_nodeINS_17__hash_value_typeINS_12basic_stringIcNS_11char_traitsIcEENS1_IcEEEE9RateCurveEEPvEEEEE8max_sizeB8ue170006ISD_vEEmRKSD_, symObjAddr: 0x8330, symBinAddr: 0x100009280, symSize: 0x20 }
  - { offsetInCU: 0x1AF4E, offset: 0x23428, size: 0x8, addend: 0x0, symName: __ZNKSt3__19allocatorINS_11__hash_nodeINS_17__hash_value_typeINS_12basic_stringIcNS_11char_traitsIcEENS0_IcEEEE9RateCurveEEPvEEE8max_sizeB8ue170006Ev, symObjAddr: 0x8350, symBinAddr: 0x1000092A0, symSize: 0x20 }
  - { offsetInCU: 0x1AF72, offset: 0x2344C, size: 0x8, addend: 0x0, symName: __ZNSt3__122__hash_node_destructorINS_9allocatorINS_11__hash_nodeINS_17__hash_value_typeINS_12basic_stringIcNS_11char_traitsIcEENS1_IcEEEE9RateCurveEEPvEEEEEC2B8ue170006ERSD_b, symObjAddr: 0x8370, symBinAddr: 0x1000092C0, symSize: 0x30 }
  - { offsetInCU: 0x1AFB8, offset: 0x23492, size: 0x8, addend: 0x0, symName: __ZNSt3__110unique_ptrINS_11__hash_nodeINS_17__hash_value_typeINS_12basic_stringIcNS_11char_traitsIcEENS_9allocatorIcEEEE9RateCurveEEPvEENS_22__hash_node_destructorINS6_ISC_EEEEEC2B8ue170006ILb1EvEEPSC_NS_16__dependent_typeINS_27__unique_ptr_deleter_sfinaeISF_EEXT_EE20__good_rval_ref_typeE, symObjAddr: 0x83A0, symBinAddr: 0x1000092F0, symSize: 0x40 }
  - { offsetInCU: 0x1B007, offset: 0x234E1, size: 0x8, addend: 0x0, symName: __ZNSt3__117__compressed_pairIPNS_11__hash_nodeINS_17__hash_value_typeINS_12basic_stringIcNS_11char_traitsIcEENS_9allocatorIcEEEE9RateCurveEEPvEENS_22__hash_node_destructorINS6_ISC_EEEEEC1B8ue170006IRSD_SG_EEOT_OT0_, symObjAddr: 0x83E0, symBinAddr: 0x100009330, symSize: 0x30 }
  - { offsetInCU: 0x1B05D, offset: 0x23537, size: 0x8, addend: 0x0, symName: __ZNSt3__117__compressed_pairIPNS_11__hash_nodeINS_17__hash_value_typeINS_12basic_stringIcNS_11char_traitsIcEENS_9allocatorIcEEEE9RateCurveEEPvEENS_22__hash_node_destructorINS6_ISC_EEEEEC2B8ue170006IRSD_SG_EEOT_OT0_, symObjAddr: 0x8410, symBinAddr: 0x100009360, symSize: 0x40 }
  - { offsetInCU: 0x1B0B3, offset: 0x2358D, size: 0x8, addend: 0x0, symName: __ZNSt3__122__compressed_pair_elemIPNS_11__hash_nodeINS_17__hash_value_typeINS_12basic_stringIcNS_11char_traitsIcEENS_9allocatorIcEEEE9RateCurveEEPvEELi0ELb0EEC2B8ue170006IRSD_vEEOT_, symObjAddr: 0x8450, symBinAddr: 0x1000093A0, symSize: 0x20 }
  - { offsetInCU: 0x1B0F3, offset: 0x235CD, size: 0x8, addend: 0x0, symName: __ZNSt3__122__compressed_pair_elemINS_22__hash_node_destructorINS_9allocatorINS_11__hash_nodeINS_17__hash_value_typeINS_12basic_stringIcNS_11char_traitsIcEENS2_IcEEEE9RateCurveEEPvEEEEEELi1ELb0EEC2B8ue170006ISF_vEEOT_, symObjAddr: 0x8470, symBinAddr: 0x1000093C0, symSize: 0x30 }
  - { offsetInCU: 0x1B133, offset: 0x2360D, size: 0x8, addend: 0x0, symName: __ZNSt3__19allocatorINS_11__hash_nodeINS_17__hash_value_typeINS_12basic_stringIcNS_11char_traitsIcEENS0_IcEEEE9RateCurveEEPvEEE9constructB8ue170006INS_4pairIKS7_S8_EEJRSF_RKS8_EEEvPT_DpOT0_, symObjAddr: 0x84A0, symBinAddr: 0x1000093F0, symSize: 0x30 }
  - { offsetInCU: 0x1B19A, offset: 0x23674, size: 0x8, addend: 0x0, symName: __ZNSt3__14pairIKNS_12basic_stringIcNS_11char_traitsIcEENS_9allocatorIcEEEE9RateCurveEC1B8ue170006ILb1ELPv0EEERS7_RKS8_, symObjAddr: 0x84D0, symBinAddr: 0x100009420, symSize: 0x30 }
  - { offsetInCU: 0x1B1EF, offset: 0x236C9, size: 0x8, addend: 0x0, symName: __ZNSt3__14pairIKNS_12basic_stringIcNS_11char_traitsIcEENS_9allocatorIcEEEE9RateCurveEC2B8ue170006ILb1ELPv0EEERS7_RKS8_, symObjAddr: 0x8500, symBinAddr: 0x100009450, symSize: 0x60 }
  - { offsetInCU: 0x1B244, offset: 0x2371E, size: 0x8, addend: 0x0, symName: __ZNSt3__117__hash_value_typeINS_12basic_stringIcNS_11char_traitsIcEENS_9allocatorIcEEEE9RateCurveE11__get_valueB8ue170006Ev, symObjAddr: 0x8560, symBinAddr: 0x1000094B0, symSize: 0x20 }
  - { offsetInCU: 0x1B268, offset: 0x23742, size: 0x8, addend: 0x0, symName: __ZNSt3__117__compressed_pairIPNS_11__hash_nodeINS_17__hash_value_typeINS_12basic_stringIcNS_11char_traitsIcEENS_9allocatorIcEEEE9RateCurveEEPvEENS_22__hash_node_destructorINS6_ISC_EEEEE6secondB8ue170006Ev, symObjAddr: 0x85B0, symBinAddr: 0x100009500, symSize: 0x20 }
  - { offsetInCU: 0x1B28C, offset: 0x23766, size: 0x8, addend: 0x0, symName: __ZNSt3__122__compressed_pair_elemINS_22__hash_node_destructorINS_9allocatorINS_11__hash_nodeINS_17__hash_value_typeINS_12basic_stringIcNS_11char_traitsIcEENS2_IcEEEE9RateCurveEEPvEEEEEELi1ELb0EE5__getB8ue170006Ev, symObjAddr: 0x85D0, symBinAddr: 0x100009520, symSize: 0x10 }
  - { offsetInCU: 0x1B2B0, offset: 0x2378A, size: 0x8, addend: 0x0, symName: __ZNSt3__117__compressed_pairImNS_22__unordered_map_hasherINS_12basic_stringIcNS_11char_traitsIcEENS_9allocatorIcEEEENS_17__hash_value_typeIS7_9RateCurveEENS_4hashIS7_EENS_8equal_toIS7_EELb1EEEE5firstB8ue170006Ev, symObjAddr: 0x85E0, symBinAddr: 0x100009530, symSize: 0x20 }
  - { offsetInCU: 0x1B2D4, offset: 0x237AE, size: 0x8, addend: 0x0, symName: __ZNSt3__122__compressed_pair_elemImLi0ELb0EE5__getB8ue170006Ev, symObjAddr: 0x8600, symBinAddr: 0x100009550, symSize: 0x10 }
  - { offsetInCU: 0x1B2F8, offset: 0x237D2, size: 0x8, addend: 0x0, symName: __ZNSt3__117__compressed_pairIfNS_21__unordered_map_equalINS_12basic_stringIcNS_11char_traitsIcEENS_9allocatorIcEEEENS_17__hash_value_typeIS7_9RateCurveEENS_8equal_toIS7_EENS_4hashIS7_EELb1EEEE5firstB8ue170006Ev, symObjAddr: 0x8610, symBinAddr: 0x100009560, symSize: 0x20 }
  - { offsetInCU: 0x1B31C, offset: 0x237F6, size: 0x8, addend: 0x0, symName: __ZNSt3__122__compressed_pair_elemIfLi0ELb0EE5__getB8ue170006Ev, symObjAddr: 0x8630, symBinAddr: 0x100009580, symSize: 0x10 }
  - { offsetInCU: 0x1B33F, offset: 0x23819, size: 0x8, addend: 0x0, symName: __ZNSt3__112__hash_tableINS_17__hash_value_typeINS_12basic_stringIcNS_11char_traitsIcEENS_9allocatorIcEEEE9RateCurveEENS_22__unordered_map_hasherIS7_S9_NS_4hashIS7_EENS_8equal_toIS7_EELb1EEENS_21__unordered_map_equalIS7_S9_SE_SC_Lb1EEENS5_IS9_EEE8__rehashILb1EEEvm, symObjAddr: 0x8640, symBinAddr: 0x100009590, symSize: 0x230 }
  - { offsetInCU: 0x1B38D, offset: 0x23867, size: 0x8, addend: 0x0, symName: __ZNSt3__112__hash_tableINS_17__hash_value_typeINS_12basic_stringIcNS_11char_traitsIcEENS_9allocatorIcEEEE9RateCurveEENS_22__unordered_map_hasherIS7_S9_NS_4hashIS7_EENS_8equal_toIS7_EELb1EEENS_21__unordered_map_equalIS7_S9_SE_SC_Lb1EEENS5_IS9_EEE11__do_rehashILb1EEEvm, symObjAddr: 0x8870, symBinAddr: 0x1000097C0, symSize: 0x250 }
  - { offsetInCU: 0x1B473, offset: 0x2394D, size: 0x8, addend: 0x0, symName: __ZNSt3__110unique_ptrIA_PNS_16__hash_node_baseIPNS_11__hash_nodeINS_17__hash_value_typeINS_12basic_stringIcNS_11char_traitsIcEENS_9allocatorIcEEEE9RateCurveEEPvEEEENS_25__bucket_list_deallocatorINS7_ISG_EEEEE11get_deleterB8ue170006Ev, symObjAddr: 0x8B20, symBinAddr: 0x100009A70, symSize: 0x20 }
  - { offsetInCU: 0x1B497, offset: 0x23971, size: 0x8, addend: 0x0, symName: __ZNSt3__125__bucket_list_deallocatorINS_9allocatorIPNS_16__hash_node_baseIPNS_11__hash_nodeINS_17__hash_value_typeINS_12basic_stringIcNS_11char_traitsIcEENS1_IcEEEE9RateCurveEEPvEEEEEEE7__allocB8ue170006Ev, symObjAddr: 0x8B40, symBinAddr: 0x100009A90, symSize: 0x20 }
  - { offsetInCU: 0x1B4BB, offset: 0x23995, size: 0x8, addend: 0x0, symName: __ZNSt3__110unique_ptrIA_PNS_16__hash_node_baseIPNS_11__hash_nodeINS_17__hash_value_typeINS_12basic_stringIcNS_11char_traitsIcEENS_9allocatorIcEEEE9RateCurveEEPvEEEENS_25__bucket_list_deallocatorINS7_ISG_EEEEE5resetB8ue170006IPSG_EENS_9enable_ifIXsr28_CheckArrayPointerConversionIT_EE5valueEvE4typeESP_, symObjAddr: 0x8B60, symBinAddr: 0x100009AB0, symSize: 0x70 }
  - { offsetInCU: 0x1B506, offset: 0x239E0, size: 0x8, addend: 0x0, symName: __ZNSt3__116allocator_traitsINS_9allocatorIPNS_16__hash_node_baseIPNS_11__hash_nodeINS_17__hash_value_typeINS_12basic_stringIcNS_11char_traitsIcEENS1_IcEEEE9RateCurveEEPvEEEEEEE8allocateB8ue170006ERSH_m, symObjAddr: 0x8BD0, symBinAddr: 0x100009B20, symSize: 0x30 }
  - { offsetInCU: 0x1B538, offset: 0x23A12, size: 0x8, addend: 0x0, symName: __ZNSt3__125__bucket_list_deallocatorINS_9allocatorIPNS_16__hash_node_baseIPNS_11__hash_nodeINS_17__hash_value_typeINS_12basic_stringIcNS_11char_traitsIcEENS1_IcEEEE9RateCurveEEPvEEEEEEE4sizeB8ue170006Ev, symObjAddr: 0x8C00, symBinAddr: 0x100009B50, symSize: 0x20 }
  - { offsetInCU: 0x1B55C, offset: 0x23A36, size: 0x8, addend: 0x0, symName: __ZNSt3__117__compressed_pairIPPNS_16__hash_node_baseIPNS_11__hash_nodeINS_17__hash_value_typeINS_12basic_stringIcNS_11char_traitsIcEENS_9allocatorIcEEEE9RateCurveEEPvEEEENS_25__bucket_list_deallocatorINS7_ISG_EEEEE6secondB8ue170006Ev, symObjAddr: 0x8C20, symBinAddr: 0x100009B70, symSize: 0x20 }
  - { offsetInCU: 0x1B580, offset: 0x23A5A, size: 0x8, addend: 0x0, symName: __ZNSt3__122__compressed_pair_elemINS_25__bucket_list_deallocatorINS_9allocatorIPNS_16__hash_node_baseIPNS_11__hash_nodeINS_17__hash_value_typeINS_12basic_stringIcNS_11char_traitsIcEENS2_IcEEEE9RateCurveEEPvEEEEEEEELi1ELb0EE5__getB8ue170006Ev, symObjAddr: 0x8C40, symBinAddr: 0x100009B90, symSize: 0x10 }
  - { offsetInCU: 0x1B5A4, offset: 0x23A7E, size: 0x8, addend: 0x0, symName: __ZNSt3__117__compressed_pairImNS_9allocatorIPNS_16__hash_node_baseIPNS_11__hash_nodeINS_17__hash_value_typeINS_12basic_stringIcNS_11char_traitsIcEENS1_IcEEEE9RateCurveEEPvEEEEEEE6secondB8ue170006Ev, symObjAddr: 0x8C50, symBinAddr: 0x100009BA0, symSize: 0x20 }
  - { offsetInCU: 0x1B5C8, offset: 0x23AA2, size: 0x8, addend: 0x0, symName: __ZNSt3__122__compressed_pair_elemINS_9allocatorIPNS_16__hash_node_baseIPNS_11__hash_nodeINS_17__hash_value_typeINS_12basic_stringIcNS_11char_traitsIcEENS1_IcEEEE9RateCurveEEPvEEEEEELi1ELb1EE5__getB8ue170006Ev, symObjAddr: 0x8C70, symBinAddr: 0x100009BC0, symSize: 0x10 }
  - { offsetInCU: 0x1B5EC, offset: 0x23AC6, size: 0x8, addend: 0x0, symName: __ZNSt3__117__compressed_pairIPPNS_16__hash_node_baseIPNS_11__hash_nodeINS_17__hash_value_typeINS_12basic_stringIcNS_11char_traitsIcEENS_9allocatorIcEEEE9RateCurveEEPvEEEENS_25__bucket_list_deallocatorINS7_ISG_EEEEE5firstB8ue170006Ev, symObjAddr: 0x8C80, symBinAddr: 0x100009BD0, symSize: 0x20 }
  - { offsetInCU: 0x1B610, offset: 0x23AEA, size: 0x8, addend: 0x0, symName: __ZNSt3__125__bucket_list_deallocatorINS_9allocatorIPNS_16__hash_node_baseIPNS_11__hash_nodeINS_17__hash_value_typeINS_12basic_stringIcNS_11char_traitsIcEENS1_IcEEEE9RateCurveEEPvEEEEEEEclB8ue170006EPSG_, symObjAddr: 0x8CA0, symBinAddr: 0x100009BF0, symSize: 0x50 }
  - { offsetInCU: 0x1B643, offset: 0x23B1D, size: 0x8, addend: 0x0, symName: __ZNSt3__122__compressed_pair_elemIPPNS_16__hash_node_baseIPNS_11__hash_nodeINS_17__hash_value_typeINS_12basic_stringIcNS_11char_traitsIcEENS_9allocatorIcEEEE9RateCurveEEPvEEEELi0ELb0EE5__getB8ue170006Ev, symObjAddr: 0x8CF0, symBinAddr: 0x100009C40, symSize: 0x10 }
  - { offsetInCU: 0x1B667, offset: 0x23B41, size: 0x8, addend: 0x0, symName: __ZNSt3__116allocator_traitsINS_9allocatorIPNS_16__hash_node_baseIPNS_11__hash_nodeINS_17__hash_value_typeINS_12basic_stringIcNS_11char_traitsIcEENS1_IcEEEE9RateCurveEEPvEEEEEEE10deallocateB8ue170006ERSH_PSG_m, symObjAddr: 0x8D00, symBinAddr: 0x100009C50, symSize: 0x30 }
  - { offsetInCU: 0x1B6A8, offset: 0x23B82, size: 0x8, addend: 0x0, symName: __ZNSt3__19allocatorIPNS_16__hash_node_baseIPNS_11__hash_nodeINS_17__hash_value_typeINS_12basic_stringIcNS_11char_traitsIcEENS0_IcEEEE9RateCurveEEPvEEEEE10deallocateB8ue170006EPSF_m, symObjAddr: 0x8D30, symBinAddr: 0x100009C80, symSize: 0x40 }
  - { offsetInCU: 0x1B6E8, offset: 0x23BC2, size: 0x8, addend: 0x0, symName: __ZNSt3__19allocatorIPNS_16__hash_node_baseIPNS_11__hash_nodeINS_17__hash_value_typeINS_12basic_stringIcNS_11char_traitsIcEENS0_IcEEEE9RateCurveEEPvEEEEE8allocateB8ue170006Em, symObjAddr: 0x8D70, symBinAddr: 0x100009CC0, symSize: 0x50 }
  - { offsetInCU: 0x1B724, offset: 0x23BFE, size: 0x8, addend: 0x0, symName: __ZNSt3__116allocator_traitsINS_9allocatorIPNS_16__hash_node_baseIPNS_11__hash_nodeINS_17__hash_value_typeINS_12basic_stringIcNS_11char_traitsIcEENS1_IcEEEE9RateCurveEEPvEEEEEEE8max_sizeB8ue170006ISH_vEEmRKSH_, symObjAddr: 0x8DC0, symBinAddr: 0x100009D10, symSize: 0x20 }
  - { offsetInCU: 0x1B751, offset: 0x23C2B, size: 0x8, addend: 0x0, symName: __ZNKSt3__19allocatorIPNS_16__hash_node_baseIPNS_11__hash_nodeINS_17__hash_value_typeINS_12basic_stringIcNS_11char_traitsIcEENS0_IcEEEE9RateCurveEEPvEEEEE8max_sizeB8ue170006Ev, symObjAddr: 0x8DE0, symBinAddr: 0x100009D30, symSize: 0x20 }
  - { offsetInCU: 0x1B775, offset: 0x23C4F, size: 0x8, addend: 0x0, symName: __ZNSt3__117__compressed_pairImNS_9allocatorIPNS_16__hash_node_baseIPNS_11__hash_nodeINS_17__hash_value_typeINS_12basic_stringIcNS_11char_traitsIcEENS1_IcEEEE9RateCurveEEPvEEEEEEE5firstB8ue170006Ev, symObjAddr: 0x8E00, symBinAddr: 0x100009D50, symSize: 0x20 }
  - { offsetInCU: 0x1B799, offset: 0x23C73, size: 0x8, addend: 0x0, symName: __ZNSt3__122__compressed_pair_elemINS_16__hash_node_baseIPNS_11__hash_nodeINS_17__hash_value_typeINS_12basic_stringIcNS_11char_traitsIcEENS_9allocatorIcEEEE9RateCurveEEPvEEEELi0ELb0EE5__getB8ue170006Ev, symObjAddr: 0x8E40, symBinAddr: 0x100009D90, symSize: 0x10 }
  - { offsetInCU: 0x1B7BD, offset: 0x23C97, size: 0x8, addend: 0x0, symName: __ZNKSt3__117__compressed_pairIPNS_11__hash_nodeINS_17__hash_value_typeINS_12basic_stringIcNS_11char_traitsIcEENS_9allocatorIcEEEE9RateCurveEEPvEENS_22__hash_node_destructorINS6_ISC_EEEEE5firstB8ue170006Ev, symObjAddr: 0x8E50, symBinAddr: 0x100009DA0, symSize: 0x20 }
  - { offsetInCU: 0x1B7E1, offset: 0x23CBB, size: 0x8, addend: 0x0, symName: __ZNKSt3__122__compressed_pair_elemIPNS_11__hash_nodeINS_17__hash_value_typeINS_12basic_stringIcNS_11char_traitsIcEENS_9allocatorIcEEEE9RateCurveEEPvEELi0ELb0EE5__getB8ue170006Ev, symObjAddr: 0x8E70, symBinAddr: 0x100009DC0, symSize: 0x10 }
  - { offsetInCU: 0x1B805, offset: 0x23CDF, size: 0x8, addend: 0x0, symName: __ZNSt3__117__compressed_pairIPNS_11__hash_nodeINS_17__hash_value_typeINS_12basic_stringIcNS_11char_traitsIcEENS_9allocatorIcEEEE9RateCurveEEPvEENS_22__hash_node_destructorINS6_ISC_EEEEE5firstB8ue170006Ev, symObjAddr: 0x8E80, symBinAddr: 0x100009DD0, symSize: 0x20 }
  - { offsetInCU: 0x1B829, offset: 0x23D03, size: 0x8, addend: 0x0, symName: __ZNSt3__122__compressed_pair_elemIPNS_11__hash_nodeINS_17__hash_value_typeINS_12basic_stringIcNS_11char_traitsIcEENS_9allocatorIcEEEE9RateCurveEEPvEELi0ELb0EE5__getB8ue170006Ev, symObjAddr: 0x8EA0, symBinAddr: 0x100009DF0, symSize: 0x10 }
  - { offsetInCU: 0x1B84D, offset: 0x23D27, size: 0x8, addend: 0x0, symName: __ZNSt3__110unique_ptrINS_11__hash_nodeINS_17__hash_value_typeINS_12basic_stringIcNS_11char_traitsIcEENS_9allocatorIcEEEE9RateCurveEEPvEENS_22__hash_node_destructorINS6_ISC_EEEEED2B8ue170006Ev, symObjAddr: 0x8EB0, symBinAddr: 0x100009E00, symSize: 0x20 }
  - { offsetInCU: 0x1B875, offset: 0x23D4F, size: 0x8, addend: 0x0, symName: __ZNSt3__110unique_ptrINS_11__hash_nodeINS_17__hash_value_typeINS_12basic_stringIcNS_11char_traitsIcEENS_9allocatorIcEEEE9RateCurveEEPvEENS_22__hash_node_destructorINS6_ISC_EEEEE5resetB8ue170006EPSC_, symObjAddr: 0x8ED0, symBinAddr: 0x100009E20, symSize: 0x70 }
  - { offsetInCU: 0x1B8B7, offset: 0x23D91, size: 0x8, addend: 0x0, symName: __ZNSt3__122__hash_node_destructorINS_9allocatorINS_11__hash_nodeINS_17__hash_value_typeINS_12basic_stringIcNS_11char_traitsIcEENS1_IcEEEE9RateCurveEEPvEEEEEclB8ue170006EPSC_, symObjAddr: 0x8F40, symBinAddr: 0x100009E90, symSize: 0x90 }
  - { offsetInCU: 0x1B8EA, offset: 0x23DC4, size: 0x8, addend: 0x0, symName: __ZNSt3__116allocator_traitsINS_9allocatorINS_11__hash_nodeINS_17__hash_value_typeINS_12basic_stringIcNS_11char_traitsIcEENS1_IcEEEE9RateCurveEEPvEEEEE7destroyB8ue170006INS_4pairIKS8_S9_EEvvEEvRSD_PT_, symObjAddr: 0x8FD0, symBinAddr: 0x100009F20, symSize: 0x20 }
  - { offsetInCU: 0x1B924, offset: 0x23DFE, size: 0x8, addend: 0x0, symName: __ZNSt3__116allocator_traitsINS_9allocatorINS_11__hash_nodeINS_17__hash_value_typeINS_12basic_stringIcNS_11char_traitsIcEENS1_IcEEEE9RateCurveEEPvEEEEE10deallocateB8ue170006ERSD_PSC_m, symObjAddr: 0x8FF0, symBinAddr: 0x100009F40, symSize: 0x30 }
  - { offsetInCU: 0x1B965, offset: 0x23E3F, size: 0x8, addend: 0x0, symName: __ZNSt3__19allocatorINS_11__hash_nodeINS_17__hash_value_typeINS_12basic_stringIcNS_11char_traitsIcEENS0_IcEEEE9RateCurveEEPvEEE10deallocateB8ue170006EPSB_m, symObjAddr: 0x9020, symBinAddr: 0x100009F70, symSize: 0x40 }
  - { offsetInCU: 0x1B9A5, offset: 0x23E7F, size: 0x8, addend: 0x0, symName: __ZNSt3__115__hash_iteratorIPNS_11__hash_nodeINS_17__hash_value_typeINS_12basic_stringIcNS_11char_traitsIcEENS_9allocatorIcEEEE9RateCurveEEPvEEEC2B8ue170006EPNS_16__hash_node_baseISD_EE, symObjAddr: 0x9060, symBinAddr: 0x100009FB0, symSize: 0x20 }
  - { offsetInCU: 0x1B9DC, offset: 0x23EB6, size: 0x8, addend: 0x0, symName: __ZNSt3__14pairINS_15__hash_iteratorIPNS_11__hash_nodeINS_17__hash_value_typeINS_12basic_stringIcNS_11char_traitsIcEENS_9allocatorIcEEEE9RateCurveEEPvEEEEbEC2B8ue170006ISF_RbLSC_0EEEOT_OT0_, symObjAddr: 0x9080, symBinAddr: 0x100009FD0, symSize: 0x30 }
  - { offsetInCU: 0x1BA39, offset: 0x23F13, size: 0x8, addend: 0x0, symName: __ZNSt3__14pairINS_19__hash_map_iteratorINS_15__hash_iteratorIPNS_11__hash_nodeINS_17__hash_value_typeINS_12basic_stringIcNS_11char_traitsIcEENS_9allocatorIcEEEE9RateCurveEEPvEEEEEEbEC2B8ue170006ISG_bLSD_0EEEONS0_IT_T0_EE, symObjAddr: 0x90B0, symBinAddr: 0x10000A000, symSize: 0x50 }
  - { offsetInCU: 0x1BA89, offset: 0x23F63, size: 0x8, addend: 0x0, symName: __ZNSt3__119__hash_map_iteratorINS_15__hash_iteratorIPNS_11__hash_nodeINS_17__hash_value_typeINS_12basic_stringIcNS_11char_traitsIcEENS_9allocatorIcEEEE9RateCurveEEPvEEEEEC1B8ue170006ESF_, symObjAddr: 0x9100, symBinAddr: 0x10000A050, symSize: 0x30 }
  - { offsetInCU: 0x1BAC0, offset: 0x23F9A, size: 0x8, addend: 0x0, symName: __ZNSt3__119__hash_map_iteratorINS_15__hash_iteratorIPNS_11__hash_nodeINS_17__hash_value_typeINS_12basic_stringIcNS_11char_traitsIcEENS_9allocatorIcEEEE9RateCurveEEPvEEEEEC2B8ue170006ESF_, symObjAddr: 0x9130, symBinAddr: 0x10000A080, symSize: 0x19 }
  - { offsetInCU: 0x8986, offset: 0x2CBD2, size: 0x8, addend: 0x0, symName: __ZNSt3__1eqB8ue170006IcNS_11char_traitsIcEENS_9allocatorIcEEEEbRKNS_12basic_stringIT_T0_T1_EEPKS6_, symObjAddr: 0xF0, symBinAddr: 0x10000A190, symSize: 0x90 }
  - { offsetInCU: 0x8B20, offset: 0x2CD6C, size: 0x8, addend: 0x0, symName: __Z3powB8ue170006IdiENSt3__19enable_ifIXaasr3std13is_arithmeticIT_EE5valuesr3std13is_arithmeticIT0_EE5valueENS0_9__promoteIS2_S3_vEEE4type4typeES2_S3_, symObjAddr: 0x810, symBinAddr: 0x10000A8B0, symSize: 0x30 }
  - { offsetInCU: 0xB295, offset: 0x2F4E1, size: 0x8, addend: 0x0, symName: __ZN6Pricer5PriceERK6MarketP5Trade, symObjAddr: 0x0, symBinAddr: 0x10000A0A0, symSize: 0xF0 }
  - { offsetInCU: 0xB321, offset: 0x2F56D, size: 0x8, addend: 0x0, symName: __ZN5Trade7getTypeEv, symObjAddr: 0x180, symBinAddr: 0x10000A220, symSize: 0x30 }
  - { offsetInCU: 0xB453, offset: 0x2F69F, size: 0x8, addend: 0x0, symName: __ZN18BinomialTreePricer9PriceTreeERK6MarketRK11TreeProduct, symObjAddr: 0x1B0, symBinAddr: 0x10000A250, symSize: 0x260 }
  - { offsetInCU: 0xB563, offset: 0x2F7AF, size: 0x8, addend: 0x0, symName: __ZNSt3__16vectorIdNS_9allocatorIdEEEixB8ue170006Em, symObjAddr: 0x410, symBinAddr: 0x10000A4B0, symSize: 0x20 }
  - { offsetInCU: 0xB689, offset: 0x2F8D5, size: 0x8, addend: 0x0, symName: __ZN21CRRBinomialTreePricer10ModelSetupEdddd, symObjAddr: 0x430, symBinAddr: 0x10000A4D0, symSize: 0x160 }
  - { offsetInCU: 0xB7F3, offset: 0x2FA3F, size: 0x8, addend: 0x0, symName: __ZN22JRRNBinomialTreePricer10ModelSetupEdddd, symObjAddr: 0x590, symBinAddr: 0x10000A630, symSize: 0x120 }
  - { offsetInCU: 0xB852, offset: 0x2FA9E, size: 0x8, addend: 0x0, symName: __ZN6Pricer9PriceTreeERK6MarketRK11TreeProduct, symObjAddr: 0x6B0, symBinAddr: 0x10000A750, symSize: 0x20 }
  - { offsetInCU: 0xB892, offset: 0x2FADE, size: 0x8, addend: 0x0, symName: __ZNK21CRRBinomialTreePricer7GetSpotEii, symObjAddr: 0x6D0, symBinAddr: 0x10000A770, symSize: 0x50 }
  - { offsetInCU: 0xB8D2, offset: 0x2FB1E, size: 0x8, addend: 0x0, symName: __ZNK21CRRBinomialTreePricer9GetProbUpEv, symObjAddr: 0x720, symBinAddr: 0x10000A7C0, symSize: 0x20 }
  - { offsetInCU: 0xB8F6, offset: 0x2FB42, size: 0x8, addend: 0x0, symName: __ZNK21CRRBinomialTreePricer11GetProbDownEv, symObjAddr: 0x740, symBinAddr: 0x10000A7E0, symSize: 0x20 }
  - { offsetInCU: 0xB91A, offset: 0x2FB66, size: 0x8, addend: 0x0, symName: __ZNK22JRRNBinomialTreePricer7GetSpotEii, symObjAddr: 0x760, symBinAddr: 0x10000A800, symSize: 0x70 }
  - { offsetInCU: 0xB95A, offset: 0x2FBA6, size: 0x8, addend: 0x0, symName: __ZNK22JRRNBinomialTreePricer9GetProbUpEv, symObjAddr: 0x7D0, symBinAddr: 0x10000A870, symSize: 0x20 }
  - { offsetInCU: 0xB97E, offset: 0x2FBCA, size: 0x8, addend: 0x0, symName: __ZNK22JRRNBinomialTreePricer11GetProbDownEv, symObjAddr: 0x7F0, symBinAddr: 0x10000A890, symSize: 0x20 }
  - { offsetInCU: 0x155D3, offset: 0x451E4, size: 0x8, addend: 0x0, symName: __ZNSt3__17getlineB8ue170006IcNS_11char_traitsIcEENS_9allocatorIcEEEERNS_13basic_istreamIT_T0_EES9_RNS_12basic_stringIS6_S7_T1_EE, symObjAddr: 0x4C0, symBinAddr: 0x10000ADA0, symSize: 0x50 }
  - { offsetInCU: 0x15636, offset: 0x45247, size: 0x8, addend: 0x0, symName: __ZNSt3__1neB8ue170006IPP5TradeEEbRKNS_11__wrap_iterIT_EES8_, symObjAddr: 0xB80, symBinAddr: 0x10000B460, symSize: 0x30 }
  - { offsetInCU: 0x15783, offset: 0x45394, size: 0x8, addend: 0x0, symName: __ZNSt3__1eqB8ue170006IPP5TradeEEbRKNS_11__wrap_iterIT_EES8_, symObjAddr: 0x4400, symBinAddr: 0x10000D050, symSize: 0x40 }
  - { offsetInCU: 0x15886, offset: 0x45497, size: 0x8, addend: 0x0, symName: __ZNSt3__17launderB8ue170006INS_4pairIKNS_12basic_stringIcNS_11char_traitsIcEENS_9allocatorIcEEEEdEEEEPT_SB_, symObjAddr: 0x47C0, symBinAddr: 0x10000D410, symSize: 0x20 }
  - { offsetInCU: 0x158BD, offset: 0x454CE, size: 0x8, addend: 0x0, symName: __ZNSt3__19__launderB8ue170006INS_4pairIKNS_12basic_stringIcNS_11char_traitsIcEENS_9allocatorIcEEEEdEEEEPT_SB_, symObjAddr: 0x47E0, symBinAddr: 0x10000D430, symSize: 0x10 }
  - { offsetInCU: 0x158F4, offset: 0x45505, size: 0x8, addend: 0x0, symName: __ZNSt3__17launderB8ue170006INS_4pairIKNS_12basic_stringIcNS_11char_traitsIcEENS_9allocatorIcEEEE8VolCurveEEEEPT_SC_, symObjAddr: 0x5820, symBinAddr: 0x10000DAD0, symSize: 0x20 }
  - { offsetInCU: 0x1592B, offset: 0x4553C, size: 0x8, addend: 0x0, symName: __ZNSt3__19__launderB8ue170006INS_4pairIKNS_12basic_stringIcNS_11char_traitsIcEENS_9allocatorIcEEEE8VolCurveEEEEPT_SC_, symObjAddr: 0x5840, symBinAddr: 0x10000DAF0, symSize: 0x10 }
  - { offsetInCU: 0x15962, offset: 0x45573, size: 0x8, addend: 0x0, symName: __ZNSt3__17getlineB8ue170006IcNS_11char_traitsIcEENS_9allocatorIcEEEERNS_13basic_istreamIT_T0_EES9_RNS_12basic_stringIS6_S7_T1_EES6_, symObjAddr: 0x5EC0, symBinAddr: 0x10000DF80, symSize: 0x220 }
  - { offsetInCU: 0x15C0D, offset: 0x4581E, size: 0x8, addend: 0x0, symName: __ZNSt3__112__to_addressB8ue170006IP5TradeEEPT_S4_, symObjAddr: 0x6B70, symBinAddr: 0x10000E9F0, symSize: 0x10 }
  - { offsetInCU: 0x15C42, offset: 0x45853, size: 0x8, addend: 0x0, symName: __ZNSt3__119__allocate_at_leastB8ue170006INS_9allocatorIP5TradeEEEENS_19__allocation_resultINS_16allocator_traitsIT_E7pointerEEERS7_m, symObjAddr: 0x7390, symBinAddr: 0x10000F210, symSize: 0x40 }
  - { offsetInCU: 0x15C85, offset: 0x45896, size: 0x8, addend: 0x0, symName: __ZNSt3__142__uninitialized_allocator_move_if_noexceptB8ue170006INS_9allocatorIP5TradeEENS_16reverse_iteratorIPS3_EES7_S3_vEET1_RT_T0_SB_S8_, symObjAddr: 0x7520, symBinAddr: 0x10000F3A0, symSize: 0x70 }
  - { offsetInCU: 0x15D02, offset: 0x45913, size: 0x8, addend: 0x0, symName: __ZNSt3__14swapB8ue170006IPP5TradeEENS_9enable_ifIXaasr21is_move_constructibleIT_EE5valuesr18is_move_assignableIS5_EE5valueEvE4typeERS5_S8_, symObjAddr: 0x75E0, symBinAddr: 0x10000F460, symSize: 0x40 }
  - { offsetInCU: 0x15D53, offset: 0x45964, size: 0x8, addend: 0x0, symName: __ZNSt3__14moveB8ue170006INS_16reverse_iteratorIPP5TradeEES5_EET0_T_S7_S6_, symObjAddr: 0x76D0, symBinAddr: 0x10000F550, symSize: 0x80 }
  - { offsetInCU: 0x15DAD, offset: 0x459BE, size: 0x8, addend: 0x0, symName: __ZNSt3__16__moveB8ue170006INS_17_ClassicAlgPolicyENS_16reverse_iteratorIPP5TradeEES6_S6_EENS_4pairIT0_T2_EES8_T1_S9_, symObjAddr: 0x7750, symBinAddr: 0x10000F5D0, symSize: 0x90 }
  - { offsetInCU: 0x15E19, offset: 0x45A2A, size: 0x8, addend: 0x0, symName: __ZNSt3__123__dispatch_copy_or_moveB8ue170006INS_17_ClassicAlgPolicyENS_11__move_loopIS1_EENS_14__move_trivialENS_16reverse_iteratorIPP5TradeEES9_S9_EENS_4pairIT2_T4_EESB_T3_SC_, symObjAddr: 0x77E0, symBinAddr: 0x10000F660, symSize: 0x90 }
  - { offsetInCU: 0x15E97, offset: 0x45AA8, size: 0x8, addend: 0x0, symName: __ZNSt3__121__unwrap_and_dispatchB8ue170006INS_10__overloadINS_11__move_loopINS_17_ClassicAlgPolicyEEENS_14__move_trivialEEENS_16reverse_iteratorIPP5TradeEESB_SB_Li0EEENS_4pairIT0_T2_EESD_T1_SE_, symObjAddr: 0x7870, symBinAddr: 0x10000F6F0, symSize: 0x210 }
  - { offsetInCU: 0x15F27, offset: 0x45B38, size: 0x8, addend: 0x0, symName: __ZNSt3__114__unwrap_rangeB8ue170006INS_16reverse_iteratorIPP5TradeEES5_EENS_4pairIT0_S7_EET_S9_, symObjAddr: 0x7A80, symBinAddr: 0x10000F900, symSize: 0x90 }
  - { offsetInCU: 0x16048, offset: 0x45C59, size: 0x8, addend: 0x0, symName: __ZNSt3__113__unwrap_iterB8ue170006INS_16reverse_iteratorIPP5TradeEENS_18__unwrap_iter_implIS5_Lb0EEELi0EEEDTclsrT0_8__unwrapclsr3stdE7declvalIT_EEEES9_, symObjAddr: 0x7BB0, symBinAddr: 0x10000FA30, symSize: 0x40 }
  - { offsetInCU: 0x1608D, offset: 0x45C9E, size: 0x8, addend: 0x0, symName: __ZNSt3__19make_pairB8ue170006INS_16reverse_iteratorIPP5TradeEES5_EENS_4pairINS_18__unwrap_ref_decayIT_E4typeENS7_IT0_E4typeEEEOS8_OSB_, symObjAddr: 0x7BF0, symBinAddr: 0x10000FA70, symSize: 0x30 }
  - { offsetInCU: 0x160DC, offset: 0x45CED, size: 0x8, addend: 0x0, symName: __ZNSt3__114__rewrap_rangeB8ue170006INS_16reverse_iteratorIPP5TradeEES5_EET_S6_T0_, symObjAddr: 0x7C20, symBinAddr: 0x10000FAA0, symSize: 0x60 }
  - { offsetInCU: 0x16128, offset: 0x45D39, size: 0x8, addend: 0x0, symName: __ZNSt3__113__rewrap_iterB8ue170006INS_16reverse_iteratorIPP5TradeEES5_NS_18__unwrap_iter_implIS5_Lb0EEEEET_S8_T0_, symObjAddr: 0x7C80, symBinAddr: 0x10000FB00, symSize: 0x70 }
  - { offsetInCU: 0x1617D, offset: 0x45D8E, size: 0x8, addend: 0x0, symName: __ZNSt3__1neB8ue170006IPP5TradeS3_EEbRKNS_16reverse_iteratorIT_EERKNS4_IT0_EE, symObjAddr: 0x7CF0, symBinAddr: 0x10000FB70, symSize: 0x40 }
  - { offsetInCU: 0x17A2F, offset: 0x47640, size: 0x8, addend: 0x0, symName: __ZNSt3__16vectorIP5TradeNS_9allocatorIS2_EEE26__swap_out_circular_bufferERNS_14__split_bufferIS2_RS4_EE, symObjAddr: 0x7040, symBinAddr: 0x10000EEC0, symSize: 0x120 }
  - { offsetInCU: 0x19860, offset: 0x49471, size: 0x8, addend: 0x0, symName: __ZN6PAYOFF13VanillaOptionE10OptionTypedd, symObjAddr: 0x0, symBinAddr: 0x10000A8E0, symSize: 0x150 }
  - { offsetInCU: 0x198A8, offset: 0x494B9, size: 0x8, addend: 0x0, symName: __ZN6PAYOFF10CallSpreadEddd, symObjAddr: 0x150, symBinAddr: 0x10000AA30, symSize: 0x80 }
  - { offsetInCU: 0x198F2, offset: 0x49503, size: 0x8, addend: 0x0, symName: __Z12readFromFileRKNSt3__112basic_stringIcNS_11char_traitsIcEENS_9allocatorIcEEEERS5_, symObjAddr: 0x1D0, symBinAddr: 0x10000AAB0, symSize: 0x170 }
  - { offsetInCU: 0x19949, offset: 0x4955A, size: 0x8, addend: 0x0, symName: __ZNSt3__112basic_stringIcNS_11char_traitsIcEENS_9allocatorIcEEEC1B8ue170006Ev, symObjAddr: 0x340, symBinAddr: 0x10000AC20, symSize: 0x20 }
  - { offsetInCU: 0x19A83, offset: 0x49694, size: 0x8, addend: 0x0, symName: __ZNSt3__114basic_ifstreamIcNS_11char_traitsIcEEEC1ERKNS_12basic_stringIcS2_NS_9allocatorIcEEEEj, symObjAddr: 0x360, symBinAddr: 0x10000AC40, symSize: 0x160 }
  - { offsetInCU: 0x19ACC, offset: 0x496DD, size: 0x8, addend: 0x0, symName: __ZNKSt3__19basic_iosIcNS_11char_traitsIcEEEcvbB8ue170006Ev, symObjAddr: 0x510, symBinAddr: 0x10000ADF0, symSize: 0x30 }
  - { offsetInCU: 0x19AF0, offset: 0x49701, size: 0x8, addend: 0x0, symName: __ZNSt3__112basic_stringIcNS_11char_traitsIcEENS_9allocatorIcEEE6appendB8ue170006ERKS5_, symObjAddr: 0x540, symBinAddr: 0x10000AE20, symSize: 0x50 }
  - { offsetInCU: 0x19B23, offset: 0x49734, size: 0x8, addend: 0x0, symName: __ZNSt3__114basic_ifstreamIcNS_11char_traitsIcEEE5closeEv, symObjAddr: 0x590, symBinAddr: 0x10000AE70, symSize: 0x50 }
  - { offsetInCU: 0x19B4E, offset: 0x4975F, size: 0x8, addend: 0x0, symName: __ZNSt3__114basic_ifstreamIcNS_11char_traitsIcEEED1Ev, symObjAddr: 0x5E0, symBinAddr: 0x10000AEC0, symSize: 0x40 }
  - { offsetInCU: 0x19B7A, offset: 0x4978B, size: 0x8, addend: 0x0, symName: _main, symObjAddr: 0x620, symBinAddr: 0x10000AF00, symSize: 0x340 }
  - { offsetInCU: 0x19C70, offset: 0x49881, size: 0x8, addend: 0x0, symName: __ZN4DateC1Ev, symObjAddr: 0x960, symBinAddr: 0x10000B240, symSize: 0x20 }
  - { offsetInCU: 0x19C98, offset: 0x498A9, size: 0x8, addend: 0x0, symName: __ZN6MarketC1ERK4Date, symObjAddr: 0x980, symBinAddr: 0x10000B260, symSize: 0x30 }
  - { offsetInCU: 0x19CCE, offset: 0x498DF, size: 0x8, addend: 0x0, symName: __ZNSt3__16vectorIP5TradeNS_9allocatorIS2_EEEC1B8ue170006Ev, symObjAddr: 0x9B0, symBinAddr: 0x10000B290, symSize: 0x20 }
  - { offsetInCU: 0x19CF6, offset: 0x49907, size: 0x8, addend: 0x0, symName: __ZN4DateC1Eiii, symObjAddr: 0x9D0, symBinAddr: 0x10000B2B0, symSize: 0x30 }
  - { offsetInCU: 0x19DF7, offset: 0x49A08, size: 0x8, addend: 0x0, symName: __ZN4BondC1E4DateS0_dd, symObjAddr: 0xA00, symBinAddr: 0x10000B2E0, symSize: 0x90 }
  - { offsetInCU: 0x19E5A, offset: 0x49A6B, size: 0x8, addend: 0x0, symName: __ZNSt3__16vectorIP5TradeNS_9allocatorIS2_EEE9push_backB8ue170006ERKS2_, symObjAddr: 0xA90, symBinAddr: 0x10000B370, symSize: 0x60 }
  - { offsetInCU: 0x1A027, offset: 0x49C38, size: 0x8, addend: 0x0, symName: __ZN21CRRBinomialTreePricerC1Ei, symObjAddr: 0xAF0, symBinAddr: 0x10000B3D0, symSize: 0x30 }
  - { offsetInCU: 0x1A05D, offset: 0x49C6E, size: 0x8, addend: 0x0, symName: __ZNSt3__16vectorIP5TradeNS_9allocatorIS2_EEE5beginB8ue170006Ev, symObjAddr: 0xB20, symBinAddr: 0x10000B400, symSize: 0x30 }
  - { offsetInCU: 0x1A083, offset: 0x49C94, size: 0x8, addend: 0x0, symName: __ZNSt3__16vectorIP5TradeNS_9allocatorIS2_EEE3endB8ue170006Ev, symObjAddr: 0xB50, symBinAddr: 0x10000B430, symSize: 0x30 }
  - { offsetInCU: 0x1A0A9, offset: 0x49CBA, size: 0x8, addend: 0x0, symName: __ZNKSt3__111__wrap_iterIPP5TradeEdeB8ue170006Ev, symObjAddr: 0xBB0, symBinAddr: 0x10000B490, symSize: 0x20 }
  - { offsetInCU: 0x1A0CD, offset: 0x49CDE, size: 0x8, addend: 0x0, symName: __ZNSt3__111__wrap_iterIPP5TradeEppB8ue170006Ev, symObjAddr: 0xBD0, symBinAddr: 0x10000B4B0, symSize: 0x20 }
  - { offsetInCU: 0x1A0F1, offset: 0x49D02, size: 0x8, addend: 0x0, symName: __ZNSt3__16vectorIP5TradeNS_9allocatorIS2_EEED1B8ue170006Ev, symObjAddr: 0xCA0, symBinAddr: 0x10000B4D0, symSize: 0x20 }
  - { offsetInCU: 0x1A119, offset: 0x49D2A, size: 0x8, addend: 0x0, symName: __ZN6MarketD1Ev, symObjAddr: 0xCC0, symBinAddr: 0x10000B4F0, symSize: 0x20 }
  - { offsetInCU: 0x1A144, offset: 0x49D55, size: 0x8, addend: 0x0, symName: __ZNSt3__114basic_ifstreamIcNS_11char_traitsIcEEED2Ev, symObjAddr: 0xCE0, symBinAddr: 0x10000B510, symSize: 0x60 }
  - { offsetInCU: 0x1A17C, offset: 0x49D8D, size: 0x8, addend: 0x0, symName: __ZTv0_n24_NSt3__114basic_ifstreamIcNS_11char_traitsIcEEED1Ev, symObjAddr: 0xD40, symBinAddr: 0x10000B570, symSize: 0x20 }
  - { offsetInCU: 0x1A193, offset: 0x49DA4, size: 0x8, addend: 0x0, symName: __ZN4DateC2Ev, symObjAddr: 0xD60, symBinAddr: 0x10000B590, symSize: 0x10 }
  - { offsetInCU: 0x1A1BB, offset: 0x49DCC, size: 0x8, addend: 0x0, symName: __ZN6MarketC2ERK4Date, symObjAddr: 0xD70, symBinAddr: 0x10000B5A0, symSize: 0x70 }
  - { offsetInCU: 0x1A1F1, offset: 0x49E02, size: 0x8, addend: 0x0, symName: __ZNSt3__113unordered_mapINS_12basic_stringIcNS_11char_traitsIcEENS_9allocatorIcEEEE8VolCurveNS_4hashIS6_EENS_8equal_toIS6_EENS4_INS_4pairIKS6_S7_EEEEEC1B8ue170006Ev, symObjAddr: 0xDE0, symBinAddr: 0x10000B610, symSize: 0x20 }
  - { offsetInCU: 0x1A219, offset: 0x49E2A, size: 0x8, addend: 0x0, symName: __ZNSt3__113unordered_mapINS_12basic_stringIcNS_11char_traitsIcEENS_9allocatorIcEEEE9RateCurveNS_4hashIS6_EENS_8equal_toIS6_EENS4_INS_4pairIKS6_S7_EEEEEC1B8ue170006Ev, symObjAddr: 0xE00, symBinAddr: 0x10000B630, symSize: 0x20 }
  - { offsetInCU: 0x1A241, offset: 0x49E52, size: 0x8, addend: 0x0, symName: __ZNSt3__113unordered_mapINS_12basic_stringIcNS_11char_traitsIcEENS_9allocatorIcEEEEdNS_4hashIS6_EENS_8equal_toIS6_EENS4_INS_4pairIKS6_dEEEEEC1B8ue170006Ev, symObjAddr: 0xE20, symBinAddr: 0x10000B650, symSize: 0x20 }
  - { offsetInCU: 0x1A269, offset: 0x49E7A, size: 0x8, addend: 0x0, symName: __ZNSt3__113unordered_mapINS_12basic_stringIcNS_11char_traitsIcEENS_9allocatorIcEEEE8VolCurveNS_4hashIS6_EENS_8equal_toIS6_EENS4_INS_4pairIKS6_S7_EEEEEC2B8ue170006Ev, symObjAddr: 0xE40, symBinAddr: 0x10000B670, symSize: 0x20 }
  - { offsetInCU: 0x1A291, offset: 0x49EA2, size: 0x8, addend: 0x0, symName: __ZNSt3__112__hash_tableINS_17__hash_value_typeINS_12basic_stringIcNS_11char_traitsIcEENS_9allocatorIcEEEE8VolCurveEENS_22__unordered_map_hasherIS7_S9_NS_4hashIS7_EENS_8equal_toIS7_EELb1EEENS_21__unordered_map_equalIS7_S9_SE_SC_Lb1EEENS5_IS9_EEEC1Ev, symObjAddr: 0xE60, symBinAddr: 0x10000B690, symSize: 0x20 }
  - { offsetInCU: 0x1A2BC, offset: 0x49ECD, size: 0x8, addend: 0x0, symName: __ZNSt3__112__hash_tableINS_17__hash_value_typeINS_12basic_stringIcNS_11char_traitsIcEENS_9allocatorIcEEEE8VolCurveEENS_22__unordered_map_hasherIS7_S9_NS_4hashIS7_EENS_8equal_toIS7_EELb1EEENS_21__unordered_map_equalIS7_S9_SE_SC_Lb1EEENS5_IS9_EEEC2Ev, symObjAddr: 0xE80, symBinAddr: 0x10000B6B0, symSize: 0x80 }
  - { offsetInCU: 0x1A2E7, offset: 0x49EF8, size: 0x8, addend: 0x0, symName: __ZNSt3__110unique_ptrIA_PNS_16__hash_node_baseIPNS_11__hash_nodeINS_17__hash_value_typeINS_12basic_stringIcNS_11char_traitsIcEENS_9allocatorIcEEEE8VolCurveEEPvEEEENS_25__bucket_list_deallocatorINS7_ISG_EEEEEC1B8ue170006ILb1EvEEv, symObjAddr: 0xF00, symBinAddr: 0x10000B730, symSize: 0x20 }
  - { offsetInCU: 0x1A31A, offset: 0x49F2B, size: 0x8, addend: 0x0, symName: __ZNSt3__117__compressed_pairINS_16__hash_node_baseIPNS_11__hash_nodeINS_17__hash_value_typeINS_12basic_stringIcNS_11char_traitsIcEENS_9allocatorIcEEEE8VolCurveEEPvEEEENS7_ISD_EEEC1B8ue170006ILb1EvEEv, symObjAddr: 0xF20, symBinAddr: 0x10000B750, symSize: 0x20 }
  - { offsetInCU: 0x1A357, offset: 0x49F68, size: 0x8, addend: 0x0, symName: __ZNSt3__117__compressed_pairImNS_22__unordered_map_hasherINS_12basic_stringIcNS_11char_traitsIcEENS_9allocatorIcEEEENS_17__hash_value_typeIS7_8VolCurveEENS_4hashIS7_EENS_8equal_toIS7_EELb1EEEEC1B8ue170006IiNS_18__default_init_tagEEEOT_OT0_, symObjAddr: 0xF50, symBinAddr: 0x10000B770, symSize: 0x30 }
  - { offsetInCU: 0x1A3B2, offset: 0x49FC3, size: 0x8, addend: 0x0, symName: __ZNSt3__117__compressed_pairIfNS_21__unordered_map_equalINS_12basic_stringIcNS_11char_traitsIcEENS_9allocatorIcEEEENS_17__hash_value_typeIS7_8VolCurveEENS_8equal_toIS7_EENS_4hashIS7_EELb1EEEEC1B8ue170006IfNS_18__default_init_tagEEEOT_OT0_, symObjAddr: 0xF80, symBinAddr: 0x10000B7A0, symSize: 0x30 }
  - { offsetInCU: 0x1A408, offset: 0x4A019, size: 0x8, addend: 0x0, symName: __ZNSt3__110unique_ptrIA_PNS_16__hash_node_baseIPNS_11__hash_nodeINS_17__hash_value_typeINS_12basic_stringIcNS_11char_traitsIcEENS_9allocatorIcEEEE8VolCurveEEPvEEEENS_25__bucket_list_deallocatorINS7_ISG_EEEEEC2B8ue170006ILb1EvEEv, symObjAddr: 0xFB0, symBinAddr: 0x10000B7D0, symSize: 0x30 }
  - { offsetInCU: 0x1A440, offset: 0x4A051, size: 0x8, addend: 0x0, symName: __ZNSt3__117__compressed_pairIPPNS_16__hash_node_baseIPNS_11__hash_nodeINS_17__hash_value_typeINS_12basic_stringIcNS_11char_traitsIcEENS_9allocatorIcEEEE8VolCurveEEPvEEEENS_25__bucket_list_deallocatorINS7_ISG_EEEEEC1B8ue170006INS_16__value_init_tagESN_EEOT_OT0_, symObjAddr: 0xFE0, symBinAddr: 0x10000B800, symSize: 0x30 }
  - { offsetInCU: 0x1A496, offset: 0x4A0A7, size: 0x8, addend: 0x0, symName: __ZNSt3__117__compressed_pairIPPNS_16__hash_node_baseIPNS_11__hash_nodeINS_17__hash_value_typeINS_12basic_stringIcNS_11char_traitsIcEENS_9allocatorIcEEEE8VolCurveEEPvEEEENS_25__bucket_list_deallocatorINS7_ISG_EEEEEC2B8ue170006INS_16__value_init_tagESN_EEOT_OT0_, symObjAddr: 0x1010, symBinAddr: 0x10000B830, symSize: 0x40 }
  - { offsetInCU: 0x1A4EC, offset: 0x4A0FD, size: 0x8, addend: 0x0, symName: __ZNSt3__122__compressed_pair_elemIPPNS_16__hash_node_baseIPNS_11__hash_nodeINS_17__hash_value_typeINS_12basic_stringIcNS_11char_traitsIcEENS_9allocatorIcEEEE8VolCurveEEPvEEEELi0ELb0EEC2B8ue170006ENS_16__value_init_tagE, symObjAddr: 0x1050, symBinAddr: 0x10000B870, symSize: 0x20 }
  - { offsetInCU: 0x1A51E, offset: 0x4A12F, size: 0x8, addend: 0x0, symName: __ZNSt3__122__compressed_pair_elemINS_25__bucket_list_deallocatorINS_9allocatorIPNS_16__hash_node_baseIPNS_11__hash_nodeINS_17__hash_value_typeINS_12basic_stringIcNS_11char_traitsIcEENS2_IcEEEE8VolCurveEEPvEEEEEEEELi1ELb0EEC2B8ue170006ENS_16__value_init_tagE, symObjAddr: 0x1070, symBinAddr: 0x10000B890, symSize: 0x20 }
  - { offsetInCU: 0x1A550, offset: 0x4A161, size: 0x8, addend: 0x0, symName: __ZNSt3__125__bucket_list_deallocatorINS_9allocatorIPNS_16__hash_node_baseIPNS_11__hash_nodeINS_17__hash_value_typeINS_12basic_stringIcNS_11char_traitsIcEENS1_IcEEEE8VolCurveEEPvEEEEEEEC1B8ue170006Ev, symObjAddr: 0x1090, symBinAddr: 0x10000B8B0, symSize: 0x20 }
  - { offsetInCU: 0x1A578, offset: 0x4A189, size: 0x8, addend: 0x0, symName: __ZNSt3__125__bucket_list_deallocatorINS_9allocatorIPNS_16__hash_node_baseIPNS_11__hash_nodeINS_17__hash_value_typeINS_12basic_stringIcNS_11char_traitsIcEENS1_IcEEEE8VolCurveEEPvEEEEEEEC2B8ue170006Ev, symObjAddr: 0x10B0, symBinAddr: 0x10000B8D0, symSize: 0x40 }
  - { offsetInCU: 0x1A5A0, offset: 0x4A1B1, size: 0x8, addend: 0x0, symName: __ZNSt3__117__compressed_pairImNS_9allocatorIPNS_16__hash_node_baseIPNS_11__hash_nodeINS_17__hash_value_typeINS_12basic_stringIcNS_11char_traitsIcEENS1_IcEEEE8VolCurveEEPvEEEEEEEC1B8ue170006IiNS_18__default_init_tagEEEOT_OT0_, symObjAddr: 0x10F0, symBinAddr: 0x10000B910, symSize: 0x30 }
  - { offsetInCU: 0x1A5F6, offset: 0x4A207, size: 0x8, addend: 0x0, symName: __ZNSt3__117__compressed_pairImNS_9allocatorIPNS_16__hash_node_baseIPNS_11__hash_nodeINS_17__hash_value_typeINS_12basic_stringIcNS_11char_traitsIcEENS1_IcEEEE8VolCurveEEPvEEEEEEEC2B8ue170006IiNS_18__default_init_tagEEEOT_OT0_, symObjAddr: 0x1120, symBinAddr: 0x10000B940, symSize: 0x40 }
  - { offsetInCU: 0x1A64C, offset: 0x4A25D, size: 0x8, addend: 0x0, symName: __ZNSt3__122__compressed_pair_elemImLi0ELb0EEC2B8ue170006IivEEOT_, symObjAddr: 0x1160, symBinAddr: 0x10000B980, symSize: 0x20 }
  - { offsetInCU: 0x1A68C, offset: 0x4A29D, size: 0x8, addend: 0x0, symName: __ZNSt3__122__compressed_pair_elemINS_9allocatorIPNS_16__hash_node_baseIPNS_11__hash_nodeINS_17__hash_value_typeINS_12basic_stringIcNS_11char_traitsIcEENS1_IcEEEE8VolCurveEEPvEEEEEELi1ELb1EEC2B8ue170006ENS_18__default_init_tagE, symObjAddr: 0x1180, symBinAddr: 0x10000B9A0, symSize: 0x20 }
  - { offsetInCU: 0x1A6BE, offset: 0x4A2CF, size: 0x8, addend: 0x0, symName: __ZNSt3__19allocatorIPNS_16__hash_node_baseIPNS_11__hash_nodeINS_17__hash_value_typeINS_12basic_stringIcNS_11char_traitsIcEENS0_IcEEEE8VolCurveEEPvEEEEEC2B8ue170006Ev, symObjAddr: 0x11A0, symBinAddr: 0x10000B9C0, symSize: 0x20 }
  - { offsetInCU: 0x1A6E6, offset: 0x4A2F7, size: 0x8, addend: 0x0, symName: __ZNSt3__116__non_trivial_ifILb1ENS_9allocatorIPNS_16__hash_node_baseIPNS_11__hash_nodeINS_17__hash_value_typeINS_12basic_stringIcNS_11char_traitsIcEENS1_IcEEEE8VolCurveEEPvEEEEEEEC2B8ue170006Ev, symObjAddr: 0x11C0, symBinAddr: 0x10000B9E0, symSize: 0x10 }
  - { offsetInCU: 0x1A70E, offset: 0x4A31F, size: 0x8, addend: 0x0, symName: __ZNSt3__117__compressed_pairINS_16__hash_node_baseIPNS_11__hash_nodeINS_17__hash_value_typeINS_12basic_stringIcNS_11char_traitsIcEENS_9allocatorIcEEEE8VolCurveEEPvEEEENS7_ISD_EEEC2B8ue170006ILb1EvEEv, symObjAddr: 0x11D0, symBinAddr: 0x10000B9F0, symSize: 0x30 }
  - { offsetInCU: 0x1A741, offset: 0x4A352, size: 0x8, addend: 0x0, symName: __ZNSt3__122__compressed_pair_elemINS_16__hash_node_baseIPNS_11__hash_nodeINS_17__hash_value_typeINS_12basic_stringIcNS_11char_traitsIcEENS_9allocatorIcEEEE8VolCurveEEPvEEEELi0ELb0EEC2B8ue170006ENS_16__value_init_tagE, symObjAddr: 0x1200, symBinAddr: 0x10000BA20, symSize: 0x20 }
  - { offsetInCU: 0x1A773, offset: 0x4A384, size: 0x8, addend: 0x0, symName: __ZNSt3__122__compressed_pair_elemINS_9allocatorINS_11__hash_nodeINS_17__hash_value_typeINS_12basic_stringIcNS_11char_traitsIcEENS1_IcEEEE8VolCurveEEPvEEEELi1ELb1EEC2B8ue170006ENS_16__value_init_tagE, symObjAddr: 0x1220, symBinAddr: 0x10000BA40, symSize: 0x20 }
  - { offsetInCU: 0x1A7A5, offset: 0x4A3B6, size: 0x8, addend: 0x0, symName: __ZNSt3__116__hash_node_baseIPNS_11__hash_nodeINS_17__hash_value_typeINS_12basic_stringIcNS_11char_traitsIcEENS_9allocatorIcEEEE8VolCurveEEPvEEEC1B8ue170006Ev, symObjAddr: 0x1240, symBinAddr: 0x10000BA60, symSize: 0x20 }
  - { offsetInCU: 0x1A7CD, offset: 0x4A3DE, size: 0x8, addend: 0x0, symName: __ZNSt3__116__hash_node_baseIPNS_11__hash_nodeINS_17__hash_value_typeINS_12basic_stringIcNS_11char_traitsIcEENS_9allocatorIcEEEE8VolCurveEEPvEEEC2B8ue170006Ev, symObjAddr: 0x1260, symBinAddr: 0x10000BA80, symSize: 0x20 }
  - { offsetInCU: 0x1A7F5, offset: 0x4A406, size: 0x8, addend: 0x0, symName: __ZNSt3__19allocatorINS_11__hash_nodeINS_17__hash_value_typeINS_12basic_stringIcNS_11char_traitsIcEENS0_IcEEEE8VolCurveEEPvEEEC2B8ue170006Ev, symObjAddr: 0x1280, symBinAddr: 0x10000BAA0, symSize: 0x20 }
  - { offsetInCU: 0x1A81D, offset: 0x4A42E, size: 0x8, addend: 0x0, symName: __ZNSt3__116__non_trivial_ifILb1ENS_9allocatorINS_11__hash_nodeINS_17__hash_value_typeINS_12basic_stringIcNS_11char_traitsIcEENS1_IcEEEE8VolCurveEEPvEEEEEC2B8ue170006Ev, symObjAddr: 0x12A0, symBinAddr: 0x10000BAC0, symSize: 0x10 }
  - { offsetInCU: 0x1A845, offset: 0x4A456, size: 0x8, addend: 0x0, symName: __ZNSt3__117__compressed_pairImNS_22__unordered_map_hasherINS_12basic_stringIcNS_11char_traitsIcEENS_9allocatorIcEEEENS_17__hash_value_typeIS7_8VolCurveEENS_4hashIS7_EENS_8equal_toIS7_EELb1EEEEC2B8ue170006IiNS_18__default_init_tagEEEOT_OT0_, symObjAddr: 0x12B0, symBinAddr: 0x10000BAD0, symSize: 0x40 }
  - { offsetInCU: 0x1A89B, offset: 0x4A4AC, size: 0x8, addend: 0x0, symName: __ZNSt3__122__compressed_pair_elemINS_22__unordered_map_hasherINS_12basic_stringIcNS_11char_traitsIcEENS_9allocatorIcEEEENS_17__hash_value_typeIS7_8VolCurveEENS_4hashIS7_EENS_8equal_toIS7_EELb1EEELi1ELb1EEC2B8ue170006ENS_18__default_init_tagE, symObjAddr: 0x12F0, symBinAddr: 0x10000BB10, symSize: 0x20 }
  - { offsetInCU: 0x1A8CD, offset: 0x4A4DE, size: 0x8, addend: 0x0, symName: __ZNSt3__122__unordered_map_hasherINS_12basic_stringIcNS_11char_traitsIcEENS_9allocatorIcEEEENS_17__hash_value_typeIS6_8VolCurveEENS_4hashIS6_EENS_8equal_toIS6_EELb1EEC2B8ue170006Ev, symObjAddr: 0x1310, symBinAddr: 0x10000BB30, symSize: 0x10 }
  - { offsetInCU: 0x1A8F5, offset: 0x4A506, size: 0x8, addend: 0x0, symName: __ZNSt3__117__compressed_pairIfNS_21__unordered_map_equalINS_12basic_stringIcNS_11char_traitsIcEENS_9allocatorIcEEEENS_17__hash_value_typeIS7_8VolCurveEENS_8equal_toIS7_EENS_4hashIS7_EELb1EEEEC2B8ue170006IfNS_18__default_init_tagEEEOT_OT0_, symObjAddr: 0x1320, symBinAddr: 0x10000BB40, symSize: 0x40 }
  - { offsetInCU: 0x1A94B, offset: 0x4A55C, size: 0x8, addend: 0x0, symName: __ZNSt3__122__compressed_pair_elemIfLi0ELb0EEC2B8ue170006IfvEEOT_, symObjAddr: 0x1360, symBinAddr: 0x10000BB80, symSize: 0x20 }
  - { offsetInCU: 0x1A98B, offset: 0x4A59C, size: 0x8, addend: 0x0, symName: __ZNSt3__122__compressed_pair_elemINS_21__unordered_map_equalINS_12basic_stringIcNS_11char_traitsIcEENS_9allocatorIcEEEENS_17__hash_value_typeIS7_8VolCurveEENS_8equal_toIS7_EENS_4hashIS7_EELb1EEELi1ELb1EEC2B8ue170006ENS_18__default_init_tagE, symObjAddr: 0x1380, symBinAddr: 0x10000BBA0, symSize: 0x20 }
  - { offsetInCU: 0x1A9BD, offset: 0x4A5CE, size: 0x8, addend: 0x0, symName: __ZNSt3__121__unordered_map_equalINS_12basic_stringIcNS_11char_traitsIcEENS_9allocatorIcEEEENS_17__hash_value_typeIS6_8VolCurveEENS_8equal_toIS6_EENS_4hashIS6_EELb1EEC2B8ue170006Ev, symObjAddr: 0x13A0, symBinAddr: 0x10000BBC0, symSize: 0x10 }
  - { offsetInCU: 0x1A9E5, offset: 0x4A5F6, size: 0x8, addend: 0x0, symName: __ZNSt3__113unordered_mapINS_12basic_stringIcNS_11char_traitsIcEENS_9allocatorIcEEEE9RateCurveNS_4hashIS6_EENS_8equal_toIS6_EENS4_INS_4pairIKS6_S7_EEEEEC2B8ue170006Ev, symObjAddr: 0x13B0, symBinAddr: 0x10000BBD0, symSize: 0x20 }
  - { offsetInCU: 0x1AA0D, offset: 0x4A61E, size: 0x8, addend: 0x0, symName: __ZNSt3__112__hash_tableINS_17__hash_value_typeINS_12basic_stringIcNS_11char_traitsIcEENS_9allocatorIcEEEE9RateCurveEENS_22__unordered_map_hasherIS7_S9_NS_4hashIS7_EENS_8equal_toIS7_EELb1EEENS_21__unordered_map_equalIS7_S9_SE_SC_Lb1EEENS5_IS9_EEEC1Ev, symObjAddr: 0x13D0, symBinAddr: 0x10000BBF0, symSize: 0x20 }
  - { offsetInCU: 0x1AA38, offset: 0x4A649, size: 0x8, addend: 0x0, symName: __ZNSt3__112__hash_tableINS_17__hash_value_typeINS_12basic_stringIcNS_11char_traitsIcEENS_9allocatorIcEEEE9RateCurveEENS_22__unordered_map_hasherIS7_S9_NS_4hashIS7_EENS_8equal_toIS7_EELb1EEENS_21__unordered_map_equalIS7_S9_SE_SC_Lb1EEENS5_IS9_EEEC2Ev, symObjAddr: 0x13F0, symBinAddr: 0x10000BC10, symSize: 0x80 }
  - { offsetInCU: 0x1AA63, offset: 0x4A674, size: 0x8, addend: 0x0, symName: __ZNSt3__110unique_ptrIA_PNS_16__hash_node_baseIPNS_11__hash_nodeINS_17__hash_value_typeINS_12basic_stringIcNS_11char_traitsIcEENS_9allocatorIcEEEE9RateCurveEEPvEEEENS_25__bucket_list_deallocatorINS7_ISG_EEEEEC1B8ue170006ILb1EvEEv, symObjAddr: 0x1470, symBinAddr: 0x10000BC90, symSize: 0x20 }
  - { offsetInCU: 0x1AA96, offset: 0x4A6A7, size: 0x8, addend: 0x0, symName: __ZNSt3__117__compressed_pairINS_16__hash_node_baseIPNS_11__hash_nodeINS_17__hash_value_typeINS_12basic_stringIcNS_11char_traitsIcEENS_9allocatorIcEEEE9RateCurveEEPvEEEENS7_ISD_EEEC1B8ue170006ILb1EvEEv, symObjAddr: 0x1490, symBinAddr: 0x10000BCB0, symSize: 0x20 }
  - { offsetInCU: 0x1AAC9, offset: 0x4A6DA, size: 0x8, addend: 0x0, symName: __ZNSt3__117__compressed_pairImNS_22__unordered_map_hasherINS_12basic_stringIcNS_11char_traitsIcEENS_9allocatorIcEEEENS_17__hash_value_typeIS7_9RateCurveEENS_4hashIS7_EENS_8equal_toIS7_EELb1EEEEC1B8ue170006IiNS_18__default_init_tagEEEOT_OT0_, symObjAddr: 0x14B0, symBinAddr: 0x10000BCD0, symSize: 0x30 }
  - { offsetInCU: 0x1AB1F, offset: 0x4A730, size: 0x8, addend: 0x0, symName: __ZNSt3__117__compressed_pairIfNS_21__unordered_map_equalINS_12basic_stringIcNS_11char_traitsIcEENS_9allocatorIcEEEENS_17__hash_value_typeIS7_9RateCurveEENS_8equal_toIS7_EENS_4hashIS7_EELb1EEEEC1B8ue170006IfNS_18__default_init_tagEEEOT_OT0_, symObjAddr: 0x14E0, symBinAddr: 0x10000BD00, symSize: 0x30 }
  - { offsetInCU: 0x1AB75, offset: 0x4A786, size: 0x8, addend: 0x0, symName: __ZNSt3__110unique_ptrIA_PNS_16__hash_node_baseIPNS_11__hash_nodeINS_17__hash_value_typeINS_12basic_stringIcNS_11char_traitsIcEENS_9allocatorIcEEEE9RateCurveEEPvEEEENS_25__bucket_list_deallocatorINS7_ISG_EEEEEC2B8ue170006ILb1EvEEv, symObjAddr: 0x1510, symBinAddr: 0x10000BD30, symSize: 0x30 }
  - { offsetInCU: 0x1ABA8, offset: 0x4A7B9, size: 0x8, addend: 0x0, symName: __ZNSt3__117__compressed_pairIPPNS_16__hash_node_baseIPNS_11__hash_nodeINS_17__hash_value_typeINS_12basic_stringIcNS_11char_traitsIcEENS_9allocatorIcEEEE9RateCurveEEPvEEEENS_25__bucket_list_deallocatorINS7_ISG_EEEEEC1B8ue170006INS_16__value_init_tagESN_EEOT_OT0_, symObjAddr: 0x1540, symBinAddr: 0x10000BD60, symSize: 0x30 }
  - { offsetInCU: 0x1ABFE, offset: 0x4A80F, size: 0x8, addend: 0x0, symName: __ZNSt3__117__compressed_pairIPPNS_16__hash_node_baseIPNS_11__hash_nodeINS_17__hash_value_typeINS_12basic_stringIcNS_11char_traitsIcEENS_9allocatorIcEEEE9RateCurveEEPvEEEENS_25__bucket_list_deallocatorINS7_ISG_EEEEEC2B8ue170006INS_16__value_init_tagESN_EEOT_OT0_, symObjAddr: 0x1570, symBinAddr: 0x10000BD90, symSize: 0x40 }
  - { offsetInCU: 0x1AC54, offset: 0x4A865, size: 0x8, addend: 0x0, symName: __ZNSt3__122__compressed_pair_elemIPPNS_16__hash_node_baseIPNS_11__hash_nodeINS_17__hash_value_typeINS_12basic_stringIcNS_11char_traitsIcEENS_9allocatorIcEEEE9RateCurveEEPvEEEELi0ELb0EEC2B8ue170006ENS_16__value_init_tagE, symObjAddr: 0x15B0, symBinAddr: 0x10000BDD0, symSize: 0x20 }
  - { offsetInCU: 0x1AC86, offset: 0x4A897, size: 0x8, addend: 0x0, symName: __ZNSt3__122__compressed_pair_elemINS_25__bucket_list_deallocatorINS_9allocatorIPNS_16__hash_node_baseIPNS_11__hash_nodeINS_17__hash_value_typeINS_12basic_stringIcNS_11char_traitsIcEENS2_IcEEEE9RateCurveEEPvEEEEEEEELi1ELb0EEC2B8ue170006ENS_16__value_init_tagE, symObjAddr: 0x15D0, symBinAddr: 0x10000BDF0, symSize: 0x20 }
  - { offsetInCU: 0x1ACB8, offset: 0x4A8C9, size: 0x8, addend: 0x0, symName: __ZNSt3__125__bucket_list_deallocatorINS_9allocatorIPNS_16__hash_node_baseIPNS_11__hash_nodeINS_17__hash_value_typeINS_12basic_stringIcNS_11char_traitsIcEENS1_IcEEEE9RateCurveEEPvEEEEEEEC1B8ue170006Ev, symObjAddr: 0x15F0, symBinAddr: 0x10000BE10, symSize: 0x20 }
  - { offsetInCU: 0x1ACE0, offset: 0x4A8F1, size: 0x8, addend: 0x0, symName: __ZNSt3__125__bucket_list_deallocatorINS_9allocatorIPNS_16__hash_node_baseIPNS_11__hash_nodeINS_17__hash_value_typeINS_12basic_stringIcNS_11char_traitsIcEENS1_IcEEEE9RateCurveEEPvEEEEEEEC2B8ue170006Ev, symObjAddr: 0x1610, symBinAddr: 0x10000BE30, symSize: 0x40 }
  - { offsetInCU: 0x1AD08, offset: 0x4A919, size: 0x8, addend: 0x0, symName: __ZNSt3__117__compressed_pairImNS_9allocatorIPNS_16__hash_node_baseIPNS_11__hash_nodeINS_17__hash_value_typeINS_12basic_stringIcNS_11char_traitsIcEENS1_IcEEEE9RateCurveEEPvEEEEEEEC1B8ue170006IiNS_18__default_init_tagEEEOT_OT0_, symObjAddr: 0x1650, symBinAddr: 0x10000BE70, symSize: 0x30 }
  - { offsetInCU: 0x1AD5E, offset: 0x4A96F, size: 0x8, addend: 0x0, symName: __ZNSt3__117__compressed_pairImNS_9allocatorIPNS_16__hash_node_baseIPNS_11__hash_nodeINS_17__hash_value_typeINS_12basic_stringIcNS_11char_traitsIcEENS1_IcEEEE9RateCurveEEPvEEEEEEEC2B8ue170006IiNS_18__default_init_tagEEEOT_OT0_, symObjAddr: 0x1680, symBinAddr: 0x10000BEA0, symSize: 0x40 }
  - { offsetInCU: 0x1ADB4, offset: 0x4A9C5, size: 0x8, addend: 0x0, symName: __ZNSt3__122__compressed_pair_elemINS_9allocatorIPNS_16__hash_node_baseIPNS_11__hash_nodeINS_17__hash_value_typeINS_12basic_stringIcNS_11char_traitsIcEENS1_IcEEEE9RateCurveEEPvEEEEEELi1ELb1EEC2B8ue170006ENS_18__default_init_tagE, symObjAddr: 0x16C0, symBinAddr: 0x10000BEE0, symSize: 0x20 }
  - { offsetInCU: 0x1ADE6, offset: 0x4A9F7, size: 0x8, addend: 0x0, symName: __ZNSt3__19allocatorIPNS_16__hash_node_baseIPNS_11__hash_nodeINS_17__hash_value_typeINS_12basic_stringIcNS_11char_traitsIcEENS0_IcEEEE9RateCurveEEPvEEEEEC2B8ue170006Ev, symObjAddr: 0x16E0, symBinAddr: 0x10000BF00, symSize: 0x20 }
  - { offsetInCU: 0x1AE0E, offset: 0x4AA1F, size: 0x8, addend: 0x0, symName: __ZNSt3__116__non_trivial_ifILb1ENS_9allocatorIPNS_16__hash_node_baseIPNS_11__hash_nodeINS_17__hash_value_typeINS_12basic_stringIcNS_11char_traitsIcEENS1_IcEEEE9RateCurveEEPvEEEEEEEC2B8ue170006Ev, symObjAddr: 0x1700, symBinAddr: 0x10000BF20, symSize: 0x10 }
  - { offsetInCU: 0x1AE36, offset: 0x4AA47, size: 0x8, addend: 0x0, symName: __ZNSt3__117__compressed_pairINS_16__hash_node_baseIPNS_11__hash_nodeINS_17__hash_value_typeINS_12basic_stringIcNS_11char_traitsIcEENS_9allocatorIcEEEE9RateCurveEEPvEEEENS7_ISD_EEEC2B8ue170006ILb1EvEEv, symObjAddr: 0x1710, symBinAddr: 0x10000BF30, symSize: 0x30 }
  - { offsetInCU: 0x1AE69, offset: 0x4AA7A, size: 0x8, addend: 0x0, symName: __ZNSt3__122__compressed_pair_elemINS_16__hash_node_baseIPNS_11__hash_nodeINS_17__hash_value_typeINS_12basic_stringIcNS_11char_traitsIcEENS_9allocatorIcEEEE9RateCurveEEPvEEEELi0ELb0EEC2B8ue170006ENS_16__value_init_tagE, symObjAddr: 0x1740, symBinAddr: 0x10000BF60, symSize: 0x20 }
  - { offsetInCU: 0x1AE9B, offset: 0x4AAAC, size: 0x8, addend: 0x0, symName: __ZNSt3__122__compressed_pair_elemINS_9allocatorINS_11__hash_nodeINS_17__hash_value_typeINS_12basic_stringIcNS_11char_traitsIcEENS1_IcEEEE9RateCurveEEPvEEEELi1ELb1EEC2B8ue170006ENS_16__value_init_tagE, symObjAddr: 0x1760, symBinAddr: 0x10000BF80, symSize: 0x20 }
  - { offsetInCU: 0x1AECD, offset: 0x4AADE, size: 0x8, addend: 0x0, symName: __ZNSt3__116__hash_node_baseIPNS_11__hash_nodeINS_17__hash_value_typeINS_12basic_stringIcNS_11char_traitsIcEENS_9allocatorIcEEEE9RateCurveEEPvEEEC1B8ue170006Ev, symObjAddr: 0x1780, symBinAddr: 0x10000BFA0, symSize: 0x20 }
  - { offsetInCU: 0x1AEF5, offset: 0x4AB06, size: 0x8, addend: 0x0, symName: __ZNSt3__116__hash_node_baseIPNS_11__hash_nodeINS_17__hash_value_typeINS_12basic_stringIcNS_11char_traitsIcEENS_9allocatorIcEEEE9RateCurveEEPvEEEC2B8ue170006Ev, symObjAddr: 0x17A0, symBinAddr: 0x10000BFC0, symSize: 0x20 }
  - { offsetInCU: 0x1AF1D, offset: 0x4AB2E, size: 0x8, addend: 0x0, symName: __ZNSt3__19allocatorINS_11__hash_nodeINS_17__hash_value_typeINS_12basic_stringIcNS_11char_traitsIcEENS0_IcEEEE9RateCurveEEPvEEEC2B8ue170006Ev, symObjAddr: 0x17C0, symBinAddr: 0x10000BFE0, symSize: 0x20 }
  - { offsetInCU: 0x1AF45, offset: 0x4AB56, size: 0x8, addend: 0x0, symName: __ZNSt3__116__non_trivial_ifILb1ENS_9allocatorINS_11__hash_nodeINS_17__hash_value_typeINS_12basic_stringIcNS_11char_traitsIcEENS1_IcEEEE9RateCurveEEPvEEEEEC2B8ue170006Ev, symObjAddr: 0x17E0, symBinAddr: 0x10000C000, symSize: 0x10 }
  - { offsetInCU: 0x1AF6D, offset: 0x4AB7E, size: 0x8, addend: 0x0, symName: __ZNSt3__117__compressed_pairImNS_22__unordered_map_hasherINS_12basic_stringIcNS_11char_traitsIcEENS_9allocatorIcEEEENS_17__hash_value_typeIS7_9RateCurveEENS_4hashIS7_EENS_8equal_toIS7_EELb1EEEEC2B8ue170006IiNS_18__default_init_tagEEEOT_OT0_, symObjAddr: 0x17F0, symBinAddr: 0x10000C010, symSize: 0x40 }
  - { offsetInCU: 0x1AFC3, offset: 0x4ABD4, size: 0x8, addend: 0x0, symName: __ZNSt3__122__compressed_pair_elemINS_22__unordered_map_hasherINS_12basic_stringIcNS_11char_traitsIcEENS_9allocatorIcEEEENS_17__hash_value_typeIS7_9RateCurveEENS_4hashIS7_EENS_8equal_toIS7_EELb1EEELi1ELb1EEC2B8ue170006ENS_18__default_init_tagE, symObjAddr: 0x1830, symBinAddr: 0x10000C050, symSize: 0x20 }
  - { offsetInCU: 0x1AFF5, offset: 0x4AC06, size: 0x8, addend: 0x0, symName: __ZNSt3__122__unordered_map_hasherINS_12basic_stringIcNS_11char_traitsIcEENS_9allocatorIcEEEENS_17__hash_value_typeIS6_9RateCurveEENS_4hashIS6_EENS_8equal_toIS6_EELb1EEC2B8ue170006Ev, symObjAddr: 0x1850, symBinAddr: 0x10000C070, symSize: 0x10 }
  - { offsetInCU: 0x1B01D, offset: 0x4AC2E, size: 0x8, addend: 0x0, symName: __ZNSt3__117__compressed_pairIfNS_21__unordered_map_equalINS_12basic_stringIcNS_11char_traitsIcEENS_9allocatorIcEEEENS_17__hash_value_typeIS7_9RateCurveEENS_8equal_toIS7_EENS_4hashIS7_EELb1EEEEC2B8ue170006IfNS_18__default_init_tagEEEOT_OT0_, symObjAddr: 0x1860, symBinAddr: 0x10000C080, symSize: 0x40 }
  - { offsetInCU: 0x1B073, offset: 0x4AC84, size: 0x8, addend: 0x0, symName: __ZNSt3__122__compressed_pair_elemINS_21__unordered_map_equalINS_12basic_stringIcNS_11char_traitsIcEENS_9allocatorIcEEEENS_17__hash_value_typeIS7_9RateCurveEENS_8equal_toIS7_EENS_4hashIS7_EELb1EEELi1ELb1EEC2B8ue170006ENS_18__default_init_tagE, symObjAddr: 0x18A0, symBinAddr: 0x10000C0C0, symSize: 0x20 }
  - { offsetInCU: 0x1B0A5, offset: 0x4ACB6, size: 0x8, addend: 0x0, symName: __ZNSt3__121__unordered_map_equalINS_12basic_stringIcNS_11char_traitsIcEENS_9allocatorIcEEEENS_17__hash_value_typeIS6_9RateCurveEENS_8equal_toIS6_EENS_4hashIS6_EELb1EEC2B8ue170006Ev, symObjAddr: 0x18C0, symBinAddr: 0x10000C0E0, symSize: 0x10 }
  - { offsetInCU: 0x1B0CD, offset: 0x4ACDE, size: 0x8, addend: 0x0, symName: __ZNSt3__113unordered_mapINS_12basic_stringIcNS_11char_traitsIcEENS_9allocatorIcEEEEdNS_4hashIS6_EENS_8equal_toIS6_EENS4_INS_4pairIKS6_dEEEEEC2B8ue170006Ev, symObjAddr: 0x18D0, symBinAddr: 0x10000C0F0, symSize: 0x20 }
  - { offsetInCU: 0x1B0F5, offset: 0x4AD06, size: 0x8, addend: 0x0, symName: __ZNSt3__112__hash_tableINS_17__hash_value_typeINS_12basic_stringIcNS_11char_traitsIcEENS_9allocatorIcEEEEdEENS_22__unordered_map_hasherIS7_S8_NS_4hashIS7_EENS_8equal_toIS7_EELb1EEENS_21__unordered_map_equalIS7_S8_SD_SB_Lb1EEENS5_IS8_EEEC1Ev, symObjAddr: 0x18F0, symBinAddr: 0x10000C110, symSize: 0x20 }
  - { offsetInCU: 0x1B120, offset: 0x4AD31, size: 0x8, addend: 0x0, symName: __ZNSt3__112__hash_tableINS_17__hash_value_typeINS_12basic_stringIcNS_11char_traitsIcEENS_9allocatorIcEEEEdEENS_22__unordered_map_hasherIS7_S8_NS_4hashIS7_EENS_8equal_toIS7_EELb1EEENS_21__unordered_map_equalIS7_S8_SD_SB_Lb1EEENS5_IS8_EEEC2Ev, symObjAddr: 0x1910, symBinAddr: 0x10000C130, symSize: 0x80 }
  - { offsetInCU: 0x1B14B, offset: 0x4AD5C, size: 0x8, addend: 0x0, symName: __ZNSt3__110unique_ptrIA_PNS_16__hash_node_baseIPNS_11__hash_nodeINS_17__hash_value_typeINS_12basic_stringIcNS_11char_traitsIcEENS_9allocatorIcEEEEdEEPvEEEENS_25__bucket_list_deallocatorINS7_ISF_EEEEEC1B8ue170006ILb1EvEEv, symObjAddr: 0x1990, symBinAddr: 0x10000C1B0, symSize: 0x20 }
  - { offsetInCU: 0x1B17E, offset: 0x4AD8F, size: 0x8, addend: 0x0, symName: __ZNSt3__117__compressed_pairINS_16__hash_node_baseIPNS_11__hash_nodeINS_17__hash_value_typeINS_12basic_stringIcNS_11char_traitsIcEENS_9allocatorIcEEEEdEEPvEEEENS7_ISC_EEEC1B8ue170006ILb1EvEEv, symObjAddr: 0x19B0, symBinAddr: 0x10000C1D0, symSize: 0x20 }
  - { offsetInCU: 0x1B1B1, offset: 0x4ADC2, size: 0x8, addend: 0x0, symName: __ZNSt3__117__compressed_pairImNS_22__unordered_map_hasherINS_12basic_stringIcNS_11char_traitsIcEENS_9allocatorIcEEEENS_17__hash_value_typeIS7_dEENS_4hashIS7_EENS_8equal_toIS7_EELb1EEEEC1B8ue170006IiNS_18__default_init_tagEEEOT_OT0_, symObjAddr: 0x19D0, symBinAddr: 0x10000C1F0, symSize: 0x30 }
  - { offsetInCU: 0x1B207, offset: 0x4AE18, size: 0x8, addend: 0x0, symName: __ZNSt3__117__compressed_pairIfNS_21__unordered_map_equalINS_12basic_stringIcNS_11char_traitsIcEENS_9allocatorIcEEEENS_17__hash_value_typeIS7_dEENS_8equal_toIS7_EENS_4hashIS7_EELb1EEEEC1B8ue170006IfNS_18__default_init_tagEEEOT_OT0_, symObjAddr: 0x1A00, symBinAddr: 0x10000C220, symSize: 0x30 }
  - { offsetInCU: 0x1B25D, offset: 0x4AE6E, size: 0x8, addend: 0x0, symName: __ZNSt3__110unique_ptrIA_PNS_16__hash_node_baseIPNS_11__hash_nodeINS_17__hash_value_typeINS_12basic_stringIcNS_11char_traitsIcEENS_9allocatorIcEEEEdEEPvEEEENS_25__bucket_list_deallocatorINS7_ISF_EEEEEC2B8ue170006ILb1EvEEv, symObjAddr: 0x1A30, symBinAddr: 0x10000C250, symSize: 0x30 }
  - { offsetInCU: 0x1B290, offset: 0x4AEA1, size: 0x8, addend: 0x0, symName: __ZNSt3__117__compressed_pairIPPNS_16__hash_node_baseIPNS_11__hash_nodeINS_17__hash_value_typeINS_12basic_stringIcNS_11char_traitsIcEENS_9allocatorIcEEEEdEEPvEEEENS_25__bucket_list_deallocatorINS7_ISF_EEEEEC1B8ue170006INS_16__value_init_tagESM_EEOT_OT0_, symObjAddr: 0x1A60, symBinAddr: 0x10000C280, symSize: 0x30 }
  - { offsetInCU: 0x1B2E6, offset: 0x4AEF7, size: 0x8, addend: 0x0, symName: __ZNSt3__117__compressed_pairIPPNS_16__hash_node_baseIPNS_11__hash_nodeINS_17__hash_value_typeINS_12basic_stringIcNS_11char_traitsIcEENS_9allocatorIcEEEEdEEPvEEEENS_25__bucket_list_deallocatorINS7_ISF_EEEEEC2B8ue170006INS_16__value_init_tagESM_EEOT_OT0_, symObjAddr: 0x1A90, symBinAddr: 0x10000C2B0, symSize: 0x40 }
  - { offsetInCU: 0x1B33C, offset: 0x4AF4D, size: 0x8, addend: 0x0, symName: __ZNSt3__122__compressed_pair_elemIPPNS_16__hash_node_baseIPNS_11__hash_nodeINS_17__hash_value_typeINS_12basic_stringIcNS_11char_traitsIcEENS_9allocatorIcEEEEdEEPvEEEELi0ELb0EEC2B8ue170006ENS_16__value_init_tagE, symObjAddr: 0x1AD0, symBinAddr: 0x10000C2F0, symSize: 0x20 }
  - { offsetInCU: 0x1B36E, offset: 0x4AF7F, size: 0x8, addend: 0x0, symName: __ZNSt3__122__compressed_pair_elemINS_25__bucket_list_deallocatorINS_9allocatorIPNS_16__hash_node_baseIPNS_11__hash_nodeINS_17__hash_value_typeINS_12basic_stringIcNS_11char_traitsIcEENS2_IcEEEEdEEPvEEEEEEEELi1ELb0EEC2B8ue170006ENS_16__value_init_tagE, symObjAddr: 0x1AF0, symBinAddr: 0x10000C310, symSize: 0x20 }
  - { offsetInCU: 0x1B3A0, offset: 0x4AFB1, size: 0x8, addend: 0x0, symName: __ZNSt3__125__bucket_list_deallocatorINS_9allocatorIPNS_16__hash_node_baseIPNS_11__hash_nodeINS_17__hash_value_typeINS_12basic_stringIcNS_11char_traitsIcEENS1_IcEEEEdEEPvEEEEEEEC1B8ue170006Ev, symObjAddr: 0x1B10, symBinAddr: 0x10000C330, symSize: 0x20 }
  - { offsetInCU: 0x1B3C8, offset: 0x4AFD9, size: 0x8, addend: 0x0, symName: __ZNSt3__125__bucket_list_deallocatorINS_9allocatorIPNS_16__hash_node_baseIPNS_11__hash_nodeINS_17__hash_value_typeINS_12basic_stringIcNS_11char_traitsIcEENS1_IcEEEEdEEPvEEEEEEEC2B8ue170006Ev, symObjAddr: 0x1B30, symBinAddr: 0x10000C350, symSize: 0x40 }
  - { offsetInCU: 0x1B3F0, offset: 0x4B001, size: 0x8, addend: 0x0, symName: __ZNSt3__117__compressed_pairImNS_9allocatorIPNS_16__hash_node_baseIPNS_11__hash_nodeINS_17__hash_value_typeINS_12basic_stringIcNS_11char_traitsIcEENS1_IcEEEEdEEPvEEEEEEEC1B8ue170006IiNS_18__default_init_tagEEEOT_OT0_, symObjAddr: 0x1B70, symBinAddr: 0x10000C390, symSize: 0x30 }
  - { offsetInCU: 0x1B446, offset: 0x4B057, size: 0x8, addend: 0x0, symName: __ZNSt3__117__compressed_pairImNS_9allocatorIPNS_16__hash_node_baseIPNS_11__hash_nodeINS_17__hash_value_typeINS_12basic_stringIcNS_11char_traitsIcEENS1_IcEEEEdEEPvEEEEEEEC2B8ue170006IiNS_18__default_init_tagEEEOT_OT0_, symObjAddr: 0x1BA0, symBinAddr: 0x10000C3C0, symSize: 0x40 }
  - { offsetInCU: 0x1B49C, offset: 0x4B0AD, size: 0x8, addend: 0x0, symName: __ZNSt3__122__compressed_pair_elemINS_9allocatorIPNS_16__hash_node_baseIPNS_11__hash_nodeINS_17__hash_value_typeINS_12basic_stringIcNS_11char_traitsIcEENS1_IcEEEEdEEPvEEEEEELi1ELb1EEC2B8ue170006ENS_18__default_init_tagE, symObjAddr: 0x1BE0, symBinAddr: 0x10000C400, symSize: 0x20 }
  - { offsetInCU: 0x1B4CE, offset: 0x4B0DF, size: 0x8, addend: 0x0, symName: __ZNSt3__19allocatorIPNS_16__hash_node_baseIPNS_11__hash_nodeINS_17__hash_value_typeINS_12basic_stringIcNS_11char_traitsIcEENS0_IcEEEEdEEPvEEEEEC2B8ue170006Ev, symObjAddr: 0x1C00, symBinAddr: 0x10000C420, symSize: 0x20 }
  - { offsetInCU: 0x1B4F6, offset: 0x4B107, size: 0x8, addend: 0x0, symName: __ZNSt3__116__non_trivial_ifILb1ENS_9allocatorIPNS_16__hash_node_baseIPNS_11__hash_nodeINS_17__hash_value_typeINS_12basic_stringIcNS_11char_traitsIcEENS1_IcEEEEdEEPvEEEEEEEC2B8ue170006Ev, symObjAddr: 0x1C20, symBinAddr: 0x10000C440, symSize: 0x10 }
  - { offsetInCU: 0x1B51E, offset: 0x4B12F, size: 0x8, addend: 0x0, symName: __ZNSt3__117__compressed_pairINS_16__hash_node_baseIPNS_11__hash_nodeINS_17__hash_value_typeINS_12basic_stringIcNS_11char_traitsIcEENS_9allocatorIcEEEEdEEPvEEEENS7_ISC_EEEC2B8ue170006ILb1EvEEv, symObjAddr: 0x1C30, symBinAddr: 0x10000C450, symSize: 0x30 }
  - { offsetInCU: 0x1B551, offset: 0x4B162, size: 0x8, addend: 0x0, symName: __ZNSt3__122__compressed_pair_elemINS_16__hash_node_baseIPNS_11__hash_nodeINS_17__hash_value_typeINS_12basic_stringIcNS_11char_traitsIcEENS_9allocatorIcEEEEdEEPvEEEELi0ELb0EEC2B8ue170006ENS_16__value_init_tagE, symObjAddr: 0x1C60, symBinAddr: 0x10000C480, symSize: 0x20 }
  - { offsetInCU: 0x1B583, offset: 0x4B194, size: 0x8, addend: 0x0, symName: __ZNSt3__122__compressed_pair_elemINS_9allocatorINS_11__hash_nodeINS_17__hash_value_typeINS_12basic_stringIcNS_11char_traitsIcEENS1_IcEEEEdEEPvEEEELi1ELb1EEC2B8ue170006ENS_16__value_init_tagE, symObjAddr: 0x1C80, symBinAddr: 0x10000C4A0, symSize: 0x20 }
  - { offsetInCU: 0x1B5B5, offset: 0x4B1C6, size: 0x8, addend: 0x0, symName: __ZNSt3__116__hash_node_baseIPNS_11__hash_nodeINS_17__hash_value_typeINS_12basic_stringIcNS_11char_traitsIcEENS_9allocatorIcEEEEdEEPvEEEC1B8ue170006Ev, symObjAddr: 0x1CA0, symBinAddr: 0x10000C4C0, symSize: 0x20 }
  - { offsetInCU: 0x1B5DD, offset: 0x4B1EE, size: 0x8, addend: 0x0, symName: __ZNSt3__116__hash_node_baseIPNS_11__hash_nodeINS_17__hash_value_typeINS_12basic_stringIcNS_11char_traitsIcEENS_9allocatorIcEEEEdEEPvEEEC2B8ue170006Ev, symObjAddr: 0x1CC0, symBinAddr: 0x10000C4E0, symSize: 0x20 }
  - { offsetInCU: 0x1B605, offset: 0x4B216, size: 0x8, addend: 0x0, symName: __ZNSt3__19allocatorINS_11__hash_nodeINS_17__hash_value_typeINS_12basic_stringIcNS_11char_traitsIcEENS0_IcEEEEdEEPvEEEC2B8ue170006Ev, symObjAddr: 0x1CE0, symBinAddr: 0x10000C500, symSize: 0x20 }
  - { offsetInCU: 0x1B62D, offset: 0x4B23E, size: 0x8, addend: 0x0, symName: __ZNSt3__116__non_trivial_ifILb1ENS_9allocatorINS_11__hash_nodeINS_17__hash_value_typeINS_12basic_stringIcNS_11char_traitsIcEENS1_IcEEEEdEEPvEEEEEC2B8ue170006Ev, symObjAddr: 0x1D00, symBinAddr: 0x10000C520, symSize: 0x10 }
  - { offsetInCU: 0x1B655, offset: 0x4B266, size: 0x8, addend: 0x0, symName: __ZNSt3__117__compressed_pairImNS_22__unordered_map_hasherINS_12basic_stringIcNS_11char_traitsIcEENS_9allocatorIcEEEENS_17__hash_value_typeIS7_dEENS_4hashIS7_EENS_8equal_toIS7_EELb1EEEEC2B8ue170006IiNS_18__default_init_tagEEEOT_OT0_, symObjAddr: 0x1D10, symBinAddr: 0x10000C530, symSize: 0x40 }
  - { offsetInCU: 0x1B6AB, offset: 0x4B2BC, size: 0x8, addend: 0x0, symName: __ZNSt3__122__compressed_pair_elemINS_22__unordered_map_hasherINS_12basic_stringIcNS_11char_traitsIcEENS_9allocatorIcEEEENS_17__hash_value_typeIS7_dEENS_4hashIS7_EENS_8equal_toIS7_EELb1EEELi1ELb1EEC2B8ue170006ENS_18__default_init_tagE, symObjAddr: 0x1D50, symBinAddr: 0x10000C570, symSize: 0x20 }
  - { offsetInCU: 0x1B6DD, offset: 0x4B2EE, size: 0x8, addend: 0x0, symName: __ZNSt3__122__unordered_map_hasherINS_12basic_stringIcNS_11char_traitsIcEENS_9allocatorIcEEEENS_17__hash_value_typeIS6_dEENS_4hashIS6_EENS_8equal_toIS6_EELb1EEC2B8ue170006Ev, symObjAddr: 0x1D70, symBinAddr: 0x10000C590, symSize: 0x10 }
  - { offsetInCU: 0x1B705, offset: 0x4B316, size: 0x8, addend: 0x0, symName: __ZNSt3__117__compressed_pairIfNS_21__unordered_map_equalINS_12basic_stringIcNS_11char_traitsIcEENS_9allocatorIcEEEENS_17__hash_value_typeIS7_dEENS_8equal_toIS7_EENS_4hashIS7_EELb1EEEEC2B8ue170006IfNS_18__default_init_tagEEEOT_OT0_, symObjAddr: 0x1D80, symBinAddr: 0x10000C5A0, symSize: 0x40 }
  - { offsetInCU: 0x1B75B, offset: 0x4B36C, size: 0x8, addend: 0x0, symName: __ZNSt3__122__compressed_pair_elemINS_21__unordered_map_equalINS_12basic_stringIcNS_11char_traitsIcEENS_9allocatorIcEEEENS_17__hash_value_typeIS7_dEENS_8equal_toIS7_EENS_4hashIS7_EELb1EEELi1ELb1EEC2B8ue170006ENS_18__default_init_tagE, symObjAddr: 0x1DC0, symBinAddr: 0x10000C5E0, symSize: 0x20 }
  - { offsetInCU: 0x1B78D, offset: 0x4B39E, size: 0x8, addend: 0x0, symName: __ZNSt3__121__unordered_map_equalINS_12basic_stringIcNS_11char_traitsIcEENS_9allocatorIcEEEENS_17__hash_value_typeIS6_dEENS_8equal_toIS6_EENS_4hashIS6_EELb1EEC2B8ue170006Ev, symObjAddr: 0x1DE0, symBinAddr: 0x10000C600, symSize: 0x10 }
  - { offsetInCU: 0x1B7B5, offset: 0x4B3C6, size: 0x8, addend: 0x0, symName: __ZN4DateC2Eiii, symObjAddr: 0x1DF0, symBinAddr: 0x10000C610, symSize: 0x30 }
  - { offsetInCU: 0x1B807, offset: 0x4B418, size: 0x8, addend: 0x0, symName: __ZN4BondC2E4DateS0_dd, symObjAddr: 0x1E20, symBinAddr: 0x10000C640, symSize: 0x160 }
  - { offsetInCU: 0x1B86F, offset: 0x4B480, size: 0x8, addend: 0x0, symName: __ZNSt3__112basic_stringIcNS_11char_traitsIcEENS_9allocatorIcEEEC1B8ue170006ILi0EEEPKc, symObjAddr: 0x1F80, symBinAddr: 0x10000C7A0, symSize: 0x30 }
  - { offsetInCU: 0x1B8AD, offset: 0x4B4BE, size: 0x8, addend: 0x0, symName: __ZN5TradeC2ERKNSt3__112basic_stringIcNS0_11char_traitsIcEENS0_9allocatorIcEEEE4Date, symObjAddr: 0x1FB0, symBinAddr: 0x10000C7D0, symSize: 0x60 }
  - { offsetInCU: 0x1B8F1, offset: 0x4B502, size: 0x8, addend: 0x0, symName: __ZN5TradeD2Ev, symObjAddr: 0x2010, symBinAddr: 0x10000C830, symSize: 0x30 }
  - { offsetInCU: 0x1B919, offset: 0x4B52A, size: 0x8, addend: 0x0, symName: __ZNK4Bond6PayoffEd, symObjAddr: 0x2040, symBinAddr: 0x10000C860, symSize: 0x20 }
  - { offsetInCU: 0x1B94B, offset: 0x4B55C, size: 0x8, addend: 0x0, symName: __ZN4BondD1Ev, symObjAddr: 0x2060, symBinAddr: 0x10000C880, symSize: 0x20 }
  - { offsetInCU: 0x1B976, offset: 0x4B587, size: 0x8, addend: 0x0, symName: __ZN4BondD0Ev, symObjAddr: 0x2080, symBinAddr: 0x10000C8A0, symSize: 0x30 }
  - { offsetInCU: 0x1B9A1, offset: 0x4B5B2, size: 0x8, addend: 0x0, symName: __ZNSt3__112basic_stringIcNS_11char_traitsIcEENS_9allocatorIcEEEC2B8ue170006ILi0EEEPKc, symObjAddr: 0x20B0, symBinAddr: 0x10000C8D0, symSize: 0x50 }
  - { offsetInCU: 0x1B9DF, offset: 0x4B5F0, size: 0x8, addend: 0x0, symName: __ZN5TradeD1Ev, symObjAddr: 0x2210, symBinAddr: 0x10000C920, symSize: 0x10 }
  - { offsetInCU: 0x1BA07, offset: 0x4B618, size: 0x8, addend: 0x0, symName: __ZN5TradeD0Ev, symObjAddr: 0x2220, symBinAddr: 0x10000C930, symSize: 0x10 }
  - { offsetInCU: 0x1BA2F, offset: 0x4B640, size: 0x8, addend: 0x0, symName: __ZN4BondD2Ev, symObjAddr: 0x2230, symBinAddr: 0x10000C940, symSize: 0x20 }
  - { offsetInCU: 0x1BA5A, offset: 0x4B66B, size: 0x8, addend: 0x0, symName: __ZN21CRRBinomialTreePricerC2Ei, symObjAddr: 0x2250, symBinAddr: 0x10000C960, symSize: 0x40 }
  - { offsetInCU: 0x1BA90, offset: 0x4B6A1, size: 0x8, addend: 0x0, symName: __ZN18BinomialTreePricerC2Ei, symObjAddr: 0x2290, symBinAddr: 0x10000C9A0, symSize: 0x80 }
  - { offsetInCU: 0x1BAC6, offset: 0x4B6D7, size: 0x8, addend: 0x0, symName: __ZN6PricerC2Ev, symObjAddr: 0x2310, symBinAddr: 0x10000CA20, symSize: 0x20 }
  - { offsetInCU: 0x1BAF1, offset: 0x4B702, size: 0x8, addend: 0x0, symName: __ZNSt3__16vectorIdNS_9allocatorIdEEEC1B8ue170006Ev, symObjAddr: 0x2330, symBinAddr: 0x10000CA40, symSize: 0x20 }
  - { offsetInCU: 0x1BB19, offset: 0x4B72A, size: 0x8, addend: 0x0, symName: __ZNSt3__16vectorIdNS_9allocatorIdEEE6resizeEm, symObjAddr: 0x2350, symBinAddr: 0x10000CA60, symSize: 0x80 }
  - { offsetInCU: 0x1BB5D, offset: 0x4B76E, size: 0x8, addend: 0x0, symName: __ZNSt3__16vectorIdNS_9allocatorIdEEEC2B8ue170006Ev, symObjAddr: 0x23F0, symBinAddr: 0x10000CAE0, symSize: 0x50 }
  - { offsetInCU: 0x1BB8A, offset: 0x4B79B, size: 0x8, addend: 0x0, symName: __ZNSt3__117__compressed_pairIPdNS_9allocatorIdEEEC1B8ue170006IDnNS_18__default_init_tagEEEOT_OT0_, symObjAddr: 0x2440, symBinAddr: 0x10000CB30, symSize: 0x30 }
  - { offsetInCU: 0x1BBE0, offset: 0x4B7F1, size: 0x8, addend: 0x0, symName: __ZNSt3__117__compressed_pairIPdNS_9allocatorIdEEEC2B8ue170006IDnNS_18__default_init_tagEEEOT_OT0_, symObjAddr: 0x2470, symBinAddr: 0x10000CB60, symSize: 0x40 }
  - { offsetInCU: 0x1BC36, offset: 0x4B847, size: 0x8, addend: 0x0, symName: __ZNSt3__122__compressed_pair_elemINS_9allocatorIdEELi1ELb1EEC2B8ue170006ENS_18__default_init_tagE, symObjAddr: 0x24D0, symBinAddr: 0x10000CBA0, symSize: 0x20 }
  - { offsetInCU: 0x1BC68, offset: 0x4B879, size: 0x8, addend: 0x0, symName: __ZNSt3__19allocatorIdEC2B8ue170006Ev, symObjAddr: 0x24F0, symBinAddr: 0x10000CBC0, symSize: 0x20 }
  - { offsetInCU: 0x1BC90, offset: 0x4B8A1, size: 0x8, addend: 0x0, symName: __ZNSt3__116__non_trivial_ifILb1ENS_9allocatorIdEEEC2B8ue170006Ev, symObjAddr: 0x2510, symBinAddr: 0x10000CBE0, symSize: 0x10 }
  - { offsetInCU: 0x1BCB8, offset: 0x4B8C9, size: 0x8, addend: 0x0, symName: __ZNSt3__16vectorIdNS_9allocatorIdEEE8__appendEm, symObjAddr: 0x2540, symBinAddr: 0x10000CBF0, symSize: 0x100 }
  - { offsetInCU: 0x1BD11, offset: 0x4B922, size: 0x8, addend: 0x0, symName: __ZNSt3__16vectorIdNS_9allocatorIdEEE17__destruct_at_endB8ue170006EPd, symObjAddr: 0x2640, symBinAddr: 0x10000CCF0, symSize: 0x50 }
  - { offsetInCU: 0x1BD53, offset: 0x4B964, size: 0x8, addend: 0x0, symName: __ZNSt3__16vectorIdNS_9allocatorIdEEE18__construct_at_endEm, symObjAddr: 0x26B0, symBinAddr: 0x10000CD40, symSize: 0xC0 }
  - { offsetInCU: 0x1BDC4, offset: 0x4B9D5, size: 0x8, addend: 0x0, symName: __ZNSt3__114__split_bufferIdRNS_9allocatorIdEEE18__construct_at_endEm, symObjAddr: 0x2870, symBinAddr: 0x10000CE00, symSize: 0xB0 }
  - { offsetInCU: 0x1BE20, offset: 0x4BA31, size: 0x8, addend: 0x0, symName: __ZNSt3__116allocator_traitsINS_9allocatorIdEEE9constructB8ue170006IdJEvEEvRS2_PT_DpOT0_, symObjAddr: 0x2AC0, symBinAddr: 0x10000CEB0, symSize: 0x30 }
  - { offsetInCU: 0x1BE62, offset: 0x4BA73, size: 0x8, addend: 0x0, symName: __ZNSt3__19allocatorIdE9constructB8ue170006IdJEEEvPT_DpOT0_, symObjAddr: 0x2B60, symBinAddr: 0x10000CEE0, symSize: 0x20 }
  - { offsetInCU: 0x1BEB7, offset: 0x4BAC8, size: 0x8, addend: 0x0, symName: __ZNSt3__114__split_bufferIdRNS_9allocatorIdEEE21_ConstructTransactionC1B8ue170006EPPdm, symObjAddr: 0x3330, symBinAddr: 0x10000CF00, symSize: 0x30 }
  - { offsetInCU: 0x1BEFB, offset: 0x4BB0C, size: 0x8, addend: 0x0, symName: __ZNSt3__114__split_bufferIdRNS_9allocatorIdEEE21_ConstructTransactionD1B8ue170006Ev, symObjAddr: 0x3360, symBinAddr: 0x10000CF30, symSize: 0x20 }
  - { offsetInCU: 0x1BF23, offset: 0x4BB34, size: 0x8, addend: 0x0, symName: __ZNSt3__114__split_bufferIdRNS_9allocatorIdEEE21_ConstructTransactionC2B8ue170006EPPdm, symObjAddr: 0x3380, symBinAddr: 0x10000CF50, symSize: 0x40 }
  - { offsetInCU: 0x1BF67, offset: 0x4BB78, size: 0x8, addend: 0x0, symName: __ZNSt3__114__split_bufferIdRNS_9allocatorIdEEE21_ConstructTransactionD2B8ue170006Ev, symObjAddr: 0x33C0, symBinAddr: 0x10000CF90, symSize: 0x20 }
  - { offsetInCU: 0x1BF99, offset: 0x4BBAA, size: 0x8, addend: 0x0, symName: __ZNKSt3__16vectorIdNS_9allocatorIdEEE17__annotate_shrinkB8ue170006Em, symObjAddr: 0x4230, symBinAddr: 0x10000CFB0, symSize: 0xA0 }
  - { offsetInCU: 0x1BFCC, offset: 0x4BBDD, size: 0x8, addend: 0x0, symName: __ZNKSt3__111__wrap_iterIPP5TradeE4baseB8ue170006Ev, symObjAddr: 0x4440, symBinAddr: 0x10000D090, symSize: 0x20 }
  - { offsetInCU: 0x1BFF0, offset: 0x4BC01, size: 0x8, addend: 0x0, symName: __ZN6MarketD2Ev, symObjAddr: 0x4460, symBinAddr: 0x10000D0B0, symSize: 0x50 }
  - { offsetInCU: 0x1C01B, offset: 0x4BC2C, size: 0x8, addend: 0x0, symName: __ZNSt3__113unordered_mapINS_12basic_stringIcNS_11char_traitsIcEENS_9allocatorIcEEEEdNS_4hashIS6_EENS_8equal_toIS6_EENS4_INS_4pairIKS6_dEEEEED1B8ue170006Ev, symObjAddr: 0x44B0, symBinAddr: 0x10000D100, symSize: 0x20 }
  - { offsetInCU: 0x1C043, offset: 0x4BC54, size: 0x8, addend: 0x0, symName: __ZNSt3__113unordered_mapINS_12basic_stringIcNS_11char_traitsIcEENS_9allocatorIcEEEE9RateCurveNS_4hashIS6_EENS_8equal_toIS6_EENS4_INS_4pairIKS6_S7_EEEEED1B8ue170006Ev, symObjAddr: 0x44D0, symBinAddr: 0x10000D120, symSize: 0x20 }
  - { offsetInCU: 0x1C06B, offset: 0x4BC7C, size: 0x8, addend: 0x0, symName: __ZNSt3__113unordered_mapINS_12basic_stringIcNS_11char_traitsIcEENS_9allocatorIcEEEE8VolCurveNS_4hashIS6_EENS_8equal_toIS6_EENS4_INS_4pairIKS6_S7_EEEEED1B8ue170006Ev, symObjAddr: 0x44F0, symBinAddr: 0x10000D140, symSize: 0x20 }
  - { offsetInCU: 0x1C093, offset: 0x4BCA4, size: 0x8, addend: 0x0, symName: __ZNSt3__113unordered_mapINS_12basic_stringIcNS_11char_traitsIcEENS_9allocatorIcEEEEdNS_4hashIS6_EENS_8equal_toIS6_EENS4_INS_4pairIKS6_dEEEEED2B8ue170006Ev, symObjAddr: 0x4510, symBinAddr: 0x10000D160, symSize: 0x20 }
  - { offsetInCU: 0x1C0BB, offset: 0x4BCCC, size: 0x8, addend: 0x0, symName: __ZNSt3__112__hash_tableINS_17__hash_value_typeINS_12basic_stringIcNS_11char_traitsIcEENS_9allocatorIcEEEEdEENS_22__unordered_map_hasherIS7_S8_NS_4hashIS7_EENS_8equal_toIS7_EELb1EEENS_21__unordered_map_equalIS7_S8_SD_SB_Lb1EEENS5_IS8_EEED1Ev, symObjAddr: 0x4530, symBinAddr: 0x10000D180, symSize: 0x20 }
  - { offsetInCU: 0x1C0E6, offset: 0x4BCF7, size: 0x8, addend: 0x0, symName: __ZNSt3__112__hash_tableINS_17__hash_value_typeINS_12basic_stringIcNS_11char_traitsIcEENS_9allocatorIcEEEEdEENS_22__unordered_map_hasherIS7_S8_NS_4hashIS7_EENS_8equal_toIS7_EELb1EEENS_21__unordered_map_equalIS7_S8_SD_SB_Lb1EEENS5_IS8_EEED2Ev, symObjAddr: 0x4550, symBinAddr: 0x10000D1A0, symSize: 0x40 }
  - { offsetInCU: 0x1C111, offset: 0x4BD22, size: 0x8, addend: 0x0, symName: __ZNSt3__112__hash_tableINS_17__hash_value_typeINS_12basic_stringIcNS_11char_traitsIcEENS_9allocatorIcEEEEdEENS_22__unordered_map_hasherIS7_S8_NS_4hashIS7_EENS_8equal_toIS7_EELb1EEENS_21__unordered_map_equalIS7_S8_SD_SB_Lb1EEENS5_IS8_EEE17__deallocate_nodeEPNS_16__hash_node_baseIPNS_11__hash_nodeIS8_PvEEEE, symObjAddr: 0x4590, symBinAddr: 0x10000D1E0, symSize: 0xA0 }
  - { offsetInCU: 0x1C179, offset: 0x4BD8A, size: 0x8, addend: 0x0, symName: __ZNSt3__117__compressed_pairINS_16__hash_node_baseIPNS_11__hash_nodeINS_17__hash_value_typeINS_12basic_stringIcNS_11char_traitsIcEENS_9allocatorIcEEEEdEEPvEEEENS7_ISC_EEE5firstB8ue170006Ev, symObjAddr: 0x4630, symBinAddr: 0x10000D280, symSize: 0x20 }
  - { offsetInCU: 0x1C19D, offset: 0x4BDAE, size: 0x8, addend: 0x0, symName: __ZNSt3__110unique_ptrIA_PNS_16__hash_node_baseIPNS_11__hash_nodeINS_17__hash_value_typeINS_12basic_stringIcNS_11char_traitsIcEENS_9allocatorIcEEEEdEEPvEEEENS_25__bucket_list_deallocatorINS7_ISF_EEEEED1B8ue170006Ev, symObjAddr: 0x4650, symBinAddr: 0x10000D2A0, symSize: 0x20 }
  - { offsetInCU: 0x1C1C5, offset: 0x4BDD6, size: 0x8, addend: 0x0, symName: __ZNSt3__112__hash_tableINS_17__hash_value_typeINS_12basic_stringIcNS_11char_traitsIcEENS_9allocatorIcEEEEdEENS_22__unordered_map_hasherIS7_S8_NS_4hashIS7_EENS_8equal_toIS7_EELb1EEENS_21__unordered_map_equalIS7_S8_SD_SB_Lb1EEENS5_IS8_EEE12__node_allocB8ue170006Ev, symObjAddr: 0x4670, symBinAddr: 0x10000D2C0, symSize: 0x20 }
  - { offsetInCU: 0x1C1E9, offset: 0x4BDFA, size: 0x8, addend: 0x0, symName: __ZNSt3__116__hash_node_baseIPNS_11__hash_nodeINS_17__hash_value_typeINS_12basic_stringIcNS_11char_traitsIcEENS_9allocatorIcEEEEdEEPvEEE8__upcastB8ue170006Ev, symObjAddr: 0x4690, symBinAddr: 0x10000D2E0, symSize: 0x20 }
  - { offsetInCU: 0x1C212, offset: 0x4BE23, size: 0x8, addend: 0x0, symName: __ZNSt3__116allocator_traitsINS_9allocatorINS_11__hash_nodeINS_17__hash_value_typeINS_12basic_stringIcNS_11char_traitsIcEENS1_IcEEEEdEEPvEEEEE7destroyB8ue170006INS_4pairIKS8_dEEvvEEvRSC_PT_, symObjAddr: 0x46B0, symBinAddr: 0x10000D300, symSize: 0x20 }
  - { offsetInCU: 0x1C24C, offset: 0x4BE5D, size: 0x8, addend: 0x0, symName: __ZNSt3__122__hash_key_value_typesINS_17__hash_value_typeINS_12basic_stringIcNS_11char_traitsIcEENS_9allocatorIcEEEEdEEE9__get_ptrB8ue170006ERS8_, symObjAddr: 0x46D0, symBinAddr: 0x10000D320, symSize: 0x20 }
  - { offsetInCU: 0x1C26E, offset: 0x4BE7F, size: 0x8, addend: 0x0, symName: __ZNSt3__116allocator_traitsINS_9allocatorINS_11__hash_nodeINS_17__hash_value_typeINS_12basic_stringIcNS_11char_traitsIcEENS1_IcEEEEdEEPvEEEEE10deallocateB8ue170006ERSC_PSB_m, symObjAddr: 0x46F0, symBinAddr: 0x10000D340, symSize: 0x30 }
  - { offsetInCU: 0x1C2AF, offset: 0x4BEC0, size: 0x8, addend: 0x0, symName: __ZNSt3__117__compressed_pairINS_16__hash_node_baseIPNS_11__hash_nodeINS_17__hash_value_typeINS_12basic_stringIcNS_11char_traitsIcEENS_9allocatorIcEEEEdEEPvEEEENS7_ISC_EEE6secondB8ue170006Ev, symObjAddr: 0x4720, symBinAddr: 0x10000D370, symSize: 0x20 }
  - { offsetInCU: 0x1C2D3, offset: 0x4BEE4, size: 0x8, addend: 0x0, symName: __ZNSt3__122__compressed_pair_elemINS_9allocatorINS_11__hash_nodeINS_17__hash_value_typeINS_12basic_stringIcNS_11char_traitsIcEENS1_IcEEEEdEEPvEEEELi1ELb1EE5__getB8ue170006Ev, symObjAddr: 0x4740, symBinAddr: 0x10000D390, symSize: 0x10 }
  - { offsetInCU: 0x1C2F7, offset: 0x4BF08, size: 0x8, addend: 0x0, symName: __ZNSt3__114pointer_traitsIPNS_16__hash_node_baseIPNS_11__hash_nodeINS_17__hash_value_typeINS_12basic_stringIcNS_11char_traitsIcEENS_9allocatorIcEEEEdEEPvEEEEE10pointer_toB8ue170006ERSE_, symObjAddr: 0x4750, symBinAddr: 0x10000D3A0, symSize: 0x10 }
  - { offsetInCU: 0x1C319, offset: 0x4BF2A, size: 0x8, addend: 0x0, symName: __ZNSt3__14pairIKNS_12basic_stringIcNS_11char_traitsIcEENS_9allocatorIcEEEEdED1Ev, symObjAddr: 0x4760, symBinAddr: 0x10000D3B0, symSize: 0x20 }
  - { offsetInCU: 0x1C344, offset: 0x4BF55, size: 0x8, addend: 0x0, symName: __ZNSt3__14pairIKNS_12basic_stringIcNS_11char_traitsIcEENS_9allocatorIcEEEEdED2Ev, symObjAddr: 0x4780, symBinAddr: 0x10000D3D0, symSize: 0x20 }
  - { offsetInCU: 0x1C36F, offset: 0x4BF80, size: 0x8, addend: 0x0, symName: __ZNSt3__117__hash_value_typeINS_12basic_stringIcNS_11char_traitsIcEENS_9allocatorIcEEEEdE11__get_valueB8ue170006Ev, symObjAddr: 0x47A0, symBinAddr: 0x10000D3F0, symSize: 0x20 }
  - { offsetInCU: 0x1C393, offset: 0x4BFA4, size: 0x8, addend: 0x0, symName: __ZNSt3__19allocatorINS_11__hash_nodeINS_17__hash_value_typeINS_12basic_stringIcNS_11char_traitsIcEENS0_IcEEEEdEEPvEEE10deallocateB8ue170006EPSA_m, symObjAddr: 0x47F0, symBinAddr: 0x10000D440, symSize: 0x50 }
  - { offsetInCU: 0x1C3D3, offset: 0x4BFE4, size: 0x8, addend: 0x0, symName: __ZNSt3__122__compressed_pair_elemINS_16__hash_node_baseIPNS_11__hash_nodeINS_17__hash_value_typeINS_12basic_stringIcNS_11char_traitsIcEENS_9allocatorIcEEEEdEEPvEEEELi0ELb0EE5__getB8ue170006Ev, symObjAddr: 0x4840, symBinAddr: 0x10000D490, symSize: 0x10 }
  - { offsetInCU: 0x1C3F7, offset: 0x4C008, size: 0x8, addend: 0x0, symName: __ZNSt3__110unique_ptrIA_PNS_16__hash_node_baseIPNS_11__hash_nodeINS_17__hash_value_typeINS_12basic_stringIcNS_11char_traitsIcEENS_9allocatorIcEEEEdEEPvEEEENS_25__bucket_list_deallocatorINS7_ISF_EEEEED2B8ue170006Ev, symObjAddr: 0x4850, symBinAddr: 0x10000D4A0, symSize: 0x20 }
  - { offsetInCU: 0x1C41F, offset: 0x4C030, size: 0x8, addend: 0x0, symName: __ZNSt3__110unique_ptrIA_PNS_16__hash_node_baseIPNS_11__hash_nodeINS_17__hash_value_typeINS_12basic_stringIcNS_11char_traitsIcEENS_9allocatorIcEEEEdEEPvEEEENS_25__bucket_list_deallocatorINS7_ISF_EEEEE5resetB8ue170006EDn, symObjAddr: 0x4870, symBinAddr: 0x10000D4C0, symSize: 0x60 }
  - { offsetInCU: 0x1C45E, offset: 0x4C06F, size: 0x8, addend: 0x0, symName: __ZNSt3__117__compressed_pairIPPNS_16__hash_node_baseIPNS_11__hash_nodeINS_17__hash_value_typeINS_12basic_stringIcNS_11char_traitsIcEENS_9allocatorIcEEEEdEEPvEEEENS_25__bucket_list_deallocatorINS7_ISF_EEEEE5firstB8ue170006Ev, symObjAddr: 0x48D0, symBinAddr: 0x10000D520, symSize: 0x20 }
  - { offsetInCU: 0x1C482, offset: 0x4C093, size: 0x8, addend: 0x0, symName: __ZNSt3__117__compressed_pairIPPNS_16__hash_node_baseIPNS_11__hash_nodeINS_17__hash_value_typeINS_12basic_stringIcNS_11char_traitsIcEENS_9allocatorIcEEEEdEEPvEEEENS_25__bucket_list_deallocatorINS7_ISF_EEEEE6secondB8ue170006Ev, symObjAddr: 0x48F0, symBinAddr: 0x10000D540, symSize: 0x20 }
  - { offsetInCU: 0x1C4A6, offset: 0x4C0B7, size: 0x8, addend: 0x0, symName: __ZNSt3__125__bucket_list_deallocatorINS_9allocatorIPNS_16__hash_node_baseIPNS_11__hash_nodeINS_17__hash_value_typeINS_12basic_stringIcNS_11char_traitsIcEENS1_IcEEEEdEEPvEEEEEEEclB8ue170006EPSF_, symObjAddr: 0x4910, symBinAddr: 0x10000D560, symSize: 0x50 }
  - { offsetInCU: 0x1C4D9, offset: 0x4C0EA, size: 0x8, addend: 0x0, symName: __ZNSt3__122__compressed_pair_elemIPPNS_16__hash_node_baseIPNS_11__hash_nodeINS_17__hash_value_typeINS_12basic_stringIcNS_11char_traitsIcEENS_9allocatorIcEEEEdEEPvEEEELi0ELb0EE5__getB8ue170006Ev, symObjAddr: 0x4960, symBinAddr: 0x10000D5B0, symSize: 0x10 }
  - { offsetInCU: 0x1C4FD, offset: 0x4C10E, size: 0x8, addend: 0x0, symName: __ZNSt3__122__compressed_pair_elemINS_25__bucket_list_deallocatorINS_9allocatorIPNS_16__hash_node_baseIPNS_11__hash_nodeINS_17__hash_value_typeINS_12basic_stringIcNS_11char_traitsIcEENS2_IcEEEEdEEPvEEEEEEEELi1ELb0EE5__getB8ue170006Ev, symObjAddr: 0x4970, symBinAddr: 0x10000D5C0, symSize: 0x10 }
  - { offsetInCU: 0x1C521, offset: 0x4C132, size: 0x8, addend: 0x0, symName: __ZNSt3__116allocator_traitsINS_9allocatorIPNS_16__hash_node_baseIPNS_11__hash_nodeINS_17__hash_value_typeINS_12basic_stringIcNS_11char_traitsIcEENS1_IcEEEEdEEPvEEEEEEE10deallocateB8ue170006ERSG_PSF_m, symObjAddr: 0x4980, symBinAddr: 0x10000D5D0, symSize: 0x30 }
  - { offsetInCU: 0x1C562, offset: 0x4C173, size: 0x8, addend: 0x0, symName: __ZNSt3__125__bucket_list_deallocatorINS_9allocatorIPNS_16__hash_node_baseIPNS_11__hash_nodeINS_17__hash_value_typeINS_12basic_stringIcNS_11char_traitsIcEENS1_IcEEEEdEEPvEEEEEEE7__allocB8ue170006Ev, symObjAddr: 0x49B0, symBinAddr: 0x10000D600, symSize: 0x20 }
  - { offsetInCU: 0x1C586, offset: 0x4C197, size: 0x8, addend: 0x0, symName: __ZNSt3__125__bucket_list_deallocatorINS_9allocatorIPNS_16__hash_node_baseIPNS_11__hash_nodeINS_17__hash_value_typeINS_12basic_stringIcNS_11char_traitsIcEENS1_IcEEEEdEEPvEEEEEEE4sizeB8ue170006Ev, symObjAddr: 0x49D0, symBinAddr: 0x10000D620, symSize: 0x20 }
  - { offsetInCU: 0x1C5AA, offset: 0x4C1BB, size: 0x8, addend: 0x0, symName: __ZNSt3__19allocatorIPNS_16__hash_node_baseIPNS_11__hash_nodeINS_17__hash_value_typeINS_12basic_stringIcNS_11char_traitsIcEENS0_IcEEEEdEEPvEEEEE10deallocateB8ue170006EPSE_m, symObjAddr: 0x49F0, symBinAddr: 0x10000D640, symSize: 0x40 }
  - { offsetInCU: 0x1C5EA, offset: 0x4C1FB, size: 0x8, addend: 0x0, symName: __ZNSt3__117__compressed_pairImNS_9allocatorIPNS_16__hash_node_baseIPNS_11__hash_nodeINS_17__hash_value_typeINS_12basic_stringIcNS_11char_traitsIcEENS1_IcEEEEdEEPvEEEEEEE6secondB8ue170006Ev, symObjAddr: 0x4A30, symBinAddr: 0x10000D680, symSize: 0x20 }
  - { offsetInCU: 0x1C60E, offset: 0x4C21F, size: 0x8, addend: 0x0, symName: __ZNSt3__122__compressed_pair_elemINS_9allocatorIPNS_16__hash_node_baseIPNS_11__hash_nodeINS_17__hash_value_typeINS_12basic_stringIcNS_11char_traitsIcEENS1_IcEEEEdEEPvEEEEEELi1ELb1EE5__getB8ue170006Ev, symObjAddr: 0x4A50, symBinAddr: 0x10000D6A0, symSize: 0x10 }
  - { offsetInCU: 0x1C632, offset: 0x4C243, size: 0x8, addend: 0x0, symName: __ZNSt3__117__compressed_pairImNS_9allocatorIPNS_16__hash_node_baseIPNS_11__hash_nodeINS_17__hash_value_typeINS_12basic_stringIcNS_11char_traitsIcEENS1_IcEEEEdEEPvEEEEEEE5firstB8ue170006Ev, symObjAddr: 0x4A60, symBinAddr: 0x10000D6B0, symSize: 0x20 }
  - { offsetInCU: 0x1C656, offset: 0x4C267, size: 0x8, addend: 0x0, symName: __ZNSt3__113unordered_mapINS_12basic_stringIcNS_11char_traitsIcEENS_9allocatorIcEEEE9RateCurveNS_4hashIS6_EENS_8equal_toIS6_EENS4_INS_4pairIKS6_S7_EEEEED2B8ue170006Ev, symObjAddr: 0x4A90, symBinAddr: 0x10000D6D0, symSize: 0x20 }
  - { offsetInCU: 0x1C67E, offset: 0x4C28F, size: 0x8, addend: 0x0, symName: __ZNSt3__112__hash_tableINS_17__hash_value_typeINS_12basic_stringIcNS_11char_traitsIcEENS_9allocatorIcEEEE9RateCurveEENS_22__unordered_map_hasherIS7_S9_NS_4hashIS7_EENS_8equal_toIS7_EELb1EEENS_21__unordered_map_equalIS7_S9_SE_SC_Lb1EEENS5_IS9_EEED1Ev, symObjAddr: 0x4AB0, symBinAddr: 0x10000D6F0, symSize: 0x20 }
  - { offsetInCU: 0x1C6A9, offset: 0x4C2BA, size: 0x8, addend: 0x0, symName: __ZNSt3__112__hash_tableINS_17__hash_value_typeINS_12basic_stringIcNS_11char_traitsIcEENS_9allocatorIcEEEE9RateCurveEENS_22__unordered_map_hasherIS7_S9_NS_4hashIS7_EENS_8equal_toIS7_EELb1EEENS_21__unordered_map_equalIS7_S9_SE_SC_Lb1EEENS5_IS9_EEED2Ev, symObjAddr: 0x4AD0, symBinAddr: 0x10000D710, symSize: 0x40 }
  - { offsetInCU: 0x1C6D4, offset: 0x4C2E5, size: 0x8, addend: 0x0, symName: __ZNSt3__112__hash_tableINS_17__hash_value_typeINS_12basic_stringIcNS_11char_traitsIcEENS_9allocatorIcEEEE9RateCurveEENS_22__unordered_map_hasherIS7_S9_NS_4hashIS7_EENS_8equal_toIS7_EELb1EEENS_21__unordered_map_equalIS7_S9_SE_SC_Lb1EEENS5_IS9_EEE17__deallocate_nodeEPNS_16__hash_node_baseIPNS_11__hash_nodeIS9_PvEEEE, symObjAddr: 0x4B10, symBinAddr: 0x10000D750, symSize: 0xA0 }
  - { offsetInCU: 0x1C73C, offset: 0x4C34D, size: 0x8, addend: 0x0, symName: __ZNSt3__110unique_ptrIA_PNS_16__hash_node_baseIPNS_11__hash_nodeINS_17__hash_value_typeINS_12basic_stringIcNS_11char_traitsIcEENS_9allocatorIcEEEE9RateCurveEEPvEEEENS_25__bucket_list_deallocatorINS7_ISG_EEEEED1B8ue170006Ev, symObjAddr: 0x4BD0, symBinAddr: 0x10000D7F0, symSize: 0x20 }
  - { offsetInCU: 0x1C764, offset: 0x4C375, size: 0x8, addend: 0x0, symName: __ZNSt3__110unique_ptrIA_PNS_16__hash_node_baseIPNS_11__hash_nodeINS_17__hash_value_typeINS_12basic_stringIcNS_11char_traitsIcEENS_9allocatorIcEEEE9RateCurveEEPvEEEENS_25__bucket_list_deallocatorINS7_ISG_EEEEED2B8ue170006Ev, symObjAddr: 0x52D0, symBinAddr: 0x10000D810, symSize: 0x20 }
  - { offsetInCU: 0x1C78C, offset: 0x4C39D, size: 0x8, addend: 0x0, symName: __ZNSt3__110unique_ptrIA_PNS_16__hash_node_baseIPNS_11__hash_nodeINS_17__hash_value_typeINS_12basic_stringIcNS_11char_traitsIcEENS_9allocatorIcEEEE9RateCurveEEPvEEEENS_25__bucket_list_deallocatorINS7_ISG_EEEEE5resetB8ue170006EDn, symObjAddr: 0x52F0, symBinAddr: 0x10000D830, symSize: 0x60 }
  - { offsetInCU: 0x1C7CB, offset: 0x4C3DC, size: 0x8, addend: 0x0, symName: __ZNSt3__113unordered_mapINS_12basic_stringIcNS_11char_traitsIcEENS_9allocatorIcEEEE8VolCurveNS_4hashIS6_EENS_8equal_toIS6_EENS4_INS_4pairIKS6_S7_EEEEED2B8ue170006Ev, symObjAddr: 0x5500, symBinAddr: 0x10000D890, symSize: 0x20 }
  - { offsetInCU: 0x1C7F3, offset: 0x4C404, size: 0x8, addend: 0x0, symName: __ZNSt3__112__hash_tableINS_17__hash_value_typeINS_12basic_stringIcNS_11char_traitsIcEENS_9allocatorIcEEEE8VolCurveEENS_22__unordered_map_hasherIS7_S9_NS_4hashIS7_EENS_8equal_toIS7_EELb1EEENS_21__unordered_map_equalIS7_S9_SE_SC_Lb1EEENS5_IS9_EEED1Ev, symObjAddr: 0x5520, symBinAddr: 0x10000D8B0, symSize: 0x20 }
  - { offsetInCU: 0x1C81E, offset: 0x4C42F, size: 0x8, addend: 0x0, symName: __ZNSt3__112__hash_tableINS_17__hash_value_typeINS_12basic_stringIcNS_11char_traitsIcEENS_9allocatorIcEEEE8VolCurveEENS_22__unordered_map_hasherIS7_S9_NS_4hashIS7_EENS_8equal_toIS7_EELb1EEENS_21__unordered_map_equalIS7_S9_SE_SC_Lb1EEENS5_IS9_EEED2Ev, symObjAddr: 0x5540, symBinAddr: 0x10000D8D0, symSize: 0x40 }
  - { offsetInCU: 0x1C849, offset: 0x4C45A, size: 0x8, addend: 0x0, symName: __ZNSt3__112__hash_tableINS_17__hash_value_typeINS_12basic_stringIcNS_11char_traitsIcEENS_9allocatorIcEEEE8VolCurveEENS_22__unordered_map_hasherIS7_S9_NS_4hashIS7_EENS_8equal_toIS7_EELb1EEENS_21__unordered_map_equalIS7_S9_SE_SC_Lb1EEENS5_IS9_EEE17__deallocate_nodeEPNS_16__hash_node_baseIPNS_11__hash_nodeIS9_PvEEEE, symObjAddr: 0x5580, symBinAddr: 0x10000D910, symSize: 0xA0 }
  - { offsetInCU: 0x1C8B1, offset: 0x4C4C2, size: 0x8, addend: 0x0, symName: __ZNSt3__117__compressed_pairINS_16__hash_node_baseIPNS_11__hash_nodeINS_17__hash_value_typeINS_12basic_stringIcNS_11char_traitsIcEENS_9allocatorIcEEEE8VolCurveEEPvEEEENS7_ISD_EEE5firstB8ue170006Ev, symObjAddr: 0x5620, symBinAddr: 0x10000D9B0, symSize: 0x20 }
  - { offsetInCU: 0x1C8D5, offset: 0x4C4E6, size: 0x8, addend: 0x0, symName: __ZNSt3__110unique_ptrIA_PNS_16__hash_node_baseIPNS_11__hash_nodeINS_17__hash_value_typeINS_12basic_stringIcNS_11char_traitsIcEENS_9allocatorIcEEEE8VolCurveEEPvEEEENS_25__bucket_list_deallocatorINS7_ISG_EEEEED1B8ue170006Ev, symObjAddr: 0x5640, symBinAddr: 0x10000D9D0, symSize: 0x20 }
  - { offsetInCU: 0x1C8FD, offset: 0x4C50E, size: 0x8, addend: 0x0, symName: __ZNSt3__112__hash_tableINS_17__hash_value_typeINS_12basic_stringIcNS_11char_traitsIcEENS_9allocatorIcEEEE8VolCurveEENS_22__unordered_map_hasherIS7_S9_NS_4hashIS7_EENS_8equal_toIS7_EELb1EEENS_21__unordered_map_equalIS7_S9_SE_SC_Lb1EEENS5_IS9_EEE12__node_allocB8ue170006Ev, symObjAddr: 0x5660, symBinAddr: 0x10000D9F0, symSize: 0x20 }
  - { offsetInCU: 0x1C921, offset: 0x4C532, size: 0x8, addend: 0x0, symName: __ZNSt3__116allocator_traitsINS_9allocatorINS_11__hash_nodeINS_17__hash_value_typeINS_12basic_stringIcNS_11char_traitsIcEENS1_IcEEEE8VolCurveEEPvEEEEE7destroyB8ue170006INS_4pairIKS8_S9_EEvvEEvRSD_PT_, symObjAddr: 0x56A0, symBinAddr: 0x10000DA10, symSize: 0x20 }
  - { offsetInCU: 0x1C95B, offset: 0x4C56C, size: 0x8, addend: 0x0, symName: __ZNSt3__122__hash_key_value_typesINS_17__hash_value_typeINS_12basic_stringIcNS_11char_traitsIcEENS_9allocatorIcEEEE8VolCurveEEE9__get_ptrB8ue170006ERS9_, symObjAddr: 0x56C0, symBinAddr: 0x10000DA30, symSize: 0x20 }
  - { offsetInCU: 0x1C97D, offset: 0x4C58E, size: 0x8, addend: 0x0, symName: __ZNSt3__116allocator_traitsINS_9allocatorINS_11__hash_nodeINS_17__hash_value_typeINS_12basic_stringIcNS_11char_traitsIcEENS1_IcEEEE8VolCurveEEPvEEEEE10deallocateB8ue170006ERSD_PSC_m, symObjAddr: 0x56E0, symBinAddr: 0x10000DA50, symSize: 0x30 }
  - { offsetInCU: 0x1C9BE, offset: 0x4C5CF, size: 0x8, addend: 0x0, symName: __ZNSt3__117__compressed_pairINS_16__hash_node_baseIPNS_11__hash_nodeINS_17__hash_value_typeINS_12basic_stringIcNS_11char_traitsIcEENS_9allocatorIcEEEE8VolCurveEEPvEEEENS7_ISD_EEE6secondB8ue170006Ev, symObjAddr: 0x5710, symBinAddr: 0x10000DA80, symSize: 0x20 }
  - { offsetInCU: 0x1C9E2, offset: 0x4C5F3, size: 0x8, addend: 0x0, symName: __ZNSt3__122__compressed_pair_elemINS_9allocatorINS_11__hash_nodeINS_17__hash_value_typeINS_12basic_stringIcNS_11char_traitsIcEENS1_IcEEEE8VolCurveEEPvEEEELi1ELb1EE5__getB8ue170006Ev, symObjAddr: 0x5730, symBinAddr: 0x10000DAA0, symSize: 0x10 }
  - { offsetInCU: 0x1CA06, offset: 0x4C617, size: 0x8, addend: 0x0, symName: __ZNSt3__117__hash_value_typeINS_12basic_stringIcNS_11char_traitsIcEENS_9allocatorIcEEEE8VolCurveE11__get_valueB8ue170006Ev, symObjAddr: 0x5800, symBinAddr: 0x10000DAB0, symSize: 0x20 }
  - { offsetInCU: 0x1CA2A, offset: 0x4C63B, size: 0x8, addend: 0x0, symName: __ZNSt3__19allocatorINS_11__hash_nodeINS_17__hash_value_typeINS_12basic_stringIcNS_11char_traitsIcEENS0_IcEEEE8VolCurveEEPvEEE10deallocateB8ue170006EPSB_m, symObjAddr: 0x5850, symBinAddr: 0x10000DB00, symSize: 0x40 }
  - { offsetInCU: 0x1CA6A, offset: 0x4C67B, size: 0x8, addend: 0x0, symName: __ZNSt3__122__compressed_pair_elemINS_16__hash_node_baseIPNS_11__hash_nodeINS_17__hash_value_typeINS_12basic_stringIcNS_11char_traitsIcEENS_9allocatorIcEEEE8VolCurveEEPvEEEELi0ELb0EE5__getB8ue170006Ev, symObjAddr: 0x5890, symBinAddr: 0x10000DB40, symSize: 0x10 }
  - { offsetInCU: 0x1CA8E, offset: 0x4C69F, size: 0x8, addend: 0x0, symName: __ZNSt3__110unique_ptrIA_PNS_16__hash_node_baseIPNS_11__hash_nodeINS_17__hash_value_typeINS_12basic_stringIcNS_11char_traitsIcEENS_9allocatorIcEEEE8VolCurveEEPvEEEENS_25__bucket_list_deallocatorINS7_ISG_EEEEED2B8ue170006Ev, symObjAddr: 0x58A0, symBinAddr: 0x10000DB50, symSize: 0x20 }
  - { offsetInCU: 0x1CAB6, offset: 0x4C6C7, size: 0x8, addend: 0x0, symName: __ZNSt3__110unique_ptrIA_PNS_16__hash_node_baseIPNS_11__hash_nodeINS_17__hash_value_typeINS_12basic_stringIcNS_11char_traitsIcEENS_9allocatorIcEEEE8VolCurveEEPvEEEENS_25__bucket_list_deallocatorINS7_ISG_EEEEE5resetB8ue170006EDn, symObjAddr: 0x58C0, symBinAddr: 0x10000DB70, symSize: 0x60 }
  - { offsetInCU: 0x1CAF5, offset: 0x4C706, size: 0x8, addend: 0x0, symName: __ZNSt3__117__compressed_pairIPPNS_16__hash_node_baseIPNS_11__hash_nodeINS_17__hash_value_typeINS_12basic_stringIcNS_11char_traitsIcEENS_9allocatorIcEEEE8VolCurveEEPvEEEENS_25__bucket_list_deallocatorINS7_ISG_EEEEE5firstB8ue170006Ev, symObjAddr: 0x5920, symBinAddr: 0x10000DBD0, symSize: 0x20 }
  - { offsetInCU: 0x1CB19, offset: 0x4C72A, size: 0x8, addend: 0x0, symName: __ZNSt3__117__compressed_pairIPPNS_16__hash_node_baseIPNS_11__hash_nodeINS_17__hash_value_typeINS_12basic_stringIcNS_11char_traitsIcEENS_9allocatorIcEEEE8VolCurveEEPvEEEENS_25__bucket_list_deallocatorINS7_ISG_EEEEE6secondB8ue170006Ev, symObjAddr: 0x5940, symBinAddr: 0x10000DBF0, symSize: 0x20 }
  - { offsetInCU: 0x1CB3D, offset: 0x4C74E, size: 0x8, addend: 0x0, symName: __ZNSt3__125__bucket_list_deallocatorINS_9allocatorIPNS_16__hash_node_baseIPNS_11__hash_nodeINS_17__hash_value_typeINS_12basic_stringIcNS_11char_traitsIcEENS1_IcEEEE8VolCurveEEPvEEEEEEEclB8ue170006EPSG_, symObjAddr: 0x5960, symBinAddr: 0x10000DC10, symSize: 0x50 }
  - { offsetInCU: 0x1CB70, offset: 0x4C781, size: 0x8, addend: 0x0, symName: __ZNSt3__122__compressed_pair_elemIPPNS_16__hash_node_baseIPNS_11__hash_nodeINS_17__hash_value_typeINS_12basic_stringIcNS_11char_traitsIcEENS_9allocatorIcEEEE8VolCurveEEPvEEEELi0ELb0EE5__getB8ue170006Ev, symObjAddr: 0x59B0, symBinAddr: 0x10000DC60, symSize: 0x10 }
  - { offsetInCU: 0x1CB94, offset: 0x4C7A5, size: 0x8, addend: 0x0, symName: __ZNSt3__122__compressed_pair_elemINS_25__bucket_list_deallocatorINS_9allocatorIPNS_16__hash_node_baseIPNS_11__hash_nodeINS_17__hash_value_typeINS_12basic_stringIcNS_11char_traitsIcEENS2_IcEEEE8VolCurveEEPvEEEEEEEELi1ELb0EE5__getB8ue170006Ev, symObjAddr: 0x59C0, symBinAddr: 0x10000DC70, symSize: 0x10 }
  - { offsetInCU: 0x1CBB8, offset: 0x4C7C9, size: 0x8, addend: 0x0, symName: __ZNSt3__116allocator_traitsINS_9allocatorIPNS_16__hash_node_baseIPNS_11__hash_nodeINS_17__hash_value_typeINS_12basic_stringIcNS_11char_traitsIcEENS1_IcEEEE8VolCurveEEPvEEEEEEE10deallocateB8ue170006ERSH_PSG_m, symObjAddr: 0x59D0, symBinAddr: 0x10000DC80, symSize: 0x30 }
  - { offsetInCU: 0x1CBF9, offset: 0x4C80A, size: 0x8, addend: 0x0, symName: __ZNSt3__125__bucket_list_deallocatorINS_9allocatorIPNS_16__hash_node_baseIPNS_11__hash_nodeINS_17__hash_value_typeINS_12basic_stringIcNS_11char_traitsIcEENS1_IcEEEE8VolCurveEEPvEEEEEEE7__allocB8ue170006Ev, symObjAddr: 0x5A00, symBinAddr: 0x10000DCB0, symSize: 0x20 }
  - { offsetInCU: 0x1CC1D, offset: 0x4C82E, size: 0x8, addend: 0x0, symName: __ZNSt3__125__bucket_list_deallocatorINS_9allocatorIPNS_16__hash_node_baseIPNS_11__hash_nodeINS_17__hash_value_typeINS_12basic_stringIcNS_11char_traitsIcEENS1_IcEEEE8VolCurveEEPvEEEEEEE4sizeB8ue170006Ev, symObjAddr: 0x5A20, symBinAddr: 0x10000DCD0, symSize: 0x20 }
  - { offsetInCU: 0x1CC41, offset: 0x4C852, size: 0x8, addend: 0x0, symName: __ZNSt3__19allocatorIPNS_16__hash_node_baseIPNS_11__hash_nodeINS_17__hash_value_typeINS_12basic_stringIcNS_11char_traitsIcEENS0_IcEEEE8VolCurveEEPvEEEEE10deallocateB8ue170006EPSF_m, symObjAddr: 0x5A40, symBinAddr: 0x10000DCF0, symSize: 0x40 }
  - { offsetInCU: 0x1CC81, offset: 0x4C892, size: 0x8, addend: 0x0, symName: __ZNSt3__117__compressed_pairImNS_9allocatorIPNS_16__hash_node_baseIPNS_11__hash_nodeINS_17__hash_value_typeINS_12basic_stringIcNS_11char_traitsIcEENS1_IcEEEE8VolCurveEEPvEEEEEEE6secondB8ue170006Ev, symObjAddr: 0x5A80, symBinAddr: 0x10000DD30, symSize: 0x20 }
  - { offsetInCU: 0x1CCA5, offset: 0x4C8B6, size: 0x8, addend: 0x0, symName: __ZNSt3__122__compressed_pair_elemINS_9allocatorIPNS_16__hash_node_baseIPNS_11__hash_nodeINS_17__hash_value_typeINS_12basic_stringIcNS_11char_traitsIcEENS1_IcEEEE8VolCurveEEPvEEEEEELi1ELb1EE5__getB8ue170006Ev, symObjAddr: 0x5AA0, symBinAddr: 0x10000DD50, symSize: 0x10 }
  - { offsetInCU: 0x1CCC9, offset: 0x4C8DA, size: 0x8, addend: 0x0, symName: __ZNSt3__117__compressed_pairImNS_9allocatorIPNS_16__hash_node_baseIPNS_11__hash_nodeINS_17__hash_value_typeINS_12basic_stringIcNS_11char_traitsIcEENS1_IcEEEE8VolCurveEEPvEEEEEEE5firstB8ue170006Ev, symObjAddr: 0x5AB0, symBinAddr: 0x10000DD60, symSize: 0x20 }
  - { offsetInCU: 0x1CCED, offset: 0x4C8FE, size: 0x8, addend: 0x0, symName: __ZNSt3__112basic_stringIcNS_11char_traitsIcEENS_9allocatorIcEEEC2B8ue170006Ev, symObjAddr: 0x5AD0, symBinAddr: 0x10000DD80, symSize: 0x50 }
  - { offsetInCU: 0x1CD15, offset: 0x4C926, size: 0x8, addend: 0x0, symName: __ZNSt3__112basic_stringIcNS_11char_traitsIcEENS_9allocatorIcEEE14__default_initB8ue170006Ev, symObjAddr: 0x5B20, symBinAddr: 0x10000DDD0, symSize: 0x50 }
  - { offsetInCU: 0x1CD39, offset: 0x4C94A, size: 0x8, addend: 0x0, symName: __ZNSt3__19basic_iosIcNS_11char_traitsIcEEEC2B8ue170006Ev, symObjAddr: 0x5BA0, symBinAddr: 0x10000DE20, symSize: 0x40 }
  - { offsetInCU: 0x1CD61, offset: 0x4C972, size: 0x8, addend: 0x0, symName: __ZNSt3__113basic_istreamIcNS_11char_traitsIcEEEC2B8ue170006EPNS_15basic_streambufIcS2_EE, symObjAddr: 0x5BE0, symBinAddr: 0x10000DE60, symSize: 0x50 }
  - { offsetInCU: 0x1CDA3, offset: 0x4C9B4, size: 0x8, addend: 0x0, symName: __ZNSt3__113basic_filebufIcNS_11char_traitsIcEEE4openERKNS_12basic_stringIcS2_NS_9allocatorIcEEEEj, symObjAddr: 0x5C30, symBinAddr: 0x10000DEB0, symSize: 0x40 }
  - { offsetInCU: 0x1CDE5, offset: 0x4C9F6, size: 0x8, addend: 0x0, symName: __ZNSt3__18ios_baseC2B8ue170006Ev, symObjAddr: 0x5CA0, symBinAddr: 0x10000DEF0, symSize: 0x20 }
  - { offsetInCU: 0x1CE0D, offset: 0x4CA1E, size: 0x8, addend: 0x0, symName: __ZNSt3__19basic_iosIcNS_11char_traitsIcEEE4initB8ue170006EPNS_15basic_streambufIcS2_EE, symObjAddr: 0x5CC0, symBinAddr: 0x10000DF10, symSize: 0x50 }
  - { offsetInCU: 0x1CE42, offset: 0x4CA53, size: 0x8, addend: 0x0, symName: __ZNKSt3__112basic_stringIcNS_11char_traitsIcEENS_9allocatorIcEEE5c_strB8ue170006Ev, symObjAddr: 0x5D20, symBinAddr: 0x10000DF60, symSize: 0x20 }
  - { offsetInCU: 0x1CE84, offset: 0x4CA95, size: 0x8, addend: 0x0, symName: __ZNKSt3__113basic_istreamIcNS_11char_traitsIcEEE6sentrycvbB8ue170006Ev, symObjAddr: 0x6160, symBinAddr: 0x10000E1A0, symSize: 0x20 }
  - { offsetInCU: 0x1CEA8, offset: 0x4CAB9, size: 0x8, addend: 0x0, symName: __ZNSt3__112basic_stringIcNS_11char_traitsIcEENS_9allocatorIcEEE5clearB8ue170006Ev, symObjAddr: 0x6180, symBinAddr: 0x10000E1C0, symSize: 0x80 }
  - { offsetInCU: 0x1CECE, offset: 0x4CADF, size: 0x8, addend: 0x0, symName: __ZNSt3__115basic_streambufIcNS_11char_traitsIcEEE6sbumpcB8ue170006Ev, symObjAddr: 0x6220, symBinAddr: 0x10000E240, symSize: 0x60 }
  - { offsetInCU: 0x1CEF2, offset: 0x4CB03, size: 0x8, addend: 0x0, symName: __ZNSt3__111char_traitsIcE12to_char_typeB8ue170006Ei, symObjAddr: 0x62A0, symBinAddr: 0x10000E2A0, symSize: 0x10 }
  - { offsetInCU: 0x1CF14, offset: 0x4CB25, size: 0x8, addend: 0x0, symName: __ZNSt3__111char_traitsIcE2eqEcc, symObjAddr: 0x62B0, symBinAddr: 0x10000E2B0, symSize: 0x30 }
  - { offsetInCU: 0x1CF44, offset: 0x4CB55, size: 0x8, addend: 0x0, symName: __ZNKSt3__112basic_stringIcNS_11char_traitsIcEENS_9allocatorIcEEE8max_sizeB8ue170006Ev, symObjAddr: 0x6330, symBinAddr: 0x10000E2E0, symSize: 0xA0 }
  - { offsetInCU: 0x1CF95, offset: 0x4CBA6, size: 0x8, addend: 0x0, symName: __ZNSt3__18ios_base18__setstate_nothrowB8ue170006Ej, symObjAddr: 0x63D0, symBinAddr: 0x10000E380, symSize: 0x50 }
  - { offsetInCU: 0x1CFC8, offset: 0x4CBD9, size: 0x8, addend: 0x0, symName: __ZNKSt3__19basic_iosIcNS_11char_traitsIcEEE10exceptionsB8ue170006Ev, symObjAddr: 0x6420, symBinAddr: 0x10000E3D0, symSize: 0x20 }
  - { offsetInCU: 0x1CFEC, offset: 0x4CBFD, size: 0x8, addend: 0x0, symName: __ZNSt3__111char_traitsIcE6assignB8ue170006ERcRKc, symObjAddr: 0x6440, symBinAddr: 0x10000E3F0, symSize: 0x20 }
  - { offsetInCU: 0x1D01C, offset: 0x4CC2D, size: 0x8, addend: 0x0, symName: __ZNSt3__112basic_stringIcNS_11char_traitsIcEENS_9allocatorIcEEE15__set_long_sizeB8ue170006Em, symObjAddr: 0x6480, symBinAddr: 0x10000E410, symSize: 0x30 }
  - { offsetInCU: 0x1D04F, offset: 0x4CC60, size: 0x8, addend: 0x0, symName: __ZNSt3__112basic_stringIcNS_11char_traitsIcEENS_9allocatorIcEEE16__set_short_sizeB8ue170006Em, symObjAddr: 0x64E0, symBinAddr: 0x10000E440, symSize: 0x50 }
  - { offsetInCU: 0x1D082, offset: 0x4CC93, size: 0x8, addend: 0x0, symName: __ZNSt3__111char_traitsIcE11to_int_typeB8ue170006Ec, symObjAddr: 0x6560, symBinAddr: 0x10000E490, symSize: 0x10 }
  - { offsetInCU: 0x1D0AF, offset: 0x4CCC0, size: 0x8, addend: 0x0, symName: __ZNSt3__116allocator_traitsINS_9allocatorIcEEE8max_sizeB8ue170006IS2_vEEmRKS2_, symObjAddr: 0x65C0, symBinAddr: 0x10000E4A0, symSize: 0x20 }
  - { offsetInCU: 0x1D0DC, offset: 0x4CCED, size: 0x8, addend: 0x0, symName: __ZNKSt3__112basic_stringIcNS_11char_traitsIcEENS_9allocatorIcEEE7__allocB8ue170006Ev, symObjAddr: 0x65E0, symBinAddr: 0x10000E4C0, symSize: 0x20 }
  - { offsetInCU: 0x1D100, offset: 0x4CD11, size: 0x8, addend: 0x0, symName: __ZNSt3__114numeric_limitsImE3maxB8ue170006Ev, symObjAddr: 0x6600, symBinAddr: 0x10000E4E0, symSize: 0x10 }
  - { offsetInCU: 0x1D113, offset: 0x4CD24, size: 0x8, addend: 0x0, symName: __ZNKSt3__19allocatorIcE8max_sizeB8ue170006Ev, symObjAddr: 0x6610, symBinAddr: 0x10000E4F0, symSize: 0x20 }
  - { offsetInCU: 0x1D137, offset: 0x4CD48, size: 0x8, addend: 0x0, symName: __ZNKSt3__117__compressed_pairINS_12basic_stringIcNS_11char_traitsIcEENS_9allocatorIcEEE5__repES5_E6secondB8ue170006Ev, symObjAddr: 0x6630, symBinAddr: 0x10000E510, symSize: 0x20 }
  - { offsetInCU: 0x1D15B, offset: 0x4CD6C, size: 0x8, addend: 0x0, symName: __ZNKSt3__122__compressed_pair_elemINS_9allocatorIcEELi1ELb1EE5__getB8ue170006Ev, symObjAddr: 0x6650, symBinAddr: 0x10000E530, symSize: 0x10 }
  - { offsetInCU: 0x1D17F, offset: 0x4CD90, size: 0x8, addend: 0x0, symName: __ZNSt3__123__libcpp_numeric_limitsImLb1EE3maxB8ue170006Ev, symObjAddr: 0x6660, symBinAddr: 0x10000E540, symSize: 0x10 }
  - { offsetInCU: 0x1D192, offset: 0x4CDA3, size: 0x8, addend: 0x0, symName: __ZNKSt3__18ios_base10exceptionsB8ue170006Ev, symObjAddr: 0x6670, symBinAddr: 0x10000E550, symSize: 0x20 }
  - { offsetInCU: 0x1D1B8, offset: 0x4CDC9, size: 0x8, addend: 0x0, symName: __ZNKSt3__19basic_iosIcNS_11char_traitsIcEEE4failB8ue170006Ev, symObjAddr: 0x66F0, symBinAddr: 0x10000E570, symSize: 0x20 }
  - { offsetInCU: 0x1D1DC, offset: 0x4CDED, size: 0x8, addend: 0x0, symName: __ZNKSt3__18ios_base4failB8ue170006Ev, symObjAddr: 0x6710, symBinAddr: 0x10000E590, symSize: 0x20 }
  - { offsetInCU: 0x1D202, offset: 0x4CE13, size: 0x8, addend: 0x0, symName: __ZNSt3__16vectorIP5TradeNS_9allocatorIS2_EEEC2B8ue170006Ev, symObjAddr: 0x6730, symBinAddr: 0x10000E5B0, symSize: 0x50 }
  - { offsetInCU: 0x1D22A, offset: 0x4CE3B, size: 0x8, addend: 0x0, symName: __ZNSt3__117__compressed_pairIPP5TradeNS_9allocatorIS2_EEEC1B8ue170006IDnNS_18__default_init_tagEEEOT_OT0_, symObjAddr: 0x6780, symBinAddr: 0x10000E600, symSize: 0x30 }
  - { offsetInCU: 0x1D280, offset: 0x4CE91, size: 0x8, addend: 0x0, symName: __ZNSt3__117__compressed_pairIPP5TradeNS_9allocatorIS2_EEEC2B8ue170006IDnNS_18__default_init_tagEEEOT_OT0_, symObjAddr: 0x67B0, symBinAddr: 0x10000E630, symSize: 0x40 }
  - { offsetInCU: 0x1D2D6, offset: 0x4CEE7, size: 0x8, addend: 0x0, symName: __ZNSt3__122__compressed_pair_elemIPP5TradeLi0ELb0EEC2B8ue170006IDnvEEOT_, symObjAddr: 0x67F0, symBinAddr: 0x10000E670, symSize: 0x20 }
  - { offsetInCU: 0x1D316, offset: 0x4CF27, size: 0x8, addend: 0x0, symName: __ZNSt3__122__compressed_pair_elemINS_9allocatorIP5TradeEELi1ELb1EEC2B8ue170006ENS_18__default_init_tagE, symObjAddr: 0x6810, symBinAddr: 0x10000E690, symSize: 0x20 }
  - { offsetInCU: 0x1D348, offset: 0x4CF59, size: 0x8, addend: 0x0, symName: __ZNSt3__19allocatorIP5TradeEC2B8ue170006Ev, symObjAddr: 0x6830, symBinAddr: 0x10000E6B0, symSize: 0x20 }
  - { offsetInCU: 0x1D370, offset: 0x4CF81, size: 0x8, addend: 0x0, symName: __ZNSt3__116__non_trivial_ifILb1ENS_9allocatorIP5TradeEEEC2B8ue170006Ev, symObjAddr: 0x6850, symBinAddr: 0x10000E6D0, symSize: 0x10 }
  - { offsetInCU: 0x1D398, offset: 0x4CFA9, size: 0x8, addend: 0x0, symName: __ZNSt3__16vectorIP5TradeNS_9allocatorIS2_EEED2B8ue170006Ev, symObjAddr: 0x6860, symBinAddr: 0x10000E6E0, symSize: 0x40 }
  - { offsetInCU: 0x1D3C0, offset: 0x4CFD1, size: 0x8, addend: 0x0, symName: __ZNSt3__16vectorIP5TradeNS_9allocatorIS2_EEE16__destroy_vectorC1B8ue170006ERS5_, symObjAddr: 0x68A0, symBinAddr: 0x10000E720, symSize: 0x30 }
  - { offsetInCU: 0x1D3F7, offset: 0x4D008, size: 0x8, addend: 0x0, symName: __ZNSt3__16vectorIP5TradeNS_9allocatorIS2_EEE16__destroy_vectorclB8ue170006Ev, symObjAddr: 0x68D0, symBinAddr: 0x10000E750, symSize: 0x80 }
  - { offsetInCU: 0x1D41B, offset: 0x4D02C, size: 0x8, addend: 0x0, symName: __ZNSt3__16vectorIP5TradeNS_9allocatorIS2_EEE16__destroy_vectorC2B8ue170006ERS5_, symObjAddr: 0x6950, symBinAddr: 0x10000E7D0, symSize: 0x20 }
  - { offsetInCU: 0x1D452, offset: 0x4D063, size: 0x8, addend: 0x0, symName: __ZNSt3__16vectorIP5TradeNS_9allocatorIS2_EEE7__clearB8ue170006Ev, symObjAddr: 0x6970, symBinAddr: 0x10000E7F0, symSize: 0x20 }
  - { offsetInCU: 0x1D476, offset: 0x4D087, size: 0x8, addend: 0x0, symName: __ZNKSt3__16vectorIP5TradeNS_9allocatorIS2_EEE17__annotate_deleteB8ue170006Ev, symObjAddr: 0x6990, symBinAddr: 0x10000E810, symSize: 0xB0 }
  - { offsetInCU: 0x1D49A, offset: 0x4D0AB, size: 0x8, addend: 0x0, symName: __ZNSt3__116allocator_traitsINS_9allocatorIP5TradeEEE10deallocateB8ue170006ERS4_PS3_m, symObjAddr: 0x6A40, symBinAddr: 0x10000E8C0, symSize: 0x30 }
  - { offsetInCU: 0x1D4DB, offset: 0x4D0EC, size: 0x8, addend: 0x0, symName: __ZNSt3__16vectorIP5TradeNS_9allocatorIS2_EEE7__allocB8ue170006Ev, symObjAddr: 0x6A70, symBinAddr: 0x10000E8F0, symSize: 0x20 }
  - { offsetInCU: 0x1D4FF, offset: 0x4D110, size: 0x8, addend: 0x0, symName: __ZNKSt3__16vectorIP5TradeNS_9allocatorIS2_EEE8capacityB8ue170006Ev, symObjAddr: 0x6A90, symBinAddr: 0x10000E910, symSize: 0x30 }
  - { offsetInCU: 0x1D523, offset: 0x4D134, size: 0x8, addend: 0x0, symName: __ZNSt3__16vectorIP5TradeNS_9allocatorIS2_EEE22__base_destruct_at_endB8ue170006EPS2_, symObjAddr: 0x6AC0, symBinAddr: 0x10000E940, symSize: 0x80 }
  - { offsetInCU: 0x1D565, offset: 0x4D176, size: 0x8, addend: 0x0, symName: __ZNSt3__116allocator_traitsINS_9allocatorIP5TradeEEE7destroyB8ue170006IS3_vEEvRS4_PT_, symObjAddr: 0x6B40, symBinAddr: 0x10000E9C0, symSize: 0x30 }
  - { offsetInCU: 0x1D5A1, offset: 0x4D1B2, size: 0x8, addend: 0x0, symName: __ZNSt3__19allocatorIP5TradeE7destroyB8ue170006EPS2_, symObjAddr: 0x6B80, symBinAddr: 0x10000EA00, symSize: 0x10 }
  - { offsetInCU: 0x1D5D3, offset: 0x4D1E4, size: 0x8, addend: 0x0, symName: __ZNKSt3__16vectorIP5TradeNS_9allocatorIS2_EEE31__annotate_contiguous_containerB8ue170006EPKvS7_S7_S7_, symObjAddr: 0x6B90, symBinAddr: 0x10000EA10, symSize: 0x20 }
  - { offsetInCU: 0x1D627, offset: 0x4D238, size: 0x8, addend: 0x0, symName: __ZNKSt3__16vectorIP5TradeNS_9allocatorIS2_EEE4dataB8ue170006Ev, symObjAddr: 0x6BB0, symBinAddr: 0x10000EA30, symSize: 0x20 }
  - { offsetInCU: 0x1D64B, offset: 0x4D25C, size: 0x8, addend: 0x0, symName: __ZNKSt3__16vectorIP5TradeNS_9allocatorIS2_EEE4sizeB8ue170006Ev, symObjAddr: 0x6BD0, symBinAddr: 0x10000EA50, symSize: 0x20 }
  - { offsetInCU: 0x1D66F, offset: 0x4D280, size: 0x8, addend: 0x0, symName: __ZNSt3__19allocatorIP5TradeE10deallocateB8ue170006EPS2_m, symObjAddr: 0x6BF0, symBinAddr: 0x10000EA70, symSize: 0x40 }
  - { offsetInCU: 0x1D6AF, offset: 0x4D2C0, size: 0x8, addend: 0x0, symName: __ZNSt3__117__compressed_pairIPP5TradeNS_9allocatorIS2_EEE6secondB8ue170006Ev, symObjAddr: 0x6C30, symBinAddr: 0x10000EAB0, symSize: 0x20 }
  - { offsetInCU: 0x1D6D3, offset: 0x4D2E4, size: 0x8, addend: 0x0, symName: __ZNSt3__122__compressed_pair_elemINS_9allocatorIP5TradeEELi1ELb1EE5__getB8ue170006Ev, symObjAddr: 0x6C50, symBinAddr: 0x10000EAD0, symSize: 0x10 }
  - { offsetInCU: 0x1D6F7, offset: 0x4D308, size: 0x8, addend: 0x0, symName: __ZNKSt3__16vectorIP5TradeNS_9allocatorIS2_EEE9__end_capB8ue170006Ev, symObjAddr: 0x6C60, symBinAddr: 0x10000EAE0, symSize: 0x20 }
  - { offsetInCU: 0x1D71B, offset: 0x4D32C, size: 0x8, addend: 0x0, symName: __ZNKSt3__117__compressed_pairIPP5TradeNS_9allocatorIS2_EEE5firstB8ue170006Ev, symObjAddr: 0x6C80, symBinAddr: 0x10000EB00, symSize: 0x20 }
  - { offsetInCU: 0x1D73F, offset: 0x4D350, size: 0x8, addend: 0x0, symName: __ZNKSt3__122__compressed_pair_elemIPP5TradeLi0ELb0EE5__getB8ue170006Ev, symObjAddr: 0x6CA0, symBinAddr: 0x10000EB20, symSize: 0x10 }
  - { offsetInCU: 0x1D763, offset: 0x4D374, size: 0x8, addend: 0x0, symName: __ZNSt3__16vectorIP5TradeNS_9allocatorIS2_EEE9__end_capB8ue170006Ev, symObjAddr: 0x6CB0, symBinAddr: 0x10000EB30, symSize: 0x20 }
  - { offsetInCU: 0x1D787, offset: 0x4D398, size: 0x8, addend: 0x0, symName: __ZNSt3__16vectorIP5TradeNS_9allocatorIS2_EEE22__construct_one_at_endB8ue170006IJRKS2_EEEvDpOT_, symObjAddr: 0x6CD0, symBinAddr: 0x10000EB50, symSize: 0x90 }
  - { offsetInCU: 0x1D7D4, offset: 0x4D3E5, size: 0x8, addend: 0x0, symName: __ZNSt3__16vectorIP5TradeNS_9allocatorIS2_EEE21__push_back_slow_pathIRKS2_EEvOT_, symObjAddr: 0x6D60, symBinAddr: 0x10000EBE0, symSize: 0xD0 }
  - { offsetInCU: 0x1D830, offset: 0x4D441, size: 0x8, addend: 0x0, symName: __ZNSt3__117__compressed_pairIPP5TradeNS_9allocatorIS2_EEE5firstB8ue170006Ev, symObjAddr: 0x6E30, symBinAddr: 0x10000ECB0, symSize: 0x20 }
  - { offsetInCU: 0x1D854, offset: 0x4D465, size: 0x8, addend: 0x0, symName: __ZNSt3__122__compressed_pair_elemIPP5TradeLi0ELb0EE5__getB8ue170006Ev, symObjAddr: 0x6E50, symBinAddr: 0x10000ECD0, symSize: 0x10 }
  - { offsetInCU: 0x1D891, offset: 0x4D4A2, size: 0x8, addend: 0x0, symName: __ZNSt3__16vectorIP5TradeNS_9allocatorIS2_EEE21_ConstructTransactionC1B8ue170006ERS5_m, symObjAddr: 0x6E60, symBinAddr: 0x10000ECE0, symSize: 0x30 }
  - { offsetInCU: 0x1D8D7, offset: 0x4D4E8, size: 0x8, addend: 0x0, symName: __ZNSt3__116allocator_traitsINS_9allocatorIP5TradeEEE9constructB8ue170006IS3_JRKS3_EvEEvRS4_PT_DpOT0_, symObjAddr: 0x6E90, symBinAddr: 0x10000ED10, symSize: 0x30 }
  - { offsetInCU: 0x1D92D, offset: 0x4D53E, size: 0x8, addend: 0x0, symName: __ZNSt3__16vectorIP5TradeNS_9allocatorIS2_EEE21_ConstructTransactionD1B8ue170006Ev, symObjAddr: 0x6EC0, symBinAddr: 0x10000ED40, symSize: 0x20 }
  - { offsetInCU: 0x1D955, offset: 0x4D566, size: 0x8, addend: 0x0, symName: __ZNSt3__16vectorIP5TradeNS_9allocatorIS2_EEE21_ConstructTransactionC2B8ue170006ERS5_m, symObjAddr: 0x6EE0, symBinAddr: 0x10000ED60, symSize: 0x40 }
  - { offsetInCU: 0x1D99B, offset: 0x4D5AC, size: 0x8, addend: 0x0, symName: __ZNSt3__19allocatorIP5TradeE9constructB8ue170006IS2_JRKS2_EEEvPT_DpOT0_, symObjAddr: 0x6F20, symBinAddr: 0x10000EDA0, symSize: 0x20 }
  - { offsetInCU: 0x1D9EF, offset: 0x4D600, size: 0x8, addend: 0x0, symName: __ZNSt3__16vectorIP5TradeNS_9allocatorIS2_EEE21_ConstructTransactionD2B8ue170006Ev, symObjAddr: 0x6F40, symBinAddr: 0x10000EDC0, symSize: 0x20 }
  - { offsetInCU: 0x1DA17, offset: 0x4D628, size: 0x8, addend: 0x0, symName: __ZNKSt3__16vectorIP5TradeNS_9allocatorIS2_EEE11__recommendB8ue170006Em, symObjAddr: 0x6F60, symBinAddr: 0x10000EDE0, symSize: 0xA0 }
  - { offsetInCU: 0x1DA6A, offset: 0x4D67B, size: 0x8, addend: 0x0, symName: __ZNSt3__114__split_bufferIP5TradeRNS_9allocatorIS2_EEEC1EmmS5_, symObjAddr: 0x7000, symBinAddr: 0x10000EE80, symSize: 0x40 }
  - { offsetInCU: 0x1DABF, offset: 0x4D6D0, size: 0x8, addend: 0x0, symName: __ZNSt3__114__split_bufferIP5TradeRNS_9allocatorIS2_EEED1Ev, symObjAddr: 0x7160, symBinAddr: 0x10000EFE0, symSize: 0x20 }
  - { offsetInCU: 0x1DAEA, offset: 0x4D6FB, size: 0x8, addend: 0x0, symName: __ZNKSt3__16vectorIP5TradeNS_9allocatorIS2_EEE8max_sizeEv, symObjAddr: 0x7180, symBinAddr: 0x10000F000, symSize: 0x60 }
  - { offsetInCU: 0x1DB10, offset: 0x4D721, size: 0x8, addend: 0x0, symName: __ZNKSt3__16vectorIP5TradeNS_9allocatorIS2_EEE20__throw_length_errorB8ue170006Ev, symObjAddr: 0x71E0, symBinAddr: 0x10000F060, symSize: 0x20 }
  - { offsetInCU: 0x1DB3E, offset: 0x4D74F, size: 0x8, addend: 0x0, symName: __ZNSt3__116allocator_traitsINS_9allocatorIP5TradeEEE8max_sizeB8ue170006IS4_vEEmRKS4_, symObjAddr: 0x7200, symBinAddr: 0x10000F080, symSize: 0x20 }
  - { offsetInCU: 0x1DB6B, offset: 0x4D77C, size: 0x8, addend: 0x0, symName: __ZNKSt3__16vectorIP5TradeNS_9allocatorIS2_EEE7__allocB8ue170006Ev, symObjAddr: 0x7220, symBinAddr: 0x10000F0A0, symSize: 0x20 }
  - { offsetInCU: 0x1DB8F, offset: 0x4D7A0, size: 0x8, addend: 0x0, symName: __ZNKSt3__19allocatorIP5TradeE8max_sizeB8ue170006Ev, symObjAddr: 0x7240, symBinAddr: 0x10000F0C0, symSize: 0x20 }
  - { offsetInCU: 0x1DBB3, offset: 0x4D7C4, size: 0x8, addend: 0x0, symName: __ZNKSt3__117__compressed_pairIPP5TradeNS_9allocatorIS2_EEE6secondB8ue170006Ev, symObjAddr: 0x7260, symBinAddr: 0x10000F0E0, symSize: 0x20 }
  - { offsetInCU: 0x1DBD7, offset: 0x4D7E8, size: 0x8, addend: 0x0, symName: __ZNKSt3__122__compressed_pair_elemINS_9allocatorIP5TradeEELi1ELb1EE5__getB8ue170006Ev, symObjAddr: 0x7280, symBinAddr: 0x10000F100, symSize: 0x10 }
  - { offsetInCU: 0x1DBFB, offset: 0x4D80C, size: 0x8, addend: 0x0, symName: __ZNSt3__114__split_bufferIP5TradeRNS_9allocatorIS2_EEEC2EmmS5_, symObjAddr: 0x7290, symBinAddr: 0x10000F110, symSize: 0xD0 }
  - { offsetInCU: 0x1DC6E, offset: 0x4D87F, size: 0x8, addend: 0x0, symName: __ZNSt3__117__compressed_pairIPP5TradeRNS_9allocatorIS2_EEEC1B8ue170006IDnS6_EEOT_OT0_, symObjAddr: 0x7360, symBinAddr: 0x10000F1E0, symSize: 0x30 }
  - { offsetInCU: 0x1DCC4, offset: 0x4D8D5, size: 0x8, addend: 0x0, symName: __ZNSt3__114__split_bufferIP5TradeRNS_9allocatorIS2_EEE7__allocB8ue170006Ev, symObjAddr: 0x73D0, symBinAddr: 0x10000F250, symSize: 0x20 }
  - { offsetInCU: 0x1DCE8, offset: 0x4D8F9, size: 0x8, addend: 0x0, symName: __ZNSt3__114__split_bufferIP5TradeRNS_9allocatorIS2_EEE9__end_capB8ue170006Ev, symObjAddr: 0x73F0, symBinAddr: 0x10000F270, symSize: 0x20 }
  - { offsetInCU: 0x1DD0C, offset: 0x4D91D, size: 0x8, addend: 0x0, symName: __ZNSt3__117__compressed_pairIPP5TradeRNS_9allocatorIS2_EEEC2B8ue170006IDnS6_EEOT_OT0_, symObjAddr: 0x7410, symBinAddr: 0x10000F290, symSize: 0x40 }
  - { offsetInCU: 0x1DD62, offset: 0x4D973, size: 0x8, addend: 0x0, symName: __ZNSt3__122__compressed_pair_elemIRNS_9allocatorIP5TradeEELi1ELb0EEC2B8ue170006IS5_vEEOT_, symObjAddr: 0x7450, symBinAddr: 0x10000F2D0, symSize: 0x20 }
  - { offsetInCU: 0x1DDA2, offset: 0x4D9B3, size: 0x8, addend: 0x0, symName: __ZNSt3__19allocatorIP5TradeE8allocateB8ue170006Em, symObjAddr: 0x7470, symBinAddr: 0x10000F2F0, symSize: 0x50 }
  - { offsetInCU: 0x1DDD4, offset: 0x4D9E5, size: 0x8, addend: 0x0, symName: __ZNSt3__117__compressed_pairIPP5TradeRNS_9allocatorIS2_EEE6secondB8ue170006Ev, symObjAddr: 0x74C0, symBinAddr: 0x10000F340, symSize: 0x20 }
  - { offsetInCU: 0x1DDF8, offset: 0x4DA09, size: 0x8, addend: 0x0, symName: __ZNSt3__122__compressed_pair_elemIRNS_9allocatorIP5TradeEELi1ELb0EE5__getB8ue170006Ev, symObjAddr: 0x74E0, symBinAddr: 0x10000F360, symSize: 0x20 }
  - { offsetInCU: 0x1DE1C, offset: 0x4DA2D, size: 0x8, addend: 0x0, symName: __ZNSt3__117__compressed_pairIPP5TradeRNS_9allocatorIS2_EEE5firstB8ue170006Ev, symObjAddr: 0x7500, symBinAddr: 0x10000F380, symSize: 0x20 }
  - { offsetInCU: 0x1DE40, offset: 0x4DA51, size: 0x8, addend: 0x0, symName: __ZNSt3__116reverse_iteratorIPP5TradeEC1B8ue170006ES3_, symObjAddr: 0x7590, symBinAddr: 0x10000F410, symSize: 0x30 }
  - { offsetInCU: 0x1DE76, offset: 0x4DA87, size: 0x8, addend: 0x0, symName: __ZNKSt3__116reverse_iteratorIPP5TradeE4baseB8ue170006Ev, symObjAddr: 0x75C0, symBinAddr: 0x10000F440, symSize: 0x20 }
  - { offsetInCU: 0x1DE9A, offset: 0x4DAAB, size: 0x8, addend: 0x0, symName: __ZNKSt3__16vectorIP5TradeNS_9allocatorIS2_EEE14__annotate_newB8ue170006Em, symObjAddr: 0x7620, symBinAddr: 0x10000F4A0, symSize: 0xB0 }
  - { offsetInCU: 0x1DEE6, offset: 0x4DAF7, size: 0x8, addend: 0x0, symName: __ZNKSt3__111__move_loopINS_17_ClassicAlgPolicyEEclB8ue170006INS_16reverse_iteratorIPP5TradeEES8_S8_EENS_4pairIT_T1_EESA_T0_SB_, symObjAddr: 0x7B10, symBinAddr: 0x10000F990, symSize: 0xA0 }
  - { offsetInCU: 0x1DF54, offset: 0x4DB65, size: 0x8, addend: 0x0, symName: __ZNSt3__18_IterOpsINS_17_ClassicAlgPolicyEE11__iter_moveB8ue170006IRNS_16reverse_iteratorIPP5TradeEEEENS_9enable_ifIXsr12is_referenceIDTdeclsr3stdE7declvalIRT_EEEEE5valueEDTclsr3stdE4movedeclsr3stdE7declvalISC_EEEEE4typeEOSB_, symObjAddr: 0x7D30, symBinAddr: 0x10000FBB0, symSize: 0x20 }
  - { offsetInCU: 0x1DF7F, offset: 0x4DB90, size: 0x8, addend: 0x0, symName: __ZNKSt3__116reverse_iteratorIPP5TradeEdeB8ue170006Ev, symObjAddr: 0x7D50, symBinAddr: 0x10000FBD0, symSize: 0x30 }
  - { offsetInCU: 0x1DFB1, offset: 0x4DBC2, size: 0x8, addend: 0x0, symName: __ZNSt3__116reverse_iteratorIPP5TradeEppB8ue170006Ev, symObjAddr: 0x7D80, symBinAddr: 0x10000FC00, symSize: 0x20 }
  - { offsetInCU: 0x1DFD5, offset: 0x4DBE6, size: 0x8, addend: 0x0, symName: __ZNSt3__18_IterOpsINS_17_ClassicAlgPolicyEE25__validate_iter_referenceB8ue170006IRNS_16reverse_iteratorIPP5TradeEEEEvv, symObjAddr: 0x7DA0, symBinAddr: 0x10000FC20, symSize: 0x10 }
  - { offsetInCU: 0x1DFF2, offset: 0x4DC03, size: 0x8, addend: 0x0, symName: __ZNSt3__118__unwrap_iter_implINS_16reverse_iteratorIPP5TradeEELb0EE8__unwrapB8ue170006ES5_, symObjAddr: 0x7DB0, symBinAddr: 0x10000FC30, symSize: 0x20 }
  - { offsetInCU: 0x1E019, offset: 0x4DC2A, size: 0x8, addend: 0x0, symName: __ZNSt3__14pairINS_16reverse_iteratorIPP5TradeEES5_EC1B8ue170006IS5_S5_LPv0EEEOT_OT0_, symObjAddr: 0x7DD0, symBinAddr: 0x10000FC50, symSize: 0x30 }
  - { offsetInCU: 0x1E076, offset: 0x4DC87, size: 0x8, addend: 0x0, symName: __ZNSt3__14pairINS_16reverse_iteratorIPP5TradeEES5_EC2B8ue170006IS5_S5_LPv0EEEOT_OT0_, symObjAddr: 0x7E00, symBinAddr: 0x10000FC80, symSize: 0x40 }
  - { offsetInCU: 0x1E0D3, offset: 0x4DCE4, size: 0x8, addend: 0x0, symName: __ZNSt3__118__unwrap_iter_implINS_16reverse_iteratorIPP5TradeEELb0EE8__rewrapB8ue170006ES5_S5_, symObjAddr: 0x7E40, symBinAddr: 0x10000FCC0, symSize: 0x30 }
  - { offsetInCU: 0x1E0FF, offset: 0x4DD10, size: 0x8, addend: 0x0, symName: __ZNSt3__116reverse_iteratorIPP5TradeEC2B8ue170006ES3_, symObjAddr: 0x7E70, symBinAddr: 0x10000FCF0, symSize: 0x30 }
  - { offsetInCU: 0x1E135, offset: 0x4DD46, size: 0x8, addend: 0x0, symName: __ZNSt3__114__split_bufferIP5TradeRNS_9allocatorIS2_EEED2Ev, symObjAddr: 0x7EA0, symBinAddr: 0x10000FD20, symSize: 0x70 }
  - { offsetInCU: 0x1E160, offset: 0x4DD71, size: 0x8, addend: 0x0, symName: __ZNSt3__114__split_bufferIP5TradeRNS_9allocatorIS2_EEE5clearB8ue170006Ev, symObjAddr: 0x7F10, symBinAddr: 0x10000FD90, symSize: 0x20 }
  - { offsetInCU: 0x1E184, offset: 0x4DD95, size: 0x8, addend: 0x0, symName: __ZNKSt3__114__split_bufferIP5TradeRNS_9allocatorIS2_EEE8capacityB8ue170006Ev, symObjAddr: 0x7F30, symBinAddr: 0x10000FDB0, symSize: 0x30 }
  - { offsetInCU: 0x1E1A8, offset: 0x4DDB9, size: 0x8, addend: 0x0, symName: __ZNSt3__114__split_bufferIP5TradeRNS_9allocatorIS2_EEE17__destruct_at_endB8ue170006EPS2_, symObjAddr: 0x7F60, symBinAddr: 0x10000FDE0, symSize: 0x30 }
  - { offsetInCU: 0x1E1DA, offset: 0x4DDEB, size: 0x8, addend: 0x0, symName: __ZNSt3__114__split_bufferIP5TradeRNS_9allocatorIS2_EEE17__destruct_at_endB8ue170006EPS2_NS_17integral_constantIbLb0EEE, symObjAddr: 0x7F90, symBinAddr: 0x10000FE10, symSize: 0x80 }
  - { offsetInCU: 0x1E218, offset: 0x4DE29, size: 0x8, addend: 0x0, symName: __ZNKSt3__114__split_bufferIP5TradeRNS_9allocatorIS2_EEE9__end_capB8ue170006Ev, symObjAddr: 0x8010, symBinAddr: 0x10000FE90, symSize: 0x20 }
  - { offsetInCU: 0x1E23C, offset: 0x4DE4D, size: 0x8, addend: 0x0, symName: __ZNKSt3__117__compressed_pairIPP5TradeRNS_9allocatorIS2_EEE5firstB8ue170006Ev, symObjAddr: 0x8030, symBinAddr: 0x10000FEB0, symSize: 0x20 }
  - { offsetInCU: 0x1E260, offset: 0x4DE71, size: 0x8, addend: 0x0, symName: __ZNSt3__16vectorIP5TradeNS_9allocatorIS2_EEE11__make_iterB8ue170006EPS2_, symObjAddr: 0x8050, symBinAddr: 0x10000FED0, symSize: 0x30 }
  - { offsetInCU: 0x1E293, offset: 0x4DEA4, size: 0x8, addend: 0x0, symName: __ZNSt3__111__wrap_iterIPP5TradeEC1B8ue170006ES3_, symObjAddr: 0x8080, symBinAddr: 0x10000FF00, symSize: 0x30 }
  - { offsetInCU: 0x1E2C9, offset: 0x4DEDA, size: 0x8, addend: 0x0, symName: __ZNSt3__111__wrap_iterIPP5TradeEC2B8ue170006ES3_, symObjAddr: 0x80B0, symBinAddr: 0x10000FF30, symSize: 0x20 }
...
