---
triple:          'x86_64-apple-darwin'
binary-path:     '/Users/macbookpro/Desktop/projects/helloworld/code_L5/oop/main1'
relocations:
  - { offsetInCU: 0x2F6F, offset: 0x2F6F, size: 0x8, addend: 0x0, symName: __ZNSt3__124__put_character_sequenceB8ue170006IcNS_11char_traitsIcEEEERNS_13basic_ostreamIT_T0_EES7_PKS4_m, symObjAddr: 0x1F0, symBinAddr: 0x100001350, symSize: 0x1F0 }
  - { offsetInCU: 0x4906, offset: 0x4906, size: 0x8, addend: 0x0, symName: __ZNSt3__1lsB8ue170006INS_11char_traitsIcEEEERNS_13basic_ostreamIcT_EES6_PKc, symObjAddr: 0xF0, symBinAddr: 0x100001250, symSize: 0x40 }
  - { offsetInCU: 0x494C, offset: 0x494C, size: 0x8, addend: 0x0, symName: __ZNSt3__14endlB8ue170006IcNS_11char_traitsIcEEEERNS_13basic_ostreamIT_T0_EES7_, symObjAddr: 0x150, symBinAddr: 0x1000012B0, symSize: 0x50 }
  - { offsetInCU: 0x498C, offset: 0x498C, size: 0x8, addend: 0x0, symName: __ZNSt3__116__pad_and_outputB8ue170006IcNS_11char_traitsIcEEEENS_19ostreambuf_iteratorIT_T0_EES6_PKS4_S8_S8_RNS_8ios_baseES4_, symObjAddr: 0x430, symBinAddr: 0x100001590, symSize: 0x220 }
  - { offsetInCU: 0x4A5C, offset: 0x4A5C, size: 0x8, addend: 0x0, symName: __ZNSt3__112__to_addressB8ue170006IcEEPT_S2_, symObjAddr: 0x960, symBinAddr: 0x100001AC0, symSize: 0x10 }
  - { offsetInCU: 0x4AC4, offset: 0x4AC4, size: 0x8, addend: 0x0, symName: __ZNSt3__19use_facetB8ue170006INS_5ctypeIcEEEERKT_RKNS_6localeE, symObjAddr: 0xBF0, symBinAddr: 0x100001D50, symSize: 0x30 }
  - { offsetInCU: 0x4F91, offset: 0x4F91, size: 0x8, addend: 0x0, symName: __ZNSt3__118__constexpr_strlenB8ue170006EPKc, symObjAddr: 0xC80, symBinAddr: 0x100001DE0, symSize: 0x1B }
  - { offsetInCU: 0x7BBB, offset: 0x7BBB, size: 0x8, addend: 0x0, symName: __ZmiRK4DateS1_, symObjAddr: 0x0, symBinAddr: 0x100001160, symSize: 0x70 }
  - { offsetInCU: 0x7C1F, offset: 0x7C1F, size: 0x8, addend: 0x0, symName: __ZlsRNSt3__113basic_ostreamIcNS_11char_traitsIcEEEERK4Date, symObjAddr: 0x70, symBinAddr: 0x1000011D0, symSize: 0x80 }
  - { offsetInCU: 0x7C59, offset: 0x7C59, size: 0x8, addend: 0x0, symName: __ZNSt3__113basic_ostreamIcNS_11char_traitsIcEEElsB8ue170006EPFRS3_S4_E, symObjAddr: 0x130, symBinAddr: 0x100001290, symSize: 0x20 }
  - { offsetInCU: 0x7C8B, offset: 0x7C8B, size: 0x8, addend: 0x0, symName: __ZrsRNSt3__113basic_istreamIcNS_11char_traitsIcEEEER4Date, symObjAddr: 0x1A0, symBinAddr: 0x100001300, symSize: 0x50 }
  - { offsetInCU: 0x7CC5, offset: 0x7CC5, size: 0x8, addend: 0x0, symName: __ZNSt3__111char_traitsIcE6lengthB8ue170006EPKc, symObjAddr: 0x3E0, symBinAddr: 0x100001540, symSize: 0x30 }
  - { offsetInCU: 0x7D05, offset: 0x7D05, size: 0x8, addend: 0x0, symName: __ZNKSt3__113basic_ostreamIcNS_11char_traitsIcEEE6sentrycvbB8ue170006Ev, symObjAddr: 0x410, symBinAddr: 0x100001570, symSize: 0x20 }
  - { offsetInCU: 0x7D29, offset: 0x7D29, size: 0x8, addend: 0x0, symName: __ZNSt3__119ostreambuf_iteratorIcNS_11char_traitsIcEEEC1B8ue170006ERNS_13basic_ostreamIcS2_EE, symObjAddr: 0x650, symBinAddr: 0x1000017B0, symSize: 0x30 }
  - { offsetInCU: 0x7D5F, offset: 0x7D5F, size: 0x8, addend: 0x0, symName: __ZNKSt3__18ios_base5flagsB8ue170006Ev, symObjAddr: 0x680, symBinAddr: 0x1000017E0, symSize: 0x20 }
  - { offsetInCU: 0x7D85, offset: 0x7D85, size: 0x8, addend: 0x0, symName: __ZNKSt3__19basic_iosIcNS_11char_traitsIcEEE4fillB8ue170006Ev, symObjAddr: 0x6A0, symBinAddr: 0x100001800, symSize: 0x70 }
  - { offsetInCU: 0x7DAB, offset: 0x7DAB, size: 0x8, addend: 0x0, symName: __ZNKSt3__119ostreambuf_iteratorIcNS_11char_traitsIcEEE6failedB8ue170006Ev, symObjAddr: 0x710, symBinAddr: 0x100001870, symSize: 0x20 }
  - { offsetInCU: 0x7DCF, offset: 0x7DCF, size: 0x8, addend: 0x0, symName: __ZNSt3__19basic_iosIcNS_11char_traitsIcEEE8setstateB8ue170006Ej, symObjAddr: 0x730, symBinAddr: 0x100001890, symSize: 0x30 }
  - { offsetInCU: 0x7E02, offset: 0x7E02, size: 0x8, addend: 0x0, symName: __ZNKSt3__18ios_base5widthB8ue170006Ev, symObjAddr: 0x770, symBinAddr: 0x1000018D0, symSize: 0x20 }
  - { offsetInCU: 0x7E28, offset: 0x7E28, size: 0x8, addend: 0x0, symName: __ZNSt3__115basic_streambufIcNS_11char_traitsIcEEE5sputnB8ue170006EPKcl, symObjAddr: 0x790, symBinAddr: 0x1000018F0, symSize: 0x30 }
  - { offsetInCU: 0x7E68, offset: 0x7E68, size: 0x8, addend: 0x0, symName: __ZNSt3__112basic_stringIcNS_11char_traitsIcEENS_9allocatorIcEEEC1B8ue170006Emc, symObjAddr: 0x7C0, symBinAddr: 0x100001920, symSize: 0x30 }
  - { offsetInCU: 0x7EAE, offset: 0x7EAE, size: 0x8, addend: 0x0, symName: __ZNSt3__112basic_stringIcNS_11char_traitsIcEENS_9allocatorIcEEE4dataB8ue170006Ev, symObjAddr: 0x7F0, symBinAddr: 0x100001950, symSize: 0x30 }
  - { offsetInCU: 0x7ED2, offset: 0x7ED2, size: 0x8, addend: 0x0, symName: __ZNSt3__18ios_base5widthB8ue170006El, symObjAddr: 0x820, symBinAddr: 0x100001980, symSize: 0x30 }
  - { offsetInCU: 0x7F16, offset: 0x7F16, size: 0x8, addend: 0x0, symName: __ZNSt3__112basic_stringIcNS_11char_traitsIcEENS_9allocatorIcEEEC2B8ue170006Emc, symObjAddr: 0x850, symBinAddr: 0x1000019B0, symSize: 0x50 }
  - { offsetInCU: 0x7F61, offset: 0x7F61, size: 0x8, addend: 0x0, symName: __ZNSt3__117__compressed_pairINS_12basic_stringIcNS_11char_traitsIcEENS_9allocatorIcEEE5__repES5_EC1B8ue170006INS_18__default_init_tagESA_EEOT_OT0_, symObjAddr: 0x8A0, symBinAddr: 0x100001A00, symSize: 0x30 }
  - { offsetInCU: 0x7FB7, offset: 0x7FB7, size: 0x8, addend: 0x0, symName: __ZNSt3__117__compressed_pairINS_12basic_stringIcNS_11char_traitsIcEENS_9allocatorIcEEE5__repES5_EC2B8ue170006INS_18__default_init_tagESA_EEOT_OT0_, symObjAddr: 0x8D0, symBinAddr: 0x100001A30, symSize: 0x30 }
  - { offsetInCU: 0x800D, offset: 0x800D, size: 0x8, addend: 0x0, symName: __ZNSt3__122__compressed_pair_elemINS_12basic_stringIcNS_11char_traitsIcEENS_9allocatorIcEEE5__repELi0ELb0EEC2B8ue170006ENS_18__default_init_tagE, symObjAddr: 0x900, symBinAddr: 0x100001A60, symSize: 0x10 }
  - { offsetInCU: 0x803F, offset: 0x803F, size: 0x8, addend: 0x0, symName: __ZNSt3__122__compressed_pair_elemINS_9allocatorIcEELi1ELb1EEC2B8ue170006ENS_18__default_init_tagE, symObjAddr: 0x910, symBinAddr: 0x100001A70, symSize: 0x20 }
  - { offsetInCU: 0x8071, offset: 0x8071, size: 0x8, addend: 0x0, symName: __ZNSt3__19allocatorIcEC2B8ue170006Ev, symObjAddr: 0x930, symBinAddr: 0x100001A90, symSize: 0x20 }
  - { offsetInCU: 0x8099, offset: 0x8099, size: 0x8, addend: 0x0, symName: __ZNSt3__116__non_trivial_ifILb1ENS_9allocatorIcEEEC2B8ue170006Ev, symObjAddr: 0x950, symBinAddr: 0x100001AB0, symSize: 0x10 }
  - { offsetInCU: 0x80C1, offset: 0x80C1, size: 0x8, addend: 0x0, symName: __ZNSt3__112basic_stringIcNS_11char_traitsIcEENS_9allocatorIcEEE13__get_pointerB8ue170006Ev, symObjAddr: 0x970, symBinAddr: 0x100001AD0, symSize: 0x50 }
  - { offsetInCU: 0x80E5, offset: 0x80E5, size: 0x8, addend: 0x0, symName: __ZNKSt3__112basic_stringIcNS_11char_traitsIcEENS_9allocatorIcEEE9__is_longB8ue170006Ev, symObjAddr: 0x9C0, symBinAddr: 0x100001B20, symSize: 0x30 }
  - { offsetInCU: 0x8109, offset: 0x8109, size: 0x8, addend: 0x0, symName: __ZNSt3__112basic_stringIcNS_11char_traitsIcEENS_9allocatorIcEEE18__get_long_pointerB8ue170006Ev, symObjAddr: 0x9F0, symBinAddr: 0x100001B50, symSize: 0x20 }
  - { offsetInCU: 0x812D, offset: 0x812D, size: 0x8, addend: 0x0, symName: __ZNSt3__112basic_stringIcNS_11char_traitsIcEENS_9allocatorIcEEE19__get_short_pointerB8ue170006Ev, symObjAddr: 0xA10, symBinAddr: 0x100001B70, symSize: 0x30 }
  - { offsetInCU: 0x8151, offset: 0x8151, size: 0x8, addend: 0x0, symName: __ZNKSt3__117__compressed_pairINS_12basic_stringIcNS_11char_traitsIcEENS_9allocatorIcEEE5__repES5_E5firstB8ue170006Ev, symObjAddr: 0xA40, symBinAddr: 0x100001BA0, symSize: 0x20 }
  - { offsetInCU: 0x8175, offset: 0x8175, size: 0x8, addend: 0x0, symName: __ZNKSt3__122__compressed_pair_elemINS_12basic_stringIcNS_11char_traitsIcEENS_9allocatorIcEEE5__repELi0ELb0EE5__getB8ue170006Ev, symObjAddr: 0xA60, symBinAddr: 0x100001BC0, symSize: 0x10 }
  - { offsetInCU: 0x8199, offset: 0x8199, size: 0x8, addend: 0x0, symName: __ZNSt3__117__compressed_pairINS_12basic_stringIcNS_11char_traitsIcEENS_9allocatorIcEEE5__repES5_E5firstB8ue170006Ev, symObjAddr: 0xA70, symBinAddr: 0x100001BD0, symSize: 0x20 }
  - { offsetInCU: 0x81BD, offset: 0x81BD, size: 0x8, addend: 0x0, symName: __ZNSt3__122__compressed_pair_elemINS_12basic_stringIcNS_11char_traitsIcEENS_9allocatorIcEEE5__repELi0ELb0EE5__getB8ue170006Ev, symObjAddr: 0xA90, symBinAddr: 0x100001BF0, symSize: 0x10 }
  - { offsetInCU: 0x81E1, offset: 0x81E1, size: 0x8, addend: 0x0, symName: __ZNSt3__114pointer_traitsIPcE10pointer_toB8ue170006ERc, symObjAddr: 0xAA0, symBinAddr: 0x100001C00, symSize: 0x10 }
  - { offsetInCU: 0x8203, offset: 0x8203, size: 0x8, addend: 0x0, symName: __ZNSt3__119ostreambuf_iteratorIcNS_11char_traitsIcEEEC2B8ue170006ERNS_13basic_ostreamIcS2_EE, symObjAddr: 0xAB0, symBinAddr: 0x100001C10, symSize: 0x50 }
  - { offsetInCU: 0x8239, offset: 0x8239, size: 0x8, addend: 0x0, symName: __ZNKSt3__19basic_iosIcNS_11char_traitsIcEEE5rdbufB8ue170006Ev, symObjAddr: 0xB00, symBinAddr: 0x100001C60, symSize: 0x20 }
  - { offsetInCU: 0x825F, offset: 0x825F, size: 0x8, addend: 0x0, symName: __ZNKSt3__18ios_base5rdbufB8ue170006Ev, symObjAddr: 0xB20, symBinAddr: 0x100001C80, symSize: 0x20 }
  - { offsetInCU: 0x8283, offset: 0x8283, size: 0x8, addend: 0x0, symName: __ZNSt3__111char_traitsIcE11eq_int_typeB8ue170006Eii, symObjAddr: 0xB40, symBinAddr: 0x100001CA0, symSize: 0x20 }
  - { offsetInCU: 0x82B5, offset: 0x82B5, size: 0x8, addend: 0x0, symName: __ZNSt3__111char_traitsIcE3eofB8ue170006Ev, symObjAddr: 0xB60, symBinAddr: 0x100001CC0, symSize: 0x10 }
  - { offsetInCU: 0x82C8, offset: 0x82C8, size: 0x8, addend: 0x0, symName: __ZNKSt3__19basic_iosIcNS_11char_traitsIcEEE5widenB8ue170006Ec, symObjAddr: 0xB70, symBinAddr: 0x100001CD0, symSize: 0x80 }
  - { offsetInCU: 0x8334, offset: 0x8334, size: 0x8, addend: 0x0, symName: __ZNKSt3__15ctypeIcE5widenB8ue170006Ec, symObjAddr: 0xC20, symBinAddr: 0x100001D80, symSize: 0x30 }
  - { offsetInCU: 0x8367, offset: 0x8367, size: 0x8, addend: 0x0, symName: __ZNSt3__18ios_base8setstateB8ue170006Ej, symObjAddr: 0xC50, symBinAddr: 0x100001DB0, symSize: 0x30 }
  - { offsetInCU: 0xBDFB, offset: 0x142D5, size: 0x8, addend: 0x0, symName: __ZNSt3__1lsB8ue170006IcNS_11char_traitsIcEENS_9allocatorIcEEEERNS_13basic_ostreamIT_T0_EES9_RKNS_12basic_stringIS6_S7_T1_EE, symObjAddr: 0x100, symBinAddr: 0x100001F00, symSize: 0x50 }
  - { offsetInCU: 0xFB3D, offset: 0x18017, size: 0x8, addend: 0x0, symName: __ZNSt3__1neB8ue170006ERKNS_25__hash_map_const_iteratorINS_21__hash_const_iteratorIPNS_11__hash_nodeINS_17__hash_value_typeINS_12basic_stringIcNS_11char_traitsIcEENS_9allocatorIcEEEE9RateCurveEEPvEEEEEESI_, symObjAddr: 0x5D0, symBinAddr: 0x100002320, symSize: 0x30 }
  - { offsetInCU: 0xFB7A, offset: 0x18054, size: 0x8, addend: 0x0, symName: __ZNSt3__1neB8ue170006ERKNS_25__hash_map_const_iteratorINS_21__hash_const_iteratorIPNS_11__hash_nodeINS_17__hash_value_typeINS_12basic_stringIcNS_11char_traitsIcEENS_9allocatorIcEEEE8VolCurveEEPvEEEEEESI_, symObjAddr: 0x710, symBinAddr: 0x100002460, symSize: 0x30 }
  - { offsetInCU: 0xFBB7, offset: 0x18091, size: 0x8, addend: 0x0, symName: __ZNSt3__122__make_exception_guardB8ue170006INS_6vectorI4DateNS_9allocatorIS2_EEE16__destroy_vectorEEENS_28__exception_guard_exceptionsIT_EES8_, symObjAddr: 0xCF0, symBinAddr: 0x100002A40, symSize: 0x40 }
  - { offsetInCU: 0xFBEC, offset: 0x180C6, size: 0x8, addend: 0x0, symName: __ZNSt3__119__allocate_at_leastB8ue170006INS_9allocatorI4DateEEEENS_19__allocation_resultINS_16allocator_traitsIT_E7pointerEEERS6_m, symObjAddr: 0xFC0, symBinAddr: 0x100002D10, symSize: 0x40 }
  - { offsetInCU: 0xFC2F, offset: 0x18109, size: 0x8, addend: 0x0, symName: __ZNSt3__13minB8ue170006ImEERKT_S3_S3_, symObjAddr: 0x10E0, symBinAddr: 0x100002E30, symSize: 0x30 }
  - { offsetInCU: 0xFE5C, offset: 0x18336, size: 0x8, addend: 0x0, symName: __ZNSt3__13minB8ue170006ImNS_6__lessIvvEEEERKT_S5_S5_T0_, symObjAddr: 0x1150, symBinAddr: 0x100002E90, symSize: 0x50 }
  - { offsetInCU: 0xFEFD, offset: 0x183D7, size: 0x8, addend: 0x0, symName: __ZNSt3__120__throw_length_errorB8ue170006EPKc, symObjAddr: 0x1200, symBinAddr: 0x100002F40, symSize: 0x70 }
  - { offsetInCU: 0xFF28, offset: 0x18402, size: 0x8, addend: 0x0, symName: __ZNSt3__117__libcpp_allocateB8ue170006Emm, symObjAddr: 0x1370, symBinAddr: 0x1000030B0, symSize: 0x60 }
  - { offsetInCU: 0xFF83, offset: 0x1845D, size: 0x8, addend: 0x0, symName: __ZNSt3__124__is_overaligned_for_newB8ue170006Em, symObjAddr: 0x13D0, symBinAddr: 0x100003110, symSize: 0x20 }
  - { offsetInCU: 0xFFB1, offset: 0x1848B, size: 0x8, addend: 0x0, symName: __ZNSt3__121__libcpp_operator_newB8ue170006IJmSt11align_val_tEEEPvDpT_, symObjAddr: 0x13F0, symBinAddr: 0x100003130, symSize: 0x30 }
  - { offsetInCU: 0xFFFE, offset: 0x184D8, size: 0x8, addend: 0x0, symName: __ZNSt3__121__libcpp_operator_newB8ue170006IJmEEEPvDpT_, symObjAddr: 0x1420, symBinAddr: 0x100003160, symSize: 0x20 }
  - { offsetInCU: 0x10037, offset: 0x18511, size: 0x8, addend: 0x0, symName: __ZNSt3__112__to_addressB8ue170006I4DateEEPT_S3_, symObjAddr: 0x1520, symBinAddr: 0x100003260, symSize: 0x10 }
  - { offsetInCU: 0x1006C, offset: 0x18546, size: 0x8, addend: 0x0, symName: __ZNSt3__130__uninitialized_allocator_copyB8ue170006INS_9allocatorI4DateEEPS2_S4_S4_EET2_RT_T0_T1_S5_, symObjAddr: 0x15B0, symBinAddr: 0x1000032F0, symSize: 0x80 }
  - { offsetInCU: 0x10109, offset: 0x185E3, size: 0x8, addend: 0x0, symName: __ZNSt3__114__unwrap_rangeB8ue170006IP4DateS2_EENS_4pairIT0_S4_EET_S6_, symObjAddr: 0x1690, symBinAddr: 0x1000033D0, symSize: 0x50 }
  - { offsetInCU: 0x10155, offset: 0x1862F, size: 0x8, addend: 0x0, symName: __ZNSt3__135__uninitialized_allocator_copy_implB8ue170006INS_9allocatorI4DateEES2_S2_S2_LPv0EEEPT2_RT_PT0_SA_S6_, symObjAddr: 0x16E0, symBinAddr: 0x100003420, symSize: 0x30 }
  - { offsetInCU: 0x101D8, offset: 0x186B2, size: 0x8, addend: 0x0, symName: __ZNSt3__113__unwrap_iterB8ue170006IP4DateNS_18__unwrap_iter_implIS2_Lb1EEELi0EEEDTclsrT0_8__unwrapclsr3stdE7declvalIT_EEEES6_, symObjAddr: 0x1710, symBinAddr: 0x100003450, symSize: 0x20 }
  - { offsetInCU: 0x1021D, offset: 0x186F7, size: 0x8, addend: 0x0, symName: __ZNSt3__113__rewrap_iterB8ue170006IP4DateS2_NS_18__unwrap_iter_implIS2_Lb1EEEEET_S5_T0_, symObjAddr: 0x1730, symBinAddr: 0x100003470, symSize: 0x40 }
  - { offsetInCU: 0x10272, offset: 0x1874C, size: 0x8, addend: 0x0, symName: __ZNSt3__19make_pairB8ue170006IP4DateS2_EENS_4pairINS_18__unwrap_ref_decayIT_E4typeENS4_IT0_E4typeEEEOS5_OS8_, symObjAddr: 0x1770, symBinAddr: 0x1000034B0, symSize: 0x30 }
  - { offsetInCU: 0x103C6, offset: 0x188A0, size: 0x8, addend: 0x0, symName: __ZNSt3__14copyB8ue170006IP4DateS2_EET0_T_S4_S3_, symObjAddr: 0x1800, symBinAddr: 0x100003540, symSize: 0x40 }
  - { offsetInCU: 0x10420, offset: 0x188FA, size: 0x8, addend: 0x0, symName: __ZNSt3__16__copyB8ue170006INS_17_ClassicAlgPolicyEP4DateS3_S3_EENS_4pairIT0_T2_EES5_T1_S6_, symObjAddr: 0x1840, symBinAddr: 0x100003580, symSize: 0x40 }
  - { offsetInCU: 0x1048C, offset: 0x18966, size: 0x8, addend: 0x0, symName: __ZNSt3__123__dispatch_copy_or_moveB8ue170006INS_17_ClassicAlgPolicyENS_11__copy_loopIS1_EENS_14__copy_trivialEP4DateS6_S6_EENS_4pairIT2_T4_EES8_T3_S9_, symObjAddr: 0x1880, symBinAddr: 0x1000035C0, symSize: 0x40 }
  - { offsetInCU: 0x1050A, offset: 0x189E4, size: 0x8, addend: 0x0, symName: __ZNSt3__121__unwrap_and_dispatchB8ue170006INS_10__overloadINS_11__copy_loopINS_17_ClassicAlgPolicyEEENS_14__copy_trivialEEEP4DateS8_S8_Li0EEENS_4pairIT0_T2_EESA_T1_SB_, symObjAddr: 0x18C0, symBinAddr: 0x100003600, symSize: 0xB0 }
  - { offsetInCU: 0x1061E, offset: 0x18AF8, size: 0x8, addend: 0x0, symName: __ZNSt3__114__rewrap_rangeB8ue170006IP4DateS2_EET_S3_T0_, symObjAddr: 0x19B0, symBinAddr: 0x1000036F0, symSize: 0x30 }
  - { offsetInCU: 0x1066A, offset: 0x18B44, size: 0x8, addend: 0x0, symName: __ZNSt3__119__copy_trivial_implB8ue170006I4DateS1_EENS_4pairIPT_PT0_EES4_S4_S6_, symObjAddr: 0x19E0, symBinAddr: 0x100003720, symSize: 0x80 }
  - { offsetInCU: 0x106D2, offset: 0x18BAC, size: 0x8, addend: 0x0, symName: __ZNSt3__119__constexpr_memmoveB8ue170006I4DateS1_Li0EEEPT_S3_PT0_NS_15__element_countE, symObjAddr: 0x1A60, symBinAddr: 0x1000037A0, symSize: 0x50 }
  - { offsetInCU: 0x10741, offset: 0x18C1B, size: 0x8, addend: 0x0, symName: __ZNSt3__19make_pairB8ue170006IRP4DateS2_EENS_4pairINS_18__unwrap_ref_decayIT_E4typeENS5_IT0_E4typeEEEOS6_OS9_, symObjAddr: 0x1AB0, symBinAddr: 0x1000037F0, symSize: 0x30 }
  - { offsetInCU: 0x107E4, offset: 0x18CBE, size: 0x8, addend: 0x0, symName: __ZNSt3__119__libcpp_deallocateB8ue170006EPvmm, symObjAddr: 0x1EB0, symBinAddr: 0x100003BF0, symSize: 0x60 }
  - { offsetInCU: 0x1084B, offset: 0x18D25, size: 0x8, addend: 0x0, symName: __ZNSt3__127__do_deallocate_handle_sizeB8ue170006IJSt11align_val_tEEEvPvmDpT_, symObjAddr: 0x1F10, symBinAddr: 0x100003C50, symSize: 0x30 }
  - { offsetInCU: 0x1089F, offset: 0x18D79, size: 0x8, addend: 0x0, symName: __ZNSt3__127__do_deallocate_handle_sizeB8ue170006IJEEEvPvmDpT_, symObjAddr: 0x1F40, symBinAddr: 0x100003C80, symSize: 0x20 }
  - { offsetInCU: 0x108DF, offset: 0x18DB9, size: 0x8, addend: 0x0, symName: __ZNSt3__124__libcpp_operator_deleteB8ue170006IJPvSt11align_val_tEEEvDpT_, symObjAddr: 0x1F60, symBinAddr: 0x100003CA0, symSize: 0x30 }
  - { offsetInCU: 0x10929, offset: 0x18E03, size: 0x8, addend: 0x0, symName: __ZNSt3__124__libcpp_operator_deleteB8ue170006IJPvEEEvDpT_, symObjAddr: 0x1F90, symBinAddr: 0x100003CD0, symSize: 0x20 }
  - { offsetInCU: 0x1095F, offset: 0x18E39, size: 0x8, addend: 0x0, symName: __ZNSt3__122__make_exception_guardB8ue170006INS_6vectorIdNS_9allocatorIdEEE16__destroy_vectorEEENS_28__exception_guard_exceptionsIT_EES7_, symObjAddr: 0x2220, symBinAddr: 0x100003F60, symSize: 0x40 }
  - { offsetInCU: 0x10994, offset: 0x18E6E, size: 0x8, addend: 0x0, symName: __ZNSt3__119__allocate_at_leastB8ue170006INS_9allocatorIdEEEENS_19__allocation_resultINS_16allocator_traitsIT_E7pointerEEERS5_m, symObjAddr: 0x24F0, symBinAddr: 0x100004230, symSize: 0x40 }
  - { offsetInCU: 0x109D7, offset: 0x18EB1, size: 0x8, addend: 0x0, symName: __ZNSt3__112__to_addressB8ue170006IdEEPT_S2_, symObjAddr: 0x2780, symBinAddr: 0x1000044C0, symSize: 0x10 }
  - { offsetInCU: 0x10A0C, offset: 0x18EE6, size: 0x8, addend: 0x0, symName: __ZNSt3__130__uninitialized_allocator_copyB8ue170006INS_9allocatorIdEEPdS3_S3_EET2_RT_T0_T1_S4_, symObjAddr: 0x2810, symBinAddr: 0x100004550, symSize: 0x80 }
  - { offsetInCU: 0x10AA9, offset: 0x18F83, size: 0x8, addend: 0x0, symName: __ZNSt3__114__unwrap_rangeB8ue170006IPdS1_EENS_4pairIT0_S3_EET_S5_, symObjAddr: 0x28F0, symBinAddr: 0x100004630, symSize: 0x50 }
  - { offsetInCU: 0x10AF5, offset: 0x18FCF, size: 0x8, addend: 0x0, symName: __ZNSt3__135__uninitialized_allocator_copy_implB8ue170006INS_9allocatorIdEEdddLPv0EEEPT2_RT_PT0_S9_S5_, symObjAddr: 0x2940, symBinAddr: 0x100004680, symSize: 0x30 }
  - { offsetInCU: 0x10B78, offset: 0x19052, size: 0x8, addend: 0x0, symName: __ZNSt3__113__unwrap_iterB8ue170006IPdNS_18__unwrap_iter_implIS1_Lb1EEELi0EEEDTclsrT0_8__unwrapclsr3stdE7declvalIT_EEEES5_, symObjAddr: 0x2970, symBinAddr: 0x1000046B0, symSize: 0x20 }
  - { offsetInCU: 0x10BBD, offset: 0x19097, size: 0x8, addend: 0x0, symName: __ZNSt3__113__rewrap_iterB8ue170006IPdS1_NS_18__unwrap_iter_implIS1_Lb1EEEEET_S4_T0_, symObjAddr: 0x2990, symBinAddr: 0x1000046D0, symSize: 0x40 }
  - { offsetInCU: 0x10C12, offset: 0x190EC, size: 0x8, addend: 0x0, symName: __ZNSt3__19make_pairB8ue170006IPdS1_EENS_4pairINS_18__unwrap_ref_decayIT_E4typeENS3_IT0_E4typeEEEOS4_OS7_, symObjAddr: 0x29D0, symBinAddr: 0x100004710, symSize: 0x30 }
  - { offsetInCU: 0x10D66, offset: 0x19240, size: 0x8, addend: 0x0, symName: __ZNSt3__14copyB8ue170006IPdS1_EET0_T_S3_S2_, symObjAddr: 0x2A60, symBinAddr: 0x1000047A0, symSize: 0x40 }
  - { offsetInCU: 0x10DC0, offset: 0x1929A, size: 0x8, addend: 0x0, symName: __ZNSt3__16__copyB8ue170006INS_17_ClassicAlgPolicyEPdS2_S2_EENS_4pairIT0_T2_EES4_T1_S5_, symObjAddr: 0x2AA0, symBinAddr: 0x1000047E0, symSize: 0x40 }
  - { offsetInCU: 0x10E2C, offset: 0x19306, size: 0x8, addend: 0x0, symName: __ZNSt3__123__dispatch_copy_or_moveB8ue170006INS_17_ClassicAlgPolicyENS_11__copy_loopIS1_EENS_14__copy_trivialEPdS5_S5_EENS_4pairIT2_T4_EES7_T3_S8_, symObjAddr: 0x2AE0, symBinAddr: 0x100004820, symSize: 0x40 }
  - { offsetInCU: 0x10EAA, offset: 0x19384, size: 0x8, addend: 0x0, symName: __ZNSt3__121__unwrap_and_dispatchB8ue170006INS_10__overloadINS_11__copy_loopINS_17_ClassicAlgPolicyEEENS_14__copy_trivialEEEPdS7_S7_Li0EEENS_4pairIT0_T2_EES9_T1_SA_, symObjAddr: 0x2B20, symBinAddr: 0x100004860, symSize: 0xB0 }
  - { offsetInCU: 0x10F3A, offset: 0x19414, size: 0x8, addend: 0x0, symName: __ZNSt3__114__rewrap_rangeB8ue170006IPdS1_EET_S2_T0_, symObjAddr: 0x2C10, symBinAddr: 0x100004950, symSize: 0x30 }
  - { offsetInCU: 0x10F86, offset: 0x19460, size: 0x8, addend: 0x0, symName: __ZNSt3__119__copy_trivial_implB8ue170006IddEENS_4pairIPT_PT0_EES3_S3_S5_, symObjAddr: 0x2C40, symBinAddr: 0x100004980, symSize: 0x70 }
  - { offsetInCU: 0x10FEE, offset: 0x194C8, size: 0x8, addend: 0x0, symName: __ZNSt3__119__constexpr_memmoveB8ue170006IddLi0EEEPT_S2_PT0_NS_15__element_countE, symObjAddr: 0x2CB0, symBinAddr: 0x1000049F0, symSize: 0x50 }
  - { offsetInCU: 0x1105D, offset: 0x19537, size: 0x8, addend: 0x0, symName: __ZNSt3__19make_pairB8ue170006IRPdS1_EENS_4pairINS_18__unwrap_ref_decayIT_E4typeENS4_IT0_E4typeEEEOS5_OS8_, symObjAddr: 0x2D00, symBinAddr: 0x100004A40, symSize: 0x30 }
  - { offsetInCU: 0x11100, offset: 0x195DA, size: 0x8, addend: 0x0, symName: __ZNSt3__112__to_addressB8ue170006IKcEEPT_S3_, symObjAddr: 0x3EF0, symBinAddr: 0x100005190, symSize: 0x10 }
  - { offsetInCU: 0x11168, offset: 0x19642, size: 0x8, addend: 0x0, symName: __ZNSt3__13maxB8ue170006ImEERKT_S3_S3_, symObjAddr: 0x43E0, symBinAddr: 0x100005680, symSize: 0x30 }
  - { offsetInCU: 0x111AB, offset: 0x19685, size: 0x8, addend: 0x0, symName: __ZNSt3__13maxB8ue170006ImNS_6__lessIvvEEEERKT_S5_S5_T0_, symObjAddr: 0x4410, symBinAddr: 0x1000056B0, symSize: 0x50 }
  - { offsetInCU: 0x11205, offset: 0x196DF, size: 0x8, addend: 0x0, symName: __ZNSt3__142__uninitialized_allocator_move_if_noexceptB8ue170006INS_9allocatorI4DateEENS_16reverse_iteratorIPS2_EES6_S2_vEET1_RT_T0_SA_S7_, symObjAddr: 0x4650, symBinAddr: 0x1000058F0, symSize: 0x70 }
  - { offsetInCU: 0x11282, offset: 0x1975C, size: 0x8, addend: 0x0, symName: __ZNSt3__14swapB8ue170006IP4DateEENS_9enable_ifIXaasr21is_move_constructibleIT_EE5valuesr18is_move_assignableIS4_EE5valueEvE4typeERS4_S7_, symObjAddr: 0x4710, symBinAddr: 0x1000059B0, symSize: 0x40 }
  - { offsetInCU: 0x112D3, offset: 0x197AD, size: 0x8, addend: 0x0, symName: __ZNSt3__14moveB8ue170006INS_16reverse_iteratorIP4DateEES4_EET0_T_S6_S5_, symObjAddr: 0x4750, symBinAddr: 0x1000059F0, symSize: 0x80 }
  - { offsetInCU: 0x1132D, offset: 0x19807, size: 0x8, addend: 0x0, symName: __ZNSt3__16__moveB8ue170006INS_17_ClassicAlgPolicyENS_16reverse_iteratorIP4DateEES5_S5_EENS_4pairIT0_T2_EES7_T1_S8_, symObjAddr: 0x47D0, symBinAddr: 0x100005A70, symSize: 0x90 }
  - { offsetInCU: 0x11399, offset: 0x19873, size: 0x8, addend: 0x0, symName: __ZNSt3__123__dispatch_copy_or_moveB8ue170006INS_17_ClassicAlgPolicyENS_11__move_loopIS1_EENS_14__move_trivialENS_16reverse_iteratorIP4DateEES8_S8_EENS_4pairIT2_T4_EESA_T3_SB_, symObjAddr: 0x4860, symBinAddr: 0x100005B00, symSize: 0x90 }
  - { offsetInCU: 0x11417, offset: 0x198F1, size: 0x8, addend: 0x0, symName: __ZNSt3__121__unwrap_and_dispatchB8ue170006INS_10__overloadINS_11__move_loopINS_17_ClassicAlgPolicyEEENS_14__move_trivialEEENS_16reverse_iteratorIP4DateEESA_SA_Li0EEENS_4pairIT0_T2_EESC_T1_SD_, symObjAddr: 0x48F0, symBinAddr: 0x100005B90, symSize: 0x210 }
  - { offsetInCU: 0x114A7, offset: 0x19981, size: 0x8, addend: 0x0, symName: __ZNSt3__114__unwrap_rangeB8ue170006INS_16reverse_iteratorIP4DateEES4_EENS_4pairIT0_S6_EET_S8_, symObjAddr: 0x4B00, symBinAddr: 0x100005DA0, symSize: 0x90 }
  - { offsetInCU: 0x11662, offset: 0x19B3C, size: 0x8, addend: 0x0, symName: __ZNSt3__113__unwrap_iterB8ue170006INS_16reverse_iteratorIP4DateEENS_18__unwrap_iter_implIS4_Lb0EEELi0EEEDTclsrT0_8__unwrapclsr3stdE7declvalIT_EEEES8_, symObjAddr: 0x4C30, symBinAddr: 0x100005ED0, symSize: 0x40 }
  - { offsetInCU: 0x116A7, offset: 0x19B81, size: 0x8, addend: 0x0, symName: __ZNSt3__19make_pairB8ue170006INS_16reverse_iteratorIP4DateEES4_EENS_4pairINS_18__unwrap_ref_decayIT_E4typeENS6_IT0_E4typeEEEOS7_OSA_, symObjAddr: 0x4C70, symBinAddr: 0x100005F10, symSize: 0x30 }
  - { offsetInCU: 0x116F6, offset: 0x19BD0, size: 0x8, addend: 0x0, symName: __ZNSt3__114__rewrap_rangeB8ue170006INS_16reverse_iteratorIP4DateEES4_EET_S5_T0_, symObjAddr: 0x4CA0, symBinAddr: 0x100005F40, symSize: 0x60 }
  - { offsetInCU: 0x11742, offset: 0x19C1C, size: 0x8, addend: 0x0, symName: __ZNSt3__113__rewrap_iterB8ue170006INS_16reverse_iteratorIP4DateEES4_NS_18__unwrap_iter_implIS4_Lb0EEEEET_S7_T0_, symObjAddr: 0x4D00, symBinAddr: 0x100005FA0, symSize: 0x70 }
  - { offsetInCU: 0x11797, offset: 0x19C71, size: 0x8, addend: 0x0, symName: __ZNSt3__1neB8ue170006IP4DateS2_EEbRKNS_16reverse_iteratorIT_EERKNS3_IT0_EE, symObjAddr: 0x4D70, symBinAddr: 0x100006010, symSize: 0x40 }
  - { offsetInCU: 0x118CA, offset: 0x19DA4, size: 0x8, addend: 0x0, symName: __ZNSt3__142__uninitialized_allocator_move_if_noexceptB8ue170006INS_9allocatorIdEENS_16reverse_iteratorIPdEES5_dvEET1_RT_T0_S9_S6_, symObjAddr: 0x56C0, symBinAddr: 0x100006960, symSize: 0x70 }
  - { offsetInCU: 0x11947, offset: 0x19E21, size: 0x8, addend: 0x0, symName: __ZNSt3__14swapB8ue170006IPdEENS_9enable_ifIXaasr21is_move_constructibleIT_EE5valuesr18is_move_assignableIS3_EE5valueEvE4typeERS3_S6_, symObjAddr: 0x5780, symBinAddr: 0x100006A20, symSize: 0x40 }
  - { offsetInCU: 0x11998, offset: 0x19E72, size: 0x8, addend: 0x0, symName: __ZNSt3__14moveB8ue170006INS_16reverse_iteratorIPdEES3_EET0_T_S5_S4_, symObjAddr: 0x57C0, symBinAddr: 0x100006A60, symSize: 0x80 }
  - { offsetInCU: 0x119F2, offset: 0x19ECC, size: 0x8, addend: 0x0, symName: __ZNSt3__16__moveB8ue170006INS_17_ClassicAlgPolicyENS_16reverse_iteratorIPdEES4_S4_EENS_4pairIT0_T2_EES6_T1_S7_, symObjAddr: 0x5840, symBinAddr: 0x100006AE0, symSize: 0x90 }
  - { offsetInCU: 0x11A5E, offset: 0x19F38, size: 0x8, addend: 0x0, symName: __ZNSt3__123__dispatch_copy_or_moveB8ue170006INS_17_ClassicAlgPolicyENS_11__move_loopIS1_EENS_14__move_trivialENS_16reverse_iteratorIPdEES7_S7_EENS_4pairIT2_T4_EES9_T3_SA_, symObjAddr: 0x58D0, symBinAddr: 0x100006B70, symSize: 0x90 }
  - { offsetInCU: 0x11ADC, offset: 0x19FB6, size: 0x8, addend: 0x0, symName: __ZNSt3__121__unwrap_and_dispatchB8ue170006INS_10__overloadINS_11__move_loopINS_17_ClassicAlgPolicyEEENS_14__move_trivialEEENS_16reverse_iteratorIPdEES9_S9_Li0EEENS_4pairIT0_T2_EESB_T1_SC_, symObjAddr: 0x5960, symBinAddr: 0x100006C00, symSize: 0x210 }
  - { offsetInCU: 0x11B6C, offset: 0x1A046, size: 0x8, addend: 0x0, symName: __ZNSt3__114__unwrap_rangeB8ue170006INS_16reverse_iteratorIPdEES3_EENS_4pairIT0_S5_EET_S7_, symObjAddr: 0x5B70, symBinAddr: 0x100006E10, symSize: 0x90 }
  - { offsetInCU: 0x11C8D, offset: 0x1A167, size: 0x8, addend: 0x0, symName: __ZNSt3__113__unwrap_iterB8ue170006INS_16reverse_iteratorIPdEENS_18__unwrap_iter_implIS3_Lb0EEELi0EEEDTclsrT0_8__unwrapclsr3stdE7declvalIT_EEEES7_, symObjAddr: 0x5CA0, symBinAddr: 0x100006F40, symSize: 0x40 }
  - { offsetInCU: 0x11CD2, offset: 0x1A1AC, size: 0x8, addend: 0x0, symName: __ZNSt3__19make_pairB8ue170006INS_16reverse_iteratorIPdEES3_EENS_4pairINS_18__unwrap_ref_decayIT_E4typeENS5_IT0_E4typeEEEOS6_OS9_, symObjAddr: 0x5CE0, symBinAddr: 0x100006F80, symSize: 0x30 }
  - { offsetInCU: 0x11D21, offset: 0x1A1FB, size: 0x8, addend: 0x0, symName: __ZNSt3__114__rewrap_rangeB8ue170006INS_16reverse_iteratorIPdEES3_EET_S4_T0_, symObjAddr: 0x5D10, symBinAddr: 0x100006FB0, symSize: 0x60 }
  - { offsetInCU: 0x11D6D, offset: 0x1A247, size: 0x8, addend: 0x0, symName: __ZNSt3__113__rewrap_iterB8ue170006INS_16reverse_iteratorIPdEES3_NS_18__unwrap_iter_implIS3_Lb0EEEEET_S6_T0_, symObjAddr: 0x5D70, symBinAddr: 0x100007010, symSize: 0x70 }
  - { offsetInCU: 0x11DC2, offset: 0x1A29C, size: 0x8, addend: 0x0, symName: __ZNSt3__1neB8ue170006IPdS1_EEbRKNS_16reverse_iteratorIT_EERKNS2_IT0_EE, symObjAddr: 0x5DE0, symBinAddr: 0x100007080, symSize: 0x40 }
  - { offsetInCU: 0x11E7C, offset: 0x1A356, size: 0x8, addend: 0x0, symName: __ZNSt3__1neB8ue170006ERKNS_21__hash_const_iteratorIPNS_11__hash_nodeINS_17__hash_value_typeINS_12basic_stringIcNS_11char_traitsIcEENS_9allocatorIcEEEE9RateCurveEEPvEEEESG_, symObjAddr: 0x6270, symBinAddr: 0x100007510, symSize: 0x30 }
  - { offsetInCU: 0x11EB9, offset: 0x1A393, size: 0x8, addend: 0x0, symName: __ZNSt3__1eqB8ue170006ERKNS_21__hash_const_iteratorIPNS_11__hash_nodeINS_17__hash_value_typeINS_12basic_stringIcNS_11char_traitsIcEENS_9allocatorIcEEEE9RateCurveEEPvEEEESG_, symObjAddr: 0x62A0, symBinAddr: 0x100007540, symSize: 0x30 }
  - { offsetInCU: 0x11F5C, offset: 0x1A436, size: 0x8, addend: 0x0, symName: __ZNSt3__17launderB8ue170006IKNS_4pairIKNS_12basic_stringIcNS_11char_traitsIcEENS_9allocatorIcEEEE9RateCurveEEEEPT_SD_, symObjAddr: 0x6380, symBinAddr: 0x100007620, symSize: 0x20 }
  - { offsetInCU: 0x11F93, offset: 0x1A46D, size: 0x8, addend: 0x0, symName: __ZNSt3__19__launderB8ue170006IKNS_4pairIKNS_12basic_stringIcNS_11char_traitsIcEENS_9allocatorIcEEEE9RateCurveEEEEPT_SD_, symObjAddr: 0x63A0, symBinAddr: 0x100007640, symSize: 0x10 }
  - { offsetInCU: 0x11FCA, offset: 0x1A4A4, size: 0x8, addend: 0x0, symName: __ZNSt3__1neB8ue170006ERKNS_21__hash_const_iteratorIPNS_11__hash_nodeINS_17__hash_value_typeINS_12basic_stringIcNS_11char_traitsIcEENS_9allocatorIcEEEE8VolCurveEEPvEEEESG_, symObjAddr: 0x64E0, symBinAddr: 0x100007780, symSize: 0x30 }
  - { offsetInCU: 0x12007, offset: 0x1A4E1, size: 0x8, addend: 0x0, symName: __ZNSt3__1eqB8ue170006ERKNS_21__hash_const_iteratorIPNS_11__hash_nodeINS_17__hash_value_typeINS_12basic_stringIcNS_11char_traitsIcEENS_9allocatorIcEEEE8VolCurveEEPvEEEESG_, symObjAddr: 0x6510, symBinAddr: 0x1000077B0, symSize: 0x30 }
  - { offsetInCU: 0x120AA, offset: 0x1A584, size: 0x8, addend: 0x0, symName: __ZNSt3__17launderB8ue170006IKNS_4pairIKNS_12basic_stringIcNS_11char_traitsIcEENS_9allocatorIcEEEE8VolCurveEEEEPT_SD_, symObjAddr: 0x65F0, symBinAddr: 0x100007890, symSize: 0x20 }
  - { offsetInCU: 0x120E1, offset: 0x1A5BB, size: 0x8, addend: 0x0, symName: __ZNSt3__19__launderB8ue170006IKNS_4pairIKNS_12basic_stringIcNS_11char_traitsIcEENS_9allocatorIcEEEE8VolCurveEEEEPT_SD_, symObjAddr: 0x6610, symBinAddr: 0x1000078B0, symSize: 0x10 }
  - { offsetInCU: 0x1213D, offset: 0x1A617, size: 0x8, addend: 0x0, symName: __ZNSt3__116__constrain_hashB8ue170006Emm, symObjAddr: 0x6D60, symBinAddr: 0x100008000, symSize: 0x80 }
  - { offsetInCU: 0x12177, offset: 0x1A651, size: 0x8, addend: 0x0, symName: __ZNSt3__116__is_hash_power2B8ue170006Em, symObjAddr: 0x7040, symBinAddr: 0x1000082E0, symSize: 0x40 }
  - { offsetInCU: 0x121A3, offset: 0x1A67D, size: 0x8, addend: 0x0, symName: __ZNSt3__116__do_string_hashB8ue170006IPKcEEmT_S3_, symObjAddr: 0x7270, symBinAddr: 0x100008510, symSize: 0x40 }
  - { offsetInCU: 0x121E9, offset: 0x1A6C3, size: 0x8, addend: 0x0, symName: __ZNSt3__110__loadwordB8ue170006ImEET_PKv, symObjAddr: 0x7B60, symBinAddr: 0x100008E00, symSize: 0x20 }
  - { offsetInCU: 0x1222C, offset: 0x1A706, size: 0x8, addend: 0x0, symName: __ZNSt3__14swapB8ue170006ImEENS_9enable_ifIXaasr21is_move_constructibleIT_EE5valuesr18is_move_assignableIS2_EE5valueEvE4typeERS2_S5_, symObjAddr: 0x7D20, symBinAddr: 0x100008FC0, symSize: 0x40 }
  - { offsetInCU: 0x1227D, offset: 0x1A757, size: 0x8, addend: 0x0, symName: __ZNSt3__110__loadwordB8ue170006IjEET_PKv, symObjAddr: 0x7DB0, symBinAddr: 0x100009050, symSize: 0x20 }
  - { offsetInCU: 0x122C0, offset: 0x1A79A, size: 0x8, addend: 0x0, symName: __ZNSt3__1eqB8ue170006INS_9allocatorIcEEEEbRKNS_12basic_stringIcNS_11char_traitsIcEET_EES9_, symObjAddr: 0x8030, symBinAddr: 0x1000092D0, symSize: 0x110 }
  - { offsetInCU: 0x12351, offset: 0x1A82B, size: 0x8, addend: 0x0, symName: __ZNSt3__17launderB8ue170006INS_4pairIKNS_12basic_stringIcNS_11char_traitsIcEENS_9allocatorIcEEEE9RateCurveEEEEPT_SC_, symObjAddr: 0x8580, symBinAddr: 0x100009820, symSize: 0x20 }
  - { offsetInCU: 0x12388, offset: 0x1A862, size: 0x8, addend: 0x0, symName: __ZNSt3__19__launderB8ue170006INS_4pairIKNS_12basic_stringIcNS_11char_traitsIcEENS_9allocatorIcEEEE9RateCurveEEEEPT_SC_, symObjAddr: 0x85A0, symBinAddr: 0x100009840, symSize: 0x10 }
  - { offsetInCU: 0x123BF, offset: 0x1A899, size: 0x8, addend: 0x0, symName: __ZNSt3__116__next_hash_pow2B8ue170006Em, symObjAddr: 0x8AC0, symBinAddr: 0x100009D60, symSize: 0x60 }
  - { offsetInCU: 0x1240A, offset: 0x1A8E4, size: 0x8, addend: 0x0, symName: __ZNSt3__112__libcpp_clzB8ue170006Em, symObjAddr: 0x8E20, symBinAddr: 0x10000A0C0, symSize: 0x20 }
  - { offsetInCU: 0x12D09, offset: 0x1B1E3, size: 0x8, addend: 0x0, symName: __ZSt28__throw_bad_array_new_lengthB8ue170006v, symObjAddr: 0x1330, symBinAddr: 0x100003070, symSize: 0x40 }
  - { offsetInCU: 0x13330, offset: 0x1B80A, size: 0x8, addend: 0x0, symName: __ZNSt3__16vectorI4DateNS_9allocatorIS1_EEE26__swap_out_circular_bufferERNS_14__split_bufferIS1_RS3_EE, symObjAddr: 0x42A0, symBinAddr: 0x100005540, symSize: 0x120 }
  - { offsetInCU: 0x13385, offset: 0x1B85F, size: 0x8, addend: 0x0, symName: __ZNSt3__16vectorIdNS_9allocatorIdEEE26__swap_out_circular_bufferERNS_14__split_bufferIdRS2_EE, symObjAddr: 0x5380, symBinAddr: 0x100006620, symSize: 0x120 }
  - { offsetInCU: 0x15B45, offset: 0x1E01F, size: 0x8, addend: 0x0, symName: __ZNK9RateCurve7displayEv, symObjAddr: 0x0, symBinAddr: 0x100001E00, symSize: 0x100 }
  - { offsetInCU: 0x15B89, offset: 0x1E063, size: 0x8, addend: 0x0, symName: __ZNKSt3__16vectorI4DateNS_9allocatorIS1_EEE4sizeB8ue170006Ev, symObjAddr: 0x200, symBinAddr: 0x100001F50, symSize: 0x30 }
  - { offsetInCU: 0x15BAC, offset: 0x1E086, size: 0x8, addend: 0x0, symName: __ZNKSt3__16vectorI4DateNS_9allocatorIS1_EEEixB8ue170006Em, symObjAddr: 0x230, symBinAddr: 0x100001F80, symSize: 0x20 }
  - { offsetInCU: 0x15BE1, offset: 0x1E0BB, size: 0x8, addend: 0x0, symName: __ZNKSt3__16vectorIdNS_9allocatorIdEEEixB8ue170006Em, symObjAddr: 0x250, symBinAddr: 0x100001FA0, symSize: 0x20 }
  - { offsetInCU: 0x15C17, offset: 0x1E0F1, size: 0x8, addend: 0x0, symName: __ZN9RateCurve7addRateE4Dated, symObjAddr: 0x270, symBinAddr: 0x100001FC0, symSize: 0x60 }
  - { offsetInCU: 0x15C59, offset: 0x1E133, size: 0x8, addend: 0x0, symName: __ZNSt3__16vectorI4DateNS_9allocatorIS1_EEE9push_backB8ue170006ERKS1_, symObjAddr: 0x2D0, symBinAddr: 0x100002020, symSize: 0x60 }
  - { offsetInCU: 0x15C8E, offset: 0x1E168, size: 0x8, addend: 0x0, symName: __ZNSt3__16vectorIdNS_9allocatorIdEEE9push_backB8ue170006ERKd, symObjAddr: 0x330, symBinAddr: 0x100002080, symSize: 0x60 }
  - { offsetInCU: 0x15CC4, offset: 0x1E19E, size: 0x8, addend: 0x0, symName: __ZNK9RateCurve7getRateE4Date, symObjAddr: 0x390, symBinAddr: 0x1000020E0, symSize: 0x30 }
  - { offsetInCU: 0x15CF9, offset: 0x1E1D3, size: 0x8, addend: 0x0, symName: __ZNK8VolCurve7displayEv, symObjAddr: 0x3C0, symBinAddr: 0x100002110, symSize: 0x10 }
  - { offsetInCU: 0x163A1, offset: 0x1E87B, size: 0x8, addend: 0x0, symName: __ZNK6Market5PrintEv, symObjAddr: 0x3D0, symBinAddr: 0x100002120, symSize: 0x1A0 }
  - { offsetInCU: 0x16461, offset: 0x1E93B, size: 0x8, addend: 0x0, symName: __ZNKSt3__113unordered_mapINS_12basic_stringIcNS_11char_traitsIcEENS_9allocatorIcEEEE9RateCurveNS_4hashIS6_EENS_8equal_toIS6_EENS4_INS_4pairIKS6_S7_EEEEE5beginB8ue170006Ev, symObjAddr: 0x570, symBinAddr: 0x1000022C0, symSize: 0x30 }
  - { offsetInCU: 0x16485, offset: 0x1E95F, size: 0x8, addend: 0x0, symName: __ZNKSt3__113unordered_mapINS_12basic_stringIcNS_11char_traitsIcEENS_9allocatorIcEEEE9RateCurveNS_4hashIS6_EENS_8equal_toIS6_EENS4_INS_4pairIKS6_S7_EEEEE3endB8ue170006Ev, symObjAddr: 0x5A0, symBinAddr: 0x1000022F0, symSize: 0x30 }
  - { offsetInCU: 0x164A9, offset: 0x1E983, size: 0x8, addend: 0x0, symName: __ZNKSt3__125__hash_map_const_iteratorINS_21__hash_const_iteratorIPNS_11__hash_nodeINS_17__hash_value_typeINS_12basic_stringIcNS_11char_traitsIcEENS_9allocatorIcEEEE9RateCurveEEPvEEEEEdeB8ue170006Ev, symObjAddr: 0x600, symBinAddr: 0x100002350, symSize: 0x30 }
  - { offsetInCU: 0x164CD, offset: 0x1E9A7, size: 0x8, addend: 0x0, symName: __ZNSt3__14pairIKNS_12basic_stringIcNS_11char_traitsIcEENS_9allocatorIcEEEE9RateCurveEC1B8ue170006ERKS9_, symObjAddr: 0x630, symBinAddr: 0x100002380, symSize: 0x30 }
  - { offsetInCU: 0x164FF, offset: 0x1E9D9, size: 0x8, addend: 0x0, symName: __ZNSt3__14pairIKNS_12basic_stringIcNS_11char_traitsIcEENS_9allocatorIcEEEE9RateCurveED1Ev, symObjAddr: 0x660, symBinAddr: 0x1000023B0, symSize: 0x20 }
  - { offsetInCU: 0x1652A, offset: 0x1EA04, size: 0x8, addend: 0x0, symName: __ZNSt3__125__hash_map_const_iteratorINS_21__hash_const_iteratorIPNS_11__hash_nodeINS_17__hash_value_typeINS_12basic_stringIcNS_11char_traitsIcEENS_9allocatorIcEEEE9RateCurveEEPvEEEEEppB8ue170006Ev, symObjAddr: 0x680, symBinAddr: 0x1000023D0, symSize: 0x30 }
  - { offsetInCU: 0x1654E, offset: 0x1EA28, size: 0x8, addend: 0x0, symName: __ZNKSt3__113unordered_mapINS_12basic_stringIcNS_11char_traitsIcEENS_9allocatorIcEEEE8VolCurveNS_4hashIS6_EENS_8equal_toIS6_EENS4_INS_4pairIKS6_S7_EEEEE5beginB8ue170006Ev, symObjAddr: 0x6B0, symBinAddr: 0x100002400, symSize: 0x30 }
  - { offsetInCU: 0x16572, offset: 0x1EA4C, size: 0x8, addend: 0x0, symName: __ZNKSt3__113unordered_mapINS_12basic_stringIcNS_11char_traitsIcEENS_9allocatorIcEEEE8VolCurveNS_4hashIS6_EENS_8equal_toIS6_EENS4_INS_4pairIKS6_S7_EEEEE3endB8ue170006Ev, symObjAddr: 0x6E0, symBinAddr: 0x100002430, symSize: 0x30 }
  - { offsetInCU: 0x16596, offset: 0x1EA70, size: 0x8, addend: 0x0, symName: __ZNKSt3__125__hash_map_const_iteratorINS_21__hash_const_iteratorIPNS_11__hash_nodeINS_17__hash_value_typeINS_12basic_stringIcNS_11char_traitsIcEENS_9allocatorIcEEEE8VolCurveEEPvEEEEEdeB8ue170006Ev, symObjAddr: 0x740, symBinAddr: 0x100002490, symSize: 0x30 }
  - { offsetInCU: 0x165BA, offset: 0x1EA94, size: 0x8, addend: 0x0, symName: __ZNSt3__14pairIKNS_12basic_stringIcNS_11char_traitsIcEENS_9allocatorIcEEEE8VolCurveEC1B8ue170006ERKS9_, symObjAddr: 0x770, symBinAddr: 0x1000024C0, symSize: 0x30 }
  - { offsetInCU: 0x165EC, offset: 0x1EAC6, size: 0x8, addend: 0x0, symName: __ZNSt3__14pairIKNS_12basic_stringIcNS_11char_traitsIcEENS_9allocatorIcEEEE8VolCurveED1Ev, symObjAddr: 0x7A0, symBinAddr: 0x1000024F0, symSize: 0x20 }
  - { offsetInCU: 0x16617, offset: 0x1EAF1, size: 0x8, addend: 0x0, symName: __ZNSt3__125__hash_map_const_iteratorINS_21__hash_const_iteratorIPNS_11__hash_nodeINS_17__hash_value_typeINS_12basic_stringIcNS_11char_traitsIcEENS_9allocatorIcEEEE8VolCurveEEPvEEEEEppB8ue170006Ev, symObjAddr: 0x7C0, symBinAddr: 0x100002510, symSize: 0x30 }
  - { offsetInCU: 0x1663B, offset: 0x1EB15, size: 0x8, addend: 0x0, symName: __ZN6Market8addCurveERKNSt3__112basic_stringIcNS0_11char_traitsIcEENS0_9allocatorIcEEEERK9RateCurve, symObjAddr: 0x7F0, symBinAddr: 0x100002540, symSize: 0x40 }
  - { offsetInCU: 0x1667E, offset: 0x1EB58, size: 0x8, addend: 0x0, symName: __ZNSt3__113unordered_mapINS_12basic_stringIcNS_11char_traitsIcEENS_9allocatorIcEEEE9RateCurveNS_4hashIS6_EENS_8equal_toIS6_EENS4_INS_4pairIKS6_S7_EEEEE7emplaceB8ue170006IJRSD_RKS7_EEENSC_INS_19__hash_map_iteratorINS_15__hash_iteratorIPNS_11__hash_nodeINS_17__hash_value_typeIS6_S7_EEPvEEEEEEbEEDpOT_, symObjAddr: 0x830, symBinAddr: 0x100002580, symSize: 0x50 }
  - { offsetInCU: 0x166CF, offset: 0x1EBA9, size: 0x8, addend: 0x0, symName: __ZlsRNSt3__113basic_ostreamIcNS_11char_traitsIcEEEERK6Market, symObjAddr: 0x880, symBinAddr: 0x1000025D0, symSize: 0x40 }
  - { offsetInCU: 0x16709, offset: 0x1EBE3, size: 0x8, addend: 0x0, symName: __ZrsRNSt3__113basic_istreamIcNS_11char_traitsIcEEEER6Market, symObjAddr: 0x8C0, symBinAddr: 0x100002610, symSize: 0x30 }
  - { offsetInCU: 0x16744, offset: 0x1EC1E, size: 0x8, addend: 0x0, symName: __ZNSt3__14pairIKNS_12basic_stringIcNS_11char_traitsIcEENS_9allocatorIcEEEE9RateCurveEC2B8ue170006ERKS9_, symObjAddr: 0x8F0, symBinAddr: 0x100002640, symSize: 0x60 }
  - { offsetInCU: 0x16776, offset: 0x1EC50, size: 0x8, addend: 0x0, symName: __ZN9RateCurveC1ERKS_, symObjAddr: 0x950, symBinAddr: 0x1000026A0, symSize: 0x30 }
  - { offsetInCU: 0x167AA, offset: 0x1EC84, size: 0x8, addend: 0x0, symName: __ZN9RateCurveC2ERKS_, symObjAddr: 0x980, symBinAddr: 0x1000026D0, symSize: 0xA0 }
  - { offsetInCU: 0x167DE, offset: 0x1ECB8, size: 0x8, addend: 0x0, symName: __ZNSt3__16vectorI4DateNS_9allocatorIS1_EEEC1ERKS4_, symObjAddr: 0xA20, symBinAddr: 0x100002770, symSize: 0x30 }
  - { offsetInCU: 0x16818, offset: 0x1ECF2, size: 0x8, addend: 0x0, symName: __ZNSt3__16vectorIdNS_9allocatorIdEEEC1ERKS3_, symObjAddr: 0xA50, symBinAddr: 0x1000027A0, symSize: 0x30 }
  - { offsetInCU: 0x16852, offset: 0x1ED2C, size: 0x8, addend: 0x0, symName: __ZNSt3__16vectorI4DateNS_9allocatorIS1_EEED1B8ue170006Ev, symObjAddr: 0xA80, symBinAddr: 0x1000027D0, symSize: 0x20 }
  - { offsetInCU: 0x1687A, offset: 0x1ED54, size: 0x8, addend: 0x0, symName: __ZNSt3__16vectorI4DateNS_9allocatorIS1_EEEC2ERKS4_, symObjAddr: 0xAA0, symBinAddr: 0x1000027F0, symSize: 0xA0 }
  - { offsetInCU: 0x168BE, offset: 0x1ED98, size: 0x8, addend: 0x0, symName: __ZNSt3__116allocator_traitsINS_9allocatorI4DateEEE37select_on_container_copy_constructionB8ue170006IS3_vvEES3_RKS3_, symObjAddr: 0xB40, symBinAddr: 0x100002890, symSize: 0x10 }
  - { offsetInCU: 0x168EC, offset: 0x1EDC6, size: 0x8, addend: 0x0, symName: __ZNKSt3__16vectorI4DateNS_9allocatorIS1_EEE7__allocB8ue170006Ev, symObjAddr: 0xB50, symBinAddr: 0x1000028A0, symSize: 0x20 }
  - { offsetInCU: 0x1691A, offset: 0x1EDF4, size: 0x8, addend: 0x0, symName: __ZNSt3__117__compressed_pairIP4DateNS_9allocatorIS1_EEEC1B8ue170006IDnS4_EEOT_OT0_, symObjAddr: 0xB70, symBinAddr: 0x1000028C0, symSize: 0x30 }
  - { offsetInCU: 0x16970, offset: 0x1EE4A, size: 0x8, addend: 0x0, symName: __ZNSt3__16vectorI4DateNS_9allocatorIS1_EEE16__init_with_sizeB8ue170006IPS1_S6_EEvT_T0_m, symObjAddr: 0xBA0, symBinAddr: 0x1000028F0, symSize: 0xB0 }
  - { offsetInCU: 0x169E2, offset: 0x1EEBC, size: 0x8, addend: 0x0, symName: __ZNKSt3__117__compressed_pairIP4DateNS_9allocatorIS1_EEE6secondB8ue170006Ev, symObjAddr: 0xC50, symBinAddr: 0x1000029A0, symSize: 0x20 }
  - { offsetInCU: 0x16A06, offset: 0x1EEE0, size: 0x8, addend: 0x0, symName: __ZNKSt3__122__compressed_pair_elemINS_9allocatorI4DateEELi1ELb1EE5__getB8ue170006Ev, symObjAddr: 0xC70, symBinAddr: 0x1000029C0, symSize: 0x10 }
  - { offsetInCU: 0x16A2A, offset: 0x1EF04, size: 0x8, addend: 0x0, symName: __ZNSt3__117__compressed_pairIP4DateNS_9allocatorIS1_EEEC2B8ue170006IDnS4_EEOT_OT0_, symObjAddr: 0xC80, symBinAddr: 0x1000029D0, symSize: 0x40 }
  - { offsetInCU: 0x16A80, offset: 0x1EF5A, size: 0x8, addend: 0x0, symName: __ZNSt3__122__compressed_pair_elemIP4DateLi0ELb0EEC2B8ue170006IDnvEEOT_, symObjAddr: 0xCC0, symBinAddr: 0x100002A10, symSize: 0x20 }
  - { offsetInCU: 0x16AC0, offset: 0x1EF9A, size: 0x8, addend: 0x0, symName: __ZNSt3__122__compressed_pair_elemINS_9allocatorI4DateEELi1ELb1EEC2B8ue170006IS3_vEEOT_, symObjAddr: 0xCE0, symBinAddr: 0x100002A30, symSize: 0x10 }
  - { offsetInCU: 0x16B00, offset: 0x1EFDA, size: 0x8, addend: 0x0, symName: __ZNSt3__16vectorI4DateNS_9allocatorIS1_EEE16__destroy_vectorC1B8ue170006ERS4_, symObjAddr: 0xD30, symBinAddr: 0x100002A80, symSize: 0x30 }
  - { offsetInCU: 0x16B37, offset: 0x1F011, size: 0x8, addend: 0x0, symName: __ZNSt3__16vectorI4DateNS_9allocatorIS1_EEE11__vallocateB8ue170006Em, symObjAddr: 0xD60, symBinAddr: 0x100002AB0, symSize: 0xA0 }
  - { offsetInCU: 0x16B78, offset: 0x1F052, size: 0x8, addend: 0x0, symName: __ZNSt3__16vectorI4DateNS_9allocatorIS1_EEE18__construct_at_endIPS1_S6_EEvT_T0_m, symObjAddr: 0xE00, symBinAddr: 0x100002B50, symSize: 0x90 }
  - { offsetInCU: 0x16BED, offset: 0x1F0C7, size: 0x8, addend: 0x0, symName: __ZNSt3__128__exception_guard_exceptionsINS_6vectorI4DateNS_9allocatorIS2_EEE16__destroy_vectorEE10__completeB8ue170006Ev, symObjAddr: 0xE90, symBinAddr: 0x100002BE0, symSize: 0x20 }
  - { offsetInCU: 0x16C11, offset: 0x1F0EB, size: 0x8, addend: 0x0, symName: __ZNSt3__128__exception_guard_exceptionsINS_6vectorI4DateNS_9allocatorIS2_EEE16__destroy_vectorEED1B8ue170006Ev, symObjAddr: 0xEB0, symBinAddr: 0x100002C00, symSize: 0x20 }
  - { offsetInCU: 0x16C39, offset: 0x1F113, size: 0x8, addend: 0x0, symName: __ZNSt3__128__exception_guard_exceptionsINS_6vectorI4DateNS_9allocatorIS2_EEE16__destroy_vectorEEC1B8ue170006ES6_, symObjAddr: 0xED0, symBinAddr: 0x100002C20, symSize: 0x30 }
  - { offsetInCU: 0x16C6F, offset: 0x1F149, size: 0x8, addend: 0x0, symName: __ZNSt3__128__exception_guard_exceptionsINS_6vectorI4DateNS_9allocatorIS2_EEE16__destroy_vectorEEC2B8ue170006ES6_, symObjAddr: 0xF00, symBinAddr: 0x100002C50, symSize: 0x20 }
  - { offsetInCU: 0x16CA5, offset: 0x1F17F, size: 0x8, addend: 0x0, symName: __ZNSt3__16vectorI4DateNS_9allocatorIS1_EEE16__destroy_vectorC2B8ue170006ERS4_, symObjAddr: 0xF20, symBinAddr: 0x100002C70, symSize: 0x20 }
  - { offsetInCU: 0x16CDB, offset: 0x1F1B5, size: 0x8, addend: 0x0, symName: __ZNKSt3__16vectorI4DateNS_9allocatorIS1_EEE8max_sizeEv, symObjAddr: 0xF40, symBinAddr: 0x100002C90, symSize: 0x60 }
  - { offsetInCU: 0x16D02, offset: 0x1F1DC, size: 0x8, addend: 0x0, symName: __ZNKSt3__16vectorI4DateNS_9allocatorIS1_EEE20__throw_length_errorB8ue170006Ev, symObjAddr: 0xFA0, symBinAddr: 0x100002CF0, symSize: 0x20 }
  - { offsetInCU: 0x16D26, offset: 0x1F200, size: 0x8, addend: 0x0, symName: __ZNSt3__16vectorI4DateNS_9allocatorIS1_EEE7__allocB8ue170006Ev, symObjAddr: 0x1000, symBinAddr: 0x100002D50, symSize: 0x20 }
  - { offsetInCU: 0x16D4A, offset: 0x1F224, size: 0x8, addend: 0x0, symName: __ZNSt3__16vectorI4DateNS_9allocatorIS1_EEE9__end_capB8ue170006Ev, symObjAddr: 0x1020, symBinAddr: 0x100002D70, symSize: 0x20 }
  - { offsetInCU: 0x16D6E, offset: 0x1F248, size: 0x8, addend: 0x0, symName: __ZNKSt3__16vectorI4DateNS_9allocatorIS1_EEE14__annotate_newB8ue170006Em, symObjAddr: 0x1040, symBinAddr: 0x100002D90, symSize: 0xA0 }
  - { offsetInCU: 0x16DA1, offset: 0x1F27B, size: 0x8, addend: 0x0, symName: __ZNSt3__116allocator_traitsINS_9allocatorI4DateEEE8max_sizeB8ue170006IS3_vEEmRKS3_, symObjAddr: 0x1110, symBinAddr: 0x100002E60, symSize: 0x20 }
  - { offsetInCU: 0x16DCE, offset: 0x1F2A8, size: 0x8, addend: 0x0, symName: __ZNSt3__114numeric_limitsIlE3maxB8ue170006Ev, symObjAddr: 0x1130, symBinAddr: 0x100002E80, symSize: 0x10 }
  - { offsetInCU: 0x16DEB, offset: 0x1F2C5, size: 0x8, addend: 0x0, symName: __ZNKSt3__16__lessIvvEclB8ue170006ImmEEbRKT_RKT0_, symObjAddr: 0x11A0, symBinAddr: 0x100002EE0, symSize: 0x30 }
  - { offsetInCU: 0x16E3D, offset: 0x1F317, size: 0x8, addend: 0x0, symName: __ZNKSt3__19allocatorI4DateE8max_sizeB8ue170006Ev, symObjAddr: 0x11D0, symBinAddr: 0x100002F10, symSize: 0x20 }
  - { offsetInCU: 0x16E61, offset: 0x1F33B, size: 0x8, addend: 0x0, symName: __ZNSt3__123__libcpp_numeric_limitsIlLb1EE3maxB8ue170006Ev, symObjAddr: 0x11F0, symBinAddr: 0x100002F30, symSize: 0x10 }
  - { offsetInCU: 0x16E74, offset: 0x1F34E, size: 0x8, addend: 0x0, symName: __ZNSt12length_errorC1B8ue170006EPKc, symObjAddr: 0x1270, symBinAddr: 0x100002FB0, symSize: 0x30 }
  - { offsetInCU: 0x16EAA, offset: 0x1F384, size: 0x8, addend: 0x0, symName: __ZNSt12length_errorC2B8ue170006EPKc, symObjAddr: 0x12A0, symBinAddr: 0x100002FE0, symSize: 0x40 }
  - { offsetInCU: 0x16EE0, offset: 0x1F3BA, size: 0x8, addend: 0x0, symName: __ZNSt3__19allocatorI4DateE8allocateB8ue170006Em, symObjAddr: 0x12E0, symBinAddr: 0x100003020, symSize: 0x50 }
  - { offsetInCU: 0x16F12, offset: 0x1F3EC, size: 0x8, addend: 0x0, symName: __ZNSt3__117__compressed_pairIP4DateNS_9allocatorIS1_EEE6secondB8ue170006Ev, symObjAddr: 0x1440, symBinAddr: 0x100003180, symSize: 0x20 }
  - { offsetInCU: 0x16F36, offset: 0x1F410, size: 0x8, addend: 0x0, symName: __ZNSt3__122__compressed_pair_elemINS_9allocatorI4DateEELi1ELb1EE5__getB8ue170006Ev, symObjAddr: 0x1460, symBinAddr: 0x1000031A0, symSize: 0x10 }
  - { offsetInCU: 0x16F5A, offset: 0x1F434, size: 0x8, addend: 0x0, symName: __ZNSt3__117__compressed_pairIP4DateNS_9allocatorIS1_EEE5firstB8ue170006Ev, symObjAddr: 0x1470, symBinAddr: 0x1000031B0, symSize: 0x20 }
  - { offsetInCU: 0x16F7E, offset: 0x1F458, size: 0x8, addend: 0x0, symName: __ZNSt3__122__compressed_pair_elemIP4DateLi0ELb0EE5__getB8ue170006Ev, symObjAddr: 0x1490, symBinAddr: 0x1000031D0, symSize: 0x10 }
  - { offsetInCU: 0x16FA2, offset: 0x1F47C, size: 0x8, addend: 0x0, symName: __ZNKSt3__16vectorI4DateNS_9allocatorIS1_EEE31__annotate_contiguous_containerB8ue170006EPKvS6_S6_S6_, symObjAddr: 0x14A0, symBinAddr: 0x1000031E0, symSize: 0x20 }
  - { offsetInCU: 0x16FF6, offset: 0x1F4D0, size: 0x8, addend: 0x0, symName: __ZNKSt3__16vectorI4DateNS_9allocatorIS1_EEE4dataB8ue170006Ev, symObjAddr: 0x14C0, symBinAddr: 0x100003200, symSize: 0x20 }
  - { offsetInCU: 0x1701A, offset: 0x1F4F4, size: 0x8, addend: 0x0, symName: __ZNKSt3__16vectorI4DateNS_9allocatorIS1_EEE8capacityB8ue170006Ev, symObjAddr: 0x14E0, symBinAddr: 0x100003220, symSize: 0x40 }
  - { offsetInCU: 0x1703E, offset: 0x1F518, size: 0x8, addend: 0x0, symName: __ZNKSt3__16vectorI4DateNS_9allocatorIS1_EEE9__end_capB8ue170006Ev, symObjAddr: 0x1530, symBinAddr: 0x100003270, symSize: 0x20 }
  - { offsetInCU: 0x17062, offset: 0x1F53C, size: 0x8, addend: 0x0, symName: __ZNKSt3__117__compressed_pairIP4DateNS_9allocatorIS1_EEE5firstB8ue170006Ev, symObjAddr: 0x1550, symBinAddr: 0x100003290, symSize: 0x20 }
  - { offsetInCU: 0x17086, offset: 0x1F560, size: 0x8, addend: 0x0, symName: __ZNKSt3__122__compressed_pair_elemIP4DateLi0ELb0EE5__getB8ue170006Ev, symObjAddr: 0x1570, symBinAddr: 0x1000032B0, symSize: 0x10 }
  - { offsetInCU: 0x170C3, offset: 0x1F59D, size: 0x8, addend: 0x0, symName: __ZNSt3__16vectorI4DateNS_9allocatorIS1_EEE21_ConstructTransactionC1B8ue170006ERS4_m, symObjAddr: 0x1580, symBinAddr: 0x1000032C0, symSize: 0x30 }
  - { offsetInCU: 0x17109, offset: 0x1F5E3, size: 0x8, addend: 0x0, symName: __ZNSt3__16vectorI4DateNS_9allocatorIS1_EEE21_ConstructTransactionD1B8ue170006Ev, symObjAddr: 0x1630, symBinAddr: 0x100003370, symSize: 0x20 }
  - { offsetInCU: 0x17131, offset: 0x1F60B, size: 0x8, addend: 0x0, symName: __ZNSt3__16vectorI4DateNS_9allocatorIS1_EEE21_ConstructTransactionC2B8ue170006ERS4_m, symObjAddr: 0x1650, symBinAddr: 0x100003390, symSize: 0x40 }
  - { offsetInCU: 0x17195, offset: 0x1F66F, size: 0x8, addend: 0x0, symName: __ZNSt3__14pairIP4DateS2_EC1B8ue170006IS2_S2_LPv0EEEOT_OT0_, symObjAddr: 0x17A0, symBinAddr: 0x1000034E0, symSize: 0x30 }
  - { offsetInCU: 0x171F2, offset: 0x1F6CC, size: 0x8, addend: 0x0, symName: __ZNSt3__14pairIP4DateS2_EC2B8ue170006IS2_S2_LPv0EEEOT_OT0_, symObjAddr: 0x17D0, symBinAddr: 0x100003510, symSize: 0x30 }
  - { offsetInCU: 0x17259, offset: 0x1F733, size: 0x8, addend: 0x0, symName: __ZNKSt3__114__copy_trivialclB8ue170006I4DateS2_Li0EEENS_4pairIPT_PT0_EES5_S5_S7_, symObjAddr: 0x1970, symBinAddr: 0x1000036B0, symSize: 0x40 }
  - { offsetInCU: 0x172C0, offset: 0x1F79A, size: 0x8, addend: 0x0, symName: __ZNSt3__14pairIP4DateS2_EC1B8ue170006IRS2_S2_LPv0EEEOT_OT0_, symObjAddr: 0x1AE0, symBinAddr: 0x100003820, symSize: 0x30 }
  - { offsetInCU: 0x1731D, offset: 0x1F7F7, size: 0x8, addend: 0x0, symName: __ZNSt3__14pairIP4DateS2_EC2B8ue170006IRS2_S2_LPv0EEEOT_OT0_, symObjAddr: 0x1B10, symBinAddr: 0x100003850, symSize: 0x30 }
  - { offsetInCU: 0x1737A, offset: 0x1F854, size: 0x8, addend: 0x0, symName: __ZNSt3__118__unwrap_iter_implIP4DateLb1EE8__unwrapB8ue170006ES2_, symObjAddr: 0x1B40, symBinAddr: 0x100003880, symSize: 0x20 }
  - { offsetInCU: 0x1739C, offset: 0x1F876, size: 0x8, addend: 0x0, symName: __ZNSt3__118__unwrap_iter_implIP4DateLb1EE8__rewrapB8ue170006ES2_S2_, symObjAddr: 0x1B60, symBinAddr: 0x1000038A0, symSize: 0x60 }
  - { offsetInCU: 0x173CC, offset: 0x1F8A6, size: 0x8, addend: 0x0, symName: __ZNSt3__16vectorI4DateNS_9allocatorIS1_EEE21_ConstructTransactionD2B8ue170006Ev, symObjAddr: 0x1BC0, symBinAddr: 0x100003900, symSize: 0x20 }
  - { offsetInCU: 0x173F4, offset: 0x1F8CE, size: 0x8, addend: 0x0, symName: __ZNSt3__128__exception_guard_exceptionsINS_6vectorI4DateNS_9allocatorIS2_EEE16__destroy_vectorEED2B8ue170006Ev, symObjAddr: 0x1BE0, symBinAddr: 0x100003920, symSize: 0x40 }
  - { offsetInCU: 0x1741C, offset: 0x1F8F6, size: 0x8, addend: 0x0, symName: __ZNSt3__16vectorI4DateNS_9allocatorIS1_EEE16__destroy_vectorclB8ue170006Ev, symObjAddr: 0x1C20, symBinAddr: 0x100003960, symSize: 0x80 }
  - { offsetInCU: 0x17440, offset: 0x1F91A, size: 0x8, addend: 0x0, symName: __ZNSt3__16vectorI4DateNS_9allocatorIS1_EEE7__clearB8ue170006Ev, symObjAddr: 0x1CA0, symBinAddr: 0x1000039E0, symSize: 0x20 }
  - { offsetInCU: 0x17464, offset: 0x1F93E, size: 0x8, addend: 0x0, symName: __ZNKSt3__16vectorI4DateNS_9allocatorIS1_EEE17__annotate_deleteB8ue170006Ev, symObjAddr: 0x1CC0, symBinAddr: 0x100003A00, symSize: 0xB0 }
  - { offsetInCU: 0x17488, offset: 0x1F962, size: 0x8, addend: 0x0, symName: __ZNSt3__116allocator_traitsINS_9allocatorI4DateEEE10deallocateB8ue170006ERS3_PS2_m, symObjAddr: 0x1D70, symBinAddr: 0x100003AB0, symSize: 0x30 }
  - { offsetInCU: 0x174C9, offset: 0x1F9A3, size: 0x8, addend: 0x0, symName: __ZNSt3__16vectorI4DateNS_9allocatorIS1_EEE22__base_destruct_at_endB8ue170006EPS1_, symObjAddr: 0x1DA0, symBinAddr: 0x100003AE0, symSize: 0x80 }
  - { offsetInCU: 0x1750B, offset: 0x1F9E5, size: 0x8, addend: 0x0, symName: __ZNSt3__116allocator_traitsINS_9allocatorI4DateEEE7destroyB8ue170006IS2_vEEvRS3_PT_, symObjAddr: 0x1E20, symBinAddr: 0x100003B60, symSize: 0x30 }
  - { offsetInCU: 0x17547, offset: 0x1FA21, size: 0x8, addend: 0x0, symName: __ZNSt3__19allocatorI4DateE7destroyB8ue170006EPS1_, symObjAddr: 0x1E50, symBinAddr: 0x100003B90, symSize: 0x10 }
  - { offsetInCU: 0x17579, offset: 0x1FA53, size: 0x8, addend: 0x0, symName: __ZNSt3__19allocatorI4DateE10deallocateB8ue170006EPS1_m, symObjAddr: 0x1E60, symBinAddr: 0x100003BA0, symSize: 0x50 }
  - { offsetInCU: 0x175B9, offset: 0x1FA93, size: 0x8, addend: 0x0, symName: __ZNSt3__16vectorIdNS_9allocatorIdEEEC2ERKS3_, symObjAddr: 0x1FB0, symBinAddr: 0x100003CF0, symSize: 0xA0 }
  - { offsetInCU: 0x175FD, offset: 0x1FAD7, size: 0x8, addend: 0x0, symName: __ZNSt3__116allocator_traitsINS_9allocatorIdEEE37select_on_container_copy_constructionB8ue170006IS2_vvEES2_RKS2_, symObjAddr: 0x2050, symBinAddr: 0x100003D90, symSize: 0x10 }
  - { offsetInCU: 0x1762B, offset: 0x1FB05, size: 0x8, addend: 0x0, symName: __ZNKSt3__16vectorIdNS_9allocatorIdEEE7__allocB8ue170006Ev, symObjAddr: 0x2060, symBinAddr: 0x100003DA0, symSize: 0x20 }
  - { offsetInCU: 0x17654, offset: 0x1FB2E, size: 0x8, addend: 0x0, symName: __ZNSt3__117__compressed_pairIPdNS_9allocatorIdEEEC1B8ue170006IDnS3_EEOT_OT0_, symObjAddr: 0x2080, symBinAddr: 0x100003DC0, symSize: 0x30 }
  - { offsetInCU: 0x176AA, offset: 0x1FB84, size: 0x8, addend: 0x0, symName: __ZNSt3__16vectorIdNS_9allocatorIdEEE16__init_with_sizeB8ue170006IPdS5_EEvT_T0_m, symObjAddr: 0x20B0, symBinAddr: 0x100003DF0, symSize: 0xB0 }
  - { offsetInCU: 0x1771C, offset: 0x1FBF6, size: 0x8, addend: 0x0, symName: __ZNKSt3__16vectorIdNS_9allocatorIdEEE4sizeB8ue170006Ev, symObjAddr: 0x2160, symBinAddr: 0x100003EA0, symSize: 0x20 }
  - { offsetInCU: 0x17740, offset: 0x1FC1A, size: 0x8, addend: 0x0, symName: __ZNKSt3__117__compressed_pairIPdNS_9allocatorIdEEE6secondB8ue170006Ev, symObjAddr: 0x2180, symBinAddr: 0x100003EC0, symSize: 0x20 }
  - { offsetInCU: 0x17764, offset: 0x1FC3E, size: 0x8, addend: 0x0, symName: __ZNKSt3__122__compressed_pair_elemINS_9allocatorIdEELi1ELb1EE5__getB8ue170006Ev, symObjAddr: 0x21A0, symBinAddr: 0x100003EE0, symSize: 0x10 }
  - { offsetInCU: 0x17788, offset: 0x1FC62, size: 0x8, addend: 0x0, symName: __ZNSt3__117__compressed_pairIPdNS_9allocatorIdEEEC2B8ue170006IDnS3_EEOT_OT0_, symObjAddr: 0x21B0, symBinAddr: 0x100003EF0, symSize: 0x40 }
  - { offsetInCU: 0x177DE, offset: 0x1FCB8, size: 0x8, addend: 0x0, symName: __ZNSt3__122__compressed_pair_elemIPdLi0ELb0EEC2B8ue170006IDnvEEOT_, symObjAddr: 0x21F0, symBinAddr: 0x100003F30, symSize: 0x20 }
  - { offsetInCU: 0x1781E, offset: 0x1FCF8, size: 0x8, addend: 0x0, symName: __ZNSt3__122__compressed_pair_elemINS_9allocatorIdEELi1ELb1EEC2B8ue170006IS2_vEEOT_, symObjAddr: 0x2210, symBinAddr: 0x100003F50, symSize: 0x10 }
  - { offsetInCU: 0x1785E, offset: 0x1FD38, size: 0x8, addend: 0x0, symName: __ZNSt3__16vectorIdNS_9allocatorIdEEE16__destroy_vectorC1B8ue170006ERS3_, symObjAddr: 0x2260, symBinAddr: 0x100003FA0, symSize: 0x30 }
  - { offsetInCU: 0x17895, offset: 0x1FD6F, size: 0x8, addend: 0x0, symName: __ZNSt3__16vectorIdNS_9allocatorIdEEE11__vallocateB8ue170006Em, symObjAddr: 0x2290, symBinAddr: 0x100003FD0, symSize: 0xA0 }
  - { offsetInCU: 0x178D6, offset: 0x1FDB0, size: 0x8, addend: 0x0, symName: __ZNSt3__16vectorIdNS_9allocatorIdEEE18__construct_at_endIPdS5_EEvT_T0_m, symObjAddr: 0x2330, symBinAddr: 0x100004070, symSize: 0x90 }
  - { offsetInCU: 0x1794B, offset: 0x1FE25, size: 0x8, addend: 0x0, symName: __ZNSt3__128__exception_guard_exceptionsINS_6vectorIdNS_9allocatorIdEEE16__destroy_vectorEE10__completeB8ue170006Ev, symObjAddr: 0x23C0, symBinAddr: 0x100004100, symSize: 0x20 }
  - { offsetInCU: 0x1796F, offset: 0x1FE49, size: 0x8, addend: 0x0, symName: __ZNSt3__128__exception_guard_exceptionsINS_6vectorIdNS_9allocatorIdEEE16__destroy_vectorEED1B8ue170006Ev, symObjAddr: 0x23E0, symBinAddr: 0x100004120, symSize: 0x20 }
  - { offsetInCU: 0x17997, offset: 0x1FE71, size: 0x8, addend: 0x0, symName: __ZNSt3__128__exception_guard_exceptionsINS_6vectorIdNS_9allocatorIdEEE16__destroy_vectorEEC1B8ue170006ES5_, symObjAddr: 0x2400, symBinAddr: 0x100004140, symSize: 0x30 }
  - { offsetInCU: 0x179CD, offset: 0x1FEA7, size: 0x8, addend: 0x0, symName: __ZNSt3__128__exception_guard_exceptionsINS_6vectorIdNS_9allocatorIdEEE16__destroy_vectorEEC2B8ue170006ES5_, symObjAddr: 0x2430, symBinAddr: 0x100004170, symSize: 0x20 }
  - { offsetInCU: 0x17A03, offset: 0x1FEDD, size: 0x8, addend: 0x0, symName: __ZNSt3__16vectorIdNS_9allocatorIdEEE16__destroy_vectorC2B8ue170006ERS3_, symObjAddr: 0x2450, symBinAddr: 0x100004190, symSize: 0x20 }
  - { offsetInCU: 0x17A39, offset: 0x1FF13, size: 0x8, addend: 0x0, symName: __ZNKSt3__16vectorIdNS_9allocatorIdEEE8max_sizeEv, symObjAddr: 0x2470, symBinAddr: 0x1000041B0, symSize: 0x60 }
  - { offsetInCU: 0x17A60, offset: 0x1FF3A, size: 0x8, addend: 0x0, symName: __ZNKSt3__16vectorIdNS_9allocatorIdEEE20__throw_length_errorB8ue170006Ev, symObjAddr: 0x24D0, symBinAddr: 0x100004210, symSize: 0x20 }
  - { offsetInCU: 0x17A84, offset: 0x1FF5E, size: 0x8, addend: 0x0, symName: __ZNSt3__16vectorIdNS_9allocatorIdEEE7__allocB8ue170006Ev, symObjAddr: 0x2530, symBinAddr: 0x100004270, symSize: 0x20 }
  - { offsetInCU: 0x17AA8, offset: 0x1FF82, size: 0x8, addend: 0x0, symName: __ZNSt3__16vectorIdNS_9allocatorIdEEE9__end_capB8ue170006Ev, symObjAddr: 0x2550, symBinAddr: 0x100004290, symSize: 0x20 }
  - { offsetInCU: 0x17ACC, offset: 0x1FFA6, size: 0x8, addend: 0x0, symName: __ZNKSt3__16vectorIdNS_9allocatorIdEEE14__annotate_newB8ue170006Em, symObjAddr: 0x2570, symBinAddr: 0x1000042B0, symSize: 0xB0 }
  - { offsetInCU: 0x17AFF, offset: 0x1FFD9, size: 0x8, addend: 0x0, symName: __ZNSt3__116allocator_traitsINS_9allocatorIdEEE8max_sizeB8ue170006IS2_vEEmRKS2_, symObjAddr: 0x2620, symBinAddr: 0x100004360, symSize: 0x20 }
  - { offsetInCU: 0x17B2C, offset: 0x20006, size: 0x8, addend: 0x0, symName: __ZNKSt3__19allocatorIdE8max_sizeB8ue170006Ev, symObjAddr: 0x2640, symBinAddr: 0x100004380, symSize: 0x20 }
  - { offsetInCU: 0x17B50, offset: 0x2002A, size: 0x8, addend: 0x0, symName: __ZNSt3__19allocatorIdE8allocateB8ue170006Em, symObjAddr: 0x2660, symBinAddr: 0x1000043A0, symSize: 0x50 }
  - { offsetInCU: 0x17B82, offset: 0x2005C, size: 0x8, addend: 0x0, symName: __ZNSt3__117__compressed_pairIPdNS_9allocatorIdEEE6secondB8ue170006Ev, symObjAddr: 0x26B0, symBinAddr: 0x1000043F0, symSize: 0x20 }
  - { offsetInCU: 0x17BA6, offset: 0x20080, size: 0x8, addend: 0x0, symName: __ZNSt3__122__compressed_pair_elemINS_9allocatorIdEELi1ELb1EE5__getB8ue170006Ev, symObjAddr: 0x26D0, symBinAddr: 0x100004410, symSize: 0x10 }
  - { offsetInCU: 0x17BCA, offset: 0x200A4, size: 0x8, addend: 0x0, symName: __ZNSt3__117__compressed_pairIPdNS_9allocatorIdEEE5firstB8ue170006Ev, symObjAddr: 0x26E0, symBinAddr: 0x100004420, symSize: 0x20 }
  - { offsetInCU: 0x17BEE, offset: 0x200C8, size: 0x8, addend: 0x0, symName: __ZNSt3__122__compressed_pair_elemIPdLi0ELb0EE5__getB8ue170006Ev, symObjAddr: 0x2700, symBinAddr: 0x100004440, symSize: 0x10 }
  - { offsetInCU: 0x17C12, offset: 0x200EC, size: 0x8, addend: 0x0, symName: __ZNKSt3__16vectorIdNS_9allocatorIdEEE31__annotate_contiguous_containerB8ue170006EPKvS5_S5_S5_, symObjAddr: 0x2710, symBinAddr: 0x100004450, symSize: 0x20 }
  - { offsetInCU: 0x17C66, offset: 0x20140, size: 0x8, addend: 0x0, symName: __ZNKSt3__16vectorIdNS_9allocatorIdEEE4dataB8ue170006Ev, symObjAddr: 0x2730, symBinAddr: 0x100004470, symSize: 0x20 }
  - { offsetInCU: 0x17C8A, offset: 0x20164, size: 0x8, addend: 0x0, symName: __ZNKSt3__16vectorIdNS_9allocatorIdEEE8capacityB8ue170006Ev, symObjAddr: 0x2750, symBinAddr: 0x100004490, symSize: 0x30 }
  - { offsetInCU: 0x17CAE, offset: 0x20188, size: 0x8, addend: 0x0, symName: __ZNKSt3__16vectorIdNS_9allocatorIdEEE9__end_capB8ue170006Ev, symObjAddr: 0x2790, symBinAddr: 0x1000044D0, symSize: 0x20 }
  - { offsetInCU: 0x17CD2, offset: 0x201AC, size: 0x8, addend: 0x0, symName: __ZNKSt3__117__compressed_pairIPdNS_9allocatorIdEEE5firstB8ue170006Ev, symObjAddr: 0x27B0, symBinAddr: 0x1000044F0, symSize: 0x20 }
  - { offsetInCU: 0x17CF6, offset: 0x201D0, size: 0x8, addend: 0x0, symName: __ZNKSt3__122__compressed_pair_elemIPdLi0ELb0EE5__getB8ue170006Ev, symObjAddr: 0x27D0, symBinAddr: 0x100004510, symSize: 0x10 }
  - { offsetInCU: 0x17D33, offset: 0x2020D, size: 0x8, addend: 0x0, symName: __ZNSt3__16vectorIdNS_9allocatorIdEEE21_ConstructTransactionC1B8ue170006ERS3_m, symObjAddr: 0x27E0, symBinAddr: 0x100004520, symSize: 0x30 }
  - { offsetInCU: 0x17D79, offset: 0x20253, size: 0x8, addend: 0x0, symName: __ZNSt3__16vectorIdNS_9allocatorIdEEE21_ConstructTransactionD1B8ue170006Ev, symObjAddr: 0x2890, symBinAddr: 0x1000045D0, symSize: 0x20 }
  - { offsetInCU: 0x17DA1, offset: 0x2027B, size: 0x8, addend: 0x0, symName: __ZNSt3__16vectorIdNS_9allocatorIdEEE21_ConstructTransactionC2B8ue170006ERS3_m, symObjAddr: 0x28B0, symBinAddr: 0x1000045F0, symSize: 0x40 }
  - { offsetInCU: 0x17E05, offset: 0x202DF, size: 0x8, addend: 0x0, symName: __ZNSt3__14pairIPdS1_EC1B8ue170006IS1_S1_LPv0EEEOT_OT0_, symObjAddr: 0x2A00, symBinAddr: 0x100004740, symSize: 0x30 }
  - { offsetInCU: 0x17E62, offset: 0x2033C, size: 0x8, addend: 0x0, symName: __ZNSt3__14pairIPdS1_EC2B8ue170006IS1_S1_LPv0EEEOT_OT0_, symObjAddr: 0x2A30, symBinAddr: 0x100004770, symSize: 0x30 }
  - { offsetInCU: 0x17EBF, offset: 0x20399, size: 0x8, addend: 0x0, symName: __ZNKSt3__114__copy_trivialclB8ue170006IddLi0EEENS_4pairIPT_PT0_EES4_S4_S6_, symObjAddr: 0x2BD0, symBinAddr: 0x100004910, symSize: 0x40 }
  - { offsetInCU: 0x17F26, offset: 0x20400, size: 0x8, addend: 0x0, symName: __ZNSt3__14pairIPdS1_EC1B8ue170006IRS1_S1_LPv0EEEOT_OT0_, symObjAddr: 0x2D30, symBinAddr: 0x100004A70, symSize: 0x30 }
  - { offsetInCU: 0x17F83, offset: 0x2045D, size: 0x8, addend: 0x0, symName: __ZNSt3__14pairIPdS1_EC2B8ue170006IRS1_S1_LPv0EEEOT_OT0_, symObjAddr: 0x2D60, symBinAddr: 0x100004AA0, symSize: 0x30 }
  - { offsetInCU: 0x17FE0, offset: 0x204BA, size: 0x8, addend: 0x0, symName: __ZNSt3__118__unwrap_iter_implIPdLb1EE8__unwrapB8ue170006ES1_, symObjAddr: 0x2D90, symBinAddr: 0x100004AD0, symSize: 0x20 }
  - { offsetInCU: 0x18002, offset: 0x204DC, size: 0x8, addend: 0x0, symName: __ZNSt3__118__unwrap_iter_implIPdLb1EE8__rewrapB8ue170006ES1_S1_, symObjAddr: 0x2DB0, symBinAddr: 0x100004AF0, symSize: 0x50 }
  - { offsetInCU: 0x18032, offset: 0x2050C, size: 0x8, addend: 0x0, symName: __ZNSt3__16vectorIdNS_9allocatorIdEEE21_ConstructTransactionD2B8ue170006Ev, symObjAddr: 0x2E00, symBinAddr: 0x100004B40, symSize: 0x20 }
  - { offsetInCU: 0x1805A, offset: 0x20534, size: 0x8, addend: 0x0, symName: __ZNSt3__128__exception_guard_exceptionsINS_6vectorIdNS_9allocatorIdEEE16__destroy_vectorEED2B8ue170006Ev, symObjAddr: 0x2E20, symBinAddr: 0x100004B60, symSize: 0x40 }
  - { offsetInCU: 0x18082, offset: 0x2055C, size: 0x8, addend: 0x0, symName: __ZNSt3__16vectorIdNS_9allocatorIdEEE16__destroy_vectorclB8ue170006Ev, symObjAddr: 0x2E60, symBinAddr: 0x100004BA0, symSize: 0x80 }
  - { offsetInCU: 0x180A6, offset: 0x20580, size: 0x8, addend: 0x0, symName: __ZNSt3__16vectorIdNS_9allocatorIdEEE7__clearB8ue170006Ev, symObjAddr: 0x2EE0, symBinAddr: 0x100004C20, symSize: 0x20 }
  - { offsetInCU: 0x180CA, offset: 0x205A4, size: 0x8, addend: 0x0, symName: __ZNKSt3__16vectorIdNS_9allocatorIdEEE17__annotate_deleteB8ue170006Ev, symObjAddr: 0x2F00, symBinAddr: 0x100004C40, symSize: 0xB0 }
  - { offsetInCU: 0x180EE, offset: 0x205C8, size: 0x8, addend: 0x0, symName: __ZNSt3__116allocator_traitsINS_9allocatorIdEEE10deallocateB8ue170006ERS2_Pdm, symObjAddr: 0x2FB0, symBinAddr: 0x100004CF0, symSize: 0x30 }
  - { offsetInCU: 0x1812F, offset: 0x20609, size: 0x8, addend: 0x0, symName: __ZNSt3__16vectorIdNS_9allocatorIdEEE22__base_destruct_at_endB8ue170006EPd, symObjAddr: 0x2FE0, symBinAddr: 0x100004D20, symSize: 0x80 }
  - { offsetInCU: 0x18171, offset: 0x2064B, size: 0x8, addend: 0x0, symName: __ZNSt3__116allocator_traitsINS_9allocatorIdEEE7destroyB8ue170006IdvEEvRS2_PT_, symObjAddr: 0x3060, symBinAddr: 0x100004DA0, symSize: 0x30 }
  - { offsetInCU: 0x181AD, offset: 0x20687, size: 0x8, addend: 0x0, symName: __ZNSt3__19allocatorIdE7destroyB8ue170006EPd, symObjAddr: 0x3090, symBinAddr: 0x100004DD0, symSize: 0x10 }
  - { offsetInCU: 0x181DF, offset: 0x206B9, size: 0x8, addend: 0x0, symName: __ZNSt3__19allocatorIdE10deallocateB8ue170006EPdm, symObjAddr: 0x30A0, symBinAddr: 0x100004DE0, symSize: 0x40 }
  - { offsetInCU: 0x1821F, offset: 0x206F9, size: 0x8, addend: 0x0, symName: __ZNSt3__16vectorI4DateNS_9allocatorIS1_EEED2B8ue170006Ev, symObjAddr: 0x30E0, symBinAddr: 0x100004E20, symSize: 0x40 }
  - { offsetInCU: 0x18247, offset: 0x20721, size: 0x8, addend: 0x0, symName: __ZNSt3__14pairIKNS_12basic_stringIcNS_11char_traitsIcEENS_9allocatorIcEEEE9RateCurveED2Ev, symObjAddr: 0x3120, symBinAddr: 0x100004E60, symSize: 0x30 }
  - { offsetInCU: 0x18272, offset: 0x2074C, size: 0x8, addend: 0x0, symName: __ZN9RateCurveD1Ev, symObjAddr: 0x3150, symBinAddr: 0x100004E90, symSize: 0x20 }
  - { offsetInCU: 0x1829D, offset: 0x20777, size: 0x8, addend: 0x0, symName: __ZN9RateCurveD2Ev, symObjAddr: 0x3170, symBinAddr: 0x100004EB0, symSize: 0x40 }
  - { offsetInCU: 0x182C8, offset: 0x207A2, size: 0x8, addend: 0x0, symName: __ZNSt3__16vectorIdNS_9allocatorIdEEED1B8ue170006Ev, symObjAddr: 0x31B0, symBinAddr: 0x100004EF0, symSize: 0x20 }
  - { offsetInCU: 0x182F0, offset: 0x207CA, size: 0x8, addend: 0x0, symName: __ZNSt3__16vectorIdNS_9allocatorIdEEED2B8ue170006Ev, symObjAddr: 0x31D0, symBinAddr: 0x100004F10, symSize: 0x40 }
  - { offsetInCU: 0x18318, offset: 0x207F2, size: 0x8, addend: 0x0, symName: __ZNSt3__14pairIKNS_12basic_stringIcNS_11char_traitsIcEENS_9allocatorIcEEEE8VolCurveEC2B8ue170006ERKS9_, symObjAddr: 0x3210, symBinAddr: 0x100004F50, symSize: 0x60 }
  - { offsetInCU: 0x1834A, offset: 0x20824, size: 0x8, addend: 0x0, symName: __ZN8VolCurveC1ERKS_, symObjAddr: 0x3270, symBinAddr: 0x100004FB0, symSize: 0x30 }
  - { offsetInCU: 0x1837E, offset: 0x20858, size: 0x8, addend: 0x0, symName: __ZN8VolCurveC2ERKS_, symObjAddr: 0x32A0, symBinAddr: 0x100004FE0, symSize: 0xA0 }
  - { offsetInCU: 0x183B2, offset: 0x2088C, size: 0x8, addend: 0x0, symName: __ZNSt3__14pairIKNS_12basic_stringIcNS_11char_traitsIcEENS_9allocatorIcEEEE8VolCurveED2Ev, symObjAddr: 0x3340, symBinAddr: 0x100005080, symSize: 0x30 }
  - { offsetInCU: 0x183DD, offset: 0x208B7, size: 0x8, addend: 0x0, symName: __ZN8VolCurveD1Ev, symObjAddr: 0x3370, symBinAddr: 0x1000050B0, symSize: 0x20 }
  - { offsetInCU: 0x18408, offset: 0x208E2, size: 0x8, addend: 0x0, symName: __ZN8VolCurveD2Ev, symObjAddr: 0x3390, symBinAddr: 0x1000050D0, symSize: 0x40 }
  - { offsetInCU: 0x18451, offset: 0x2092B, size: 0x8, addend: 0x0, symName: __ZNKSt3__112basic_stringIcNS_11char_traitsIcEENS_9allocatorIcEEE4dataB8ue170006Ev, symObjAddr: 0x3E70, symBinAddr: 0x100005110, symSize: 0x30 }
  - { offsetInCU: 0x18475, offset: 0x2094F, size: 0x8, addend: 0x0, symName: __ZNKSt3__112basic_stringIcNS_11char_traitsIcEENS_9allocatorIcEEE4sizeB8ue170006Ev, symObjAddr: 0x3EA0, symBinAddr: 0x100005140, symSize: 0x50 }
  - { offsetInCU: 0x18499, offset: 0x20973, size: 0x8, addend: 0x0, symName: __ZNKSt3__112basic_stringIcNS_11char_traitsIcEENS_9allocatorIcEEE13__get_pointerB8ue170006Ev, symObjAddr: 0x3F00, symBinAddr: 0x1000051A0, symSize: 0x50 }
  - { offsetInCU: 0x184BD, offset: 0x20997, size: 0x8, addend: 0x0, symName: __ZNKSt3__112basic_stringIcNS_11char_traitsIcEENS_9allocatorIcEEE18__get_long_pointerB8ue170006Ev, symObjAddr: 0x3F50, symBinAddr: 0x1000051F0, symSize: 0x20 }
  - { offsetInCU: 0x184E1, offset: 0x209BB, size: 0x8, addend: 0x0, symName: __ZNKSt3__112basic_stringIcNS_11char_traitsIcEENS_9allocatorIcEEE19__get_short_pointerB8ue170006Ev, symObjAddr: 0x3F70, symBinAddr: 0x100005210, symSize: 0x30 }
  - { offsetInCU: 0x18505, offset: 0x209DF, size: 0x8, addend: 0x0, symName: __ZNSt3__114pointer_traitsIPKcE10pointer_toB8ue170006ERS1_, symObjAddr: 0x3FA0, symBinAddr: 0x100005240, symSize: 0x10 }
  - { offsetInCU: 0x18527, offset: 0x20A01, size: 0x8, addend: 0x0, symName: __ZNKSt3__112basic_stringIcNS_11char_traitsIcEENS_9allocatorIcEEE15__get_long_sizeB8ue170006Ev, symObjAddr: 0x3FB0, symBinAddr: 0x100005250, symSize: 0x20 }
  - { offsetInCU: 0x1854B, offset: 0x20A25, size: 0x8, addend: 0x0, symName: __ZNKSt3__112basic_stringIcNS_11char_traitsIcEENS_9allocatorIcEEE16__get_short_sizeB8ue170006Ev, symObjAddr: 0x3FD0, symBinAddr: 0x100005270, symSize: 0x30 }
  - { offsetInCU: 0x1856F, offset: 0x20A49, size: 0x8, addend: 0x0, symName: __ZNSt3__16vectorI4DateNS_9allocatorIS1_EEE22__construct_one_at_endB8ue170006IJRKS1_EEEvDpOT_, symObjAddr: 0x4000, symBinAddr: 0x1000052A0, symSize: 0x90 }
  - { offsetInCU: 0x185BB, offset: 0x20A95, size: 0x8, addend: 0x0, symName: __ZNSt3__16vectorI4DateNS_9allocatorIS1_EEE21__push_back_slow_pathIRKS1_EEvOT_, symObjAddr: 0x4090, symBinAddr: 0x100005330, symSize: 0xD0 }
  - { offsetInCU: 0x18618, offset: 0x20AF2, size: 0x8, addend: 0x0, symName: __ZNSt3__116allocator_traitsINS_9allocatorI4DateEEE9constructB8ue170006IS2_JRKS2_EvEEvRS3_PT_DpOT0_, symObjAddr: 0x4160, symBinAddr: 0x100005400, symSize: 0x30 }
  - { offsetInCU: 0x1866E, offset: 0x20B48, size: 0x8, addend: 0x0, symName: __ZNSt3__19allocatorI4DateE9constructB8ue170006IS1_JRKS1_EEEvPT_DpOT0_, symObjAddr: 0x4190, symBinAddr: 0x100005430, symSize: 0x30 }
  - { offsetInCU: 0x186C1, offset: 0x20B9B, size: 0x8, addend: 0x0, symName: __ZNKSt3__16vectorI4DateNS_9allocatorIS1_EEE11__recommendB8ue170006Em, symObjAddr: 0x41C0, symBinAddr: 0x100005460, symSize: 0xA0 }
  - { offsetInCU: 0x18715, offset: 0x20BEF, size: 0x8, addend: 0x0, symName: __ZNSt3__114__split_bufferI4DateRNS_9allocatorIS1_EEEC1EmmS4_, symObjAddr: 0x4260, symBinAddr: 0x100005500, symSize: 0x40 }
  - { offsetInCU: 0x1876A, offset: 0x20C44, size: 0x8, addend: 0x0, symName: __ZNSt3__114__split_bufferI4DateRNS_9allocatorIS1_EEED1Ev, symObjAddr: 0x43C0, symBinAddr: 0x100005660, symSize: 0x20 }
  - { offsetInCU: 0x18795, offset: 0x20C6F, size: 0x8, addend: 0x0, symName: __ZNSt3__114__split_bufferI4DateRNS_9allocatorIS1_EEEC2EmmS4_, symObjAddr: 0x4460, symBinAddr: 0x100005700, symSize: 0xC0 }
  - { offsetInCU: 0x18808, offset: 0x20CE2, size: 0x8, addend: 0x0, symName: __ZNSt3__117__compressed_pairIP4DateRNS_9allocatorIS1_EEEC1B8ue170006IDnS5_EEOT_OT0_, symObjAddr: 0x4520, symBinAddr: 0x1000057C0, symSize: 0x30 }
  - { offsetInCU: 0x1885E, offset: 0x20D38, size: 0x8, addend: 0x0, symName: __ZNSt3__114__split_bufferI4DateRNS_9allocatorIS1_EEE7__allocB8ue170006Ev, symObjAddr: 0x4550, symBinAddr: 0x1000057F0, symSize: 0x20 }
  - { offsetInCU: 0x18882, offset: 0x20D5C, size: 0x8, addend: 0x0, symName: __ZNSt3__114__split_bufferI4DateRNS_9allocatorIS1_EEE9__end_capB8ue170006Ev, symObjAddr: 0x4570, symBinAddr: 0x100005810, symSize: 0x20 }
  - { offsetInCU: 0x188A6, offset: 0x20D80, size: 0x8, addend: 0x0, symName: __ZNSt3__117__compressed_pairIP4DateRNS_9allocatorIS1_EEEC2B8ue170006IDnS5_EEOT_OT0_, symObjAddr: 0x4590, symBinAddr: 0x100005830, symSize: 0x40 }
  - { offsetInCU: 0x188FC, offset: 0x20DD6, size: 0x8, addend: 0x0, symName: __ZNSt3__122__compressed_pair_elemIRNS_9allocatorI4DateEELi1ELb0EEC2B8ue170006IS4_vEEOT_, symObjAddr: 0x45D0, symBinAddr: 0x100005870, symSize: 0x20 }
  - { offsetInCU: 0x1893C, offset: 0x20E16, size: 0x8, addend: 0x0, symName: __ZNSt3__117__compressed_pairIP4DateRNS_9allocatorIS1_EEE6secondB8ue170006Ev, symObjAddr: 0x45F0, symBinAddr: 0x100005890, symSize: 0x20 }
  - { offsetInCU: 0x18960, offset: 0x20E3A, size: 0x8, addend: 0x0, symName: __ZNSt3__122__compressed_pair_elemIRNS_9allocatorI4DateEELi1ELb0EE5__getB8ue170006Ev, symObjAddr: 0x4610, symBinAddr: 0x1000058B0, symSize: 0x20 }
  - { offsetInCU: 0x18984, offset: 0x20E5E, size: 0x8, addend: 0x0, symName: __ZNSt3__117__compressed_pairIP4DateRNS_9allocatorIS1_EEE5firstB8ue170006Ev, symObjAddr: 0x4630, symBinAddr: 0x1000058D0, symSize: 0x20 }
  - { offsetInCU: 0x189A8, offset: 0x20E82, size: 0x8, addend: 0x0, symName: __ZNSt3__116reverse_iteratorIP4DateEC1B8ue170006ES2_, symObjAddr: 0x46C0, symBinAddr: 0x100005960, symSize: 0x30 }
  - { offsetInCU: 0x189DE, offset: 0x20EB8, size: 0x8, addend: 0x0, symName: __ZNKSt3__116reverse_iteratorIP4DateE4baseB8ue170006Ev, symObjAddr: 0x46F0, symBinAddr: 0x100005990, symSize: 0x20 }
  - { offsetInCU: 0x18A25, offset: 0x20EFF, size: 0x8, addend: 0x0, symName: __ZNKSt3__111__move_loopINS_17_ClassicAlgPolicyEEclB8ue170006INS_16reverse_iteratorIP4DateEES7_S7_EENS_4pairIT_T1_EES9_T0_SA_, symObjAddr: 0x4B90, symBinAddr: 0x100005E30, symSize: 0xA0 }
  - { offsetInCU: 0x18A93, offset: 0x20F6D, size: 0x8, addend: 0x0, symName: __ZNSt3__18_IterOpsINS_17_ClassicAlgPolicyEE11__iter_moveB8ue170006IRNS_16reverse_iteratorIP4DateEEEENS_9enable_ifIXsr12is_referenceIDTdeclsr3stdE7declvalIRT_EEEEE5valueEDTclsr3stdE4movedeclsr3stdE7declvalISB_EEEEE4typeEOSA_, symObjAddr: 0x4DB0, symBinAddr: 0x100006050, symSize: 0x20 }
  - { offsetInCU: 0x18ABE, offset: 0x20F98, size: 0x8, addend: 0x0, symName: __ZNKSt3__116reverse_iteratorIP4DateEdeB8ue170006Ev, symObjAddr: 0x4DD0, symBinAddr: 0x100006070, symSize: 0x30 }
  - { offsetInCU: 0x18AF0, offset: 0x20FCA, size: 0x8, addend: 0x0, symName: __ZNSt3__116reverse_iteratorIP4DateEppB8ue170006Ev, symObjAddr: 0x4E00, symBinAddr: 0x1000060A0, symSize: 0x20 }
  - { offsetInCU: 0x18B14, offset: 0x20FEE, size: 0x8, addend: 0x0, symName: __ZNSt3__18_IterOpsINS_17_ClassicAlgPolicyEE25__validate_iter_referenceB8ue170006IRNS_16reverse_iteratorIP4DateEEEEvv, symObjAddr: 0x4E20, symBinAddr: 0x1000060C0, symSize: 0x10 }
  - { offsetInCU: 0x18B31, offset: 0x2100B, size: 0x8, addend: 0x0, symName: __ZNSt3__118__unwrap_iter_implINS_16reverse_iteratorIP4DateEELb0EE8__unwrapB8ue170006ES4_, symObjAddr: 0x4E30, symBinAddr: 0x1000060D0, symSize: 0x20 }
  - { offsetInCU: 0x18B58, offset: 0x21032, size: 0x8, addend: 0x0, symName: __ZNSt3__14pairINS_16reverse_iteratorIP4DateEES4_EC1B8ue170006IS4_S4_LPv0EEEOT_OT0_, symObjAddr: 0x4E50, symBinAddr: 0x1000060F0, symSize: 0x30 }
  - { offsetInCU: 0x18BB5, offset: 0x2108F, size: 0x8, addend: 0x0, symName: __ZNSt3__14pairINS_16reverse_iteratorIP4DateEES4_EC2B8ue170006IS4_S4_LPv0EEEOT_OT0_, symObjAddr: 0x4E80, symBinAddr: 0x100006120, symSize: 0x40 }
  - { offsetInCU: 0x18C12, offset: 0x210EC, size: 0x8, addend: 0x0, symName: __ZNSt3__118__unwrap_iter_implINS_16reverse_iteratorIP4DateEELb0EE8__rewrapB8ue170006ES4_S4_, symObjAddr: 0x4EC0, symBinAddr: 0x100006160, symSize: 0x30 }
  - { offsetInCU: 0x18C3E, offset: 0x21118, size: 0x8, addend: 0x0, symName: __ZNSt3__116reverse_iteratorIP4DateEC2B8ue170006ES2_, symObjAddr: 0x4EF0, symBinAddr: 0x100006190, symSize: 0x30 }
  - { offsetInCU: 0x18C74, offset: 0x2114E, size: 0x8, addend: 0x0, symName: __ZNSt3__114__split_bufferI4DateRNS_9allocatorIS1_EEED2Ev, symObjAddr: 0x4F20, symBinAddr: 0x1000061C0, symSize: 0x70 }
  - { offsetInCU: 0x18C9F, offset: 0x21179, size: 0x8, addend: 0x0, symName: __ZNSt3__114__split_bufferI4DateRNS_9allocatorIS1_EEE5clearB8ue170006Ev, symObjAddr: 0x4F90, symBinAddr: 0x100006230, symSize: 0x20 }
  - { offsetInCU: 0x18CC3, offset: 0x2119D, size: 0x8, addend: 0x0, symName: __ZNKSt3__114__split_bufferI4DateRNS_9allocatorIS1_EEE8capacityB8ue170006Ev, symObjAddr: 0x4FB0, symBinAddr: 0x100006250, symSize: 0x40 }
  - { offsetInCU: 0x18CE7, offset: 0x211C1, size: 0x8, addend: 0x0, symName: __ZNSt3__114__split_bufferI4DateRNS_9allocatorIS1_EEE17__destruct_at_endB8ue170006EPS1_, symObjAddr: 0x4FF0, symBinAddr: 0x100006290, symSize: 0x30 }
  - { offsetInCU: 0x18D18, offset: 0x211F2, size: 0x8, addend: 0x0, symName: __ZNSt3__114__split_bufferI4DateRNS_9allocatorIS1_EEE17__destruct_at_endB8ue170006EPS1_NS_17integral_constantIbLb0EEE, symObjAddr: 0x5020, symBinAddr: 0x1000062C0, symSize: 0x80 }
  - { offsetInCU: 0x18D57, offset: 0x21231, size: 0x8, addend: 0x0, symName: __ZNKSt3__114__split_bufferI4DateRNS_9allocatorIS1_EEE9__end_capB8ue170006Ev, symObjAddr: 0x50A0, symBinAddr: 0x100006340, symSize: 0x20 }
  - { offsetInCU: 0x18D7B, offset: 0x21255, size: 0x8, addend: 0x0, symName: __ZNKSt3__117__compressed_pairIP4DateRNS_9allocatorIS1_EEE5firstB8ue170006Ev, symObjAddr: 0x50C0, symBinAddr: 0x100006360, symSize: 0x20 }
  - { offsetInCU: 0x18D9F, offset: 0x21279, size: 0x8, addend: 0x0, symName: __ZNSt3__16vectorIdNS_9allocatorIdEEE22__construct_one_at_endB8ue170006IJRKdEEEvDpOT_, symObjAddr: 0x50E0, symBinAddr: 0x100006380, symSize: 0x90 }
  - { offsetInCU: 0x18DEB, offset: 0x212C5, size: 0x8, addend: 0x0, symName: __ZNSt3__16vectorIdNS_9allocatorIdEEE21__push_back_slow_pathIRKdEEvOT_, symObjAddr: 0x5170, symBinAddr: 0x100006410, symSize: 0xD0 }
  - { offsetInCU: 0x18E48, offset: 0x21322, size: 0x8, addend: 0x0, symName: __ZNSt3__116allocator_traitsINS_9allocatorIdEEE9constructB8ue170006IdJRKdEvEEvRS2_PT_DpOT0_, symObjAddr: 0x5240, symBinAddr: 0x1000064E0, symSize: 0x30 }
  - { offsetInCU: 0x18E9E, offset: 0x21378, size: 0x8, addend: 0x0, symName: __ZNSt3__19allocatorIdE9constructB8ue170006IdJRKdEEEvPT_DpOT0_, symObjAddr: 0x5270, symBinAddr: 0x100006510, symSize: 0x30 }
  - { offsetInCU: 0x18EF1, offset: 0x213CB, size: 0x8, addend: 0x0, symName: __ZNKSt3__16vectorIdNS_9allocatorIdEEE11__recommendB8ue170006Em, symObjAddr: 0x52A0, symBinAddr: 0x100006540, symSize: 0xA0 }
  - { offsetInCU: 0x18F45, offset: 0x2141F, size: 0x8, addend: 0x0, symName: __ZNSt3__114__split_bufferIdRNS_9allocatorIdEEEC1EmmS3_, symObjAddr: 0x5340, symBinAddr: 0x1000065E0, symSize: 0x40 }
  - { offsetInCU: 0x18F9A, offset: 0x21474, size: 0x8, addend: 0x0, symName: __ZNSt3__114__split_bufferIdRNS_9allocatorIdEEED1Ev, symObjAddr: 0x54A0, symBinAddr: 0x100006740, symSize: 0x20 }
  - { offsetInCU: 0x18FC5, offset: 0x2149F, size: 0x8, addend: 0x0, symName: __ZNSt3__114__split_bufferIdRNS_9allocatorIdEEEC2EmmS3_, symObjAddr: 0x54C0, symBinAddr: 0x100006760, symSize: 0xD0 }
  - { offsetInCU: 0x19038, offset: 0x21512, size: 0x8, addend: 0x0, symName: __ZNSt3__117__compressed_pairIPdRNS_9allocatorIdEEEC1B8ue170006IDnS4_EEOT_OT0_, symObjAddr: 0x5590, symBinAddr: 0x100006830, symSize: 0x30 }
  - { offsetInCU: 0x1908E, offset: 0x21568, size: 0x8, addend: 0x0, symName: __ZNSt3__114__split_bufferIdRNS_9allocatorIdEEE7__allocB8ue170006Ev, symObjAddr: 0x55C0, symBinAddr: 0x100006860, symSize: 0x20 }
  - { offsetInCU: 0x190B2, offset: 0x2158C, size: 0x8, addend: 0x0, symName: __ZNSt3__114__split_bufferIdRNS_9allocatorIdEEE9__end_capB8ue170006Ev, symObjAddr: 0x55E0, symBinAddr: 0x100006880, symSize: 0x20 }
  - { offsetInCU: 0x190D6, offset: 0x215B0, size: 0x8, addend: 0x0, symName: __ZNSt3__117__compressed_pairIPdRNS_9allocatorIdEEEC2B8ue170006IDnS4_EEOT_OT0_, symObjAddr: 0x5600, symBinAddr: 0x1000068A0, symSize: 0x40 }
  - { offsetInCU: 0x1912C, offset: 0x21606, size: 0x8, addend: 0x0, symName: __ZNSt3__122__compressed_pair_elemIRNS_9allocatorIdEELi1ELb0EEC2B8ue170006IS3_vEEOT_, symObjAddr: 0x5640, symBinAddr: 0x1000068E0, symSize: 0x20 }
  - { offsetInCU: 0x1916C, offset: 0x21646, size: 0x8, addend: 0x0, symName: __ZNSt3__117__compressed_pairIPdRNS_9allocatorIdEEE6secondB8ue170006Ev, symObjAddr: 0x5660, symBinAddr: 0x100006900, symSize: 0x20 }
  - { offsetInCU: 0x19190, offset: 0x2166A, size: 0x8, addend: 0x0, symName: __ZNSt3__122__compressed_pair_elemIRNS_9allocatorIdEELi1ELb0EE5__getB8ue170006Ev, symObjAddr: 0x5680, symBinAddr: 0x100006920, symSize: 0x20 }
  - { offsetInCU: 0x191B4, offset: 0x2168E, size: 0x8, addend: 0x0, symName: __ZNSt3__117__compressed_pairIPdRNS_9allocatorIdEEE5firstB8ue170006Ev, symObjAddr: 0x56A0, symBinAddr: 0x100006940, symSize: 0x20 }
  - { offsetInCU: 0x191D8, offset: 0x216B2, size: 0x8, addend: 0x0, symName: __ZNSt3__116reverse_iteratorIPdEC1B8ue170006ES1_, symObjAddr: 0x5730, symBinAddr: 0x1000069D0, symSize: 0x30 }
  - { offsetInCU: 0x1920E, offset: 0x216E8, size: 0x8, addend: 0x0, symName: __ZNKSt3__116reverse_iteratorIPdE4baseB8ue170006Ev, symObjAddr: 0x5760, symBinAddr: 0x100006A00, symSize: 0x20 }
  - { offsetInCU: 0x1924B, offset: 0x21725, size: 0x8, addend: 0x0, symName: __ZNKSt3__111__move_loopINS_17_ClassicAlgPolicyEEclB8ue170006INS_16reverse_iteratorIPdEES6_S6_EENS_4pairIT_T1_EES8_T0_S9_, symObjAddr: 0x5C00, symBinAddr: 0x100006EA0, symSize: 0xA0 }
  - { offsetInCU: 0x192B9, offset: 0x21793, size: 0x8, addend: 0x0, symName: __ZNSt3__18_IterOpsINS_17_ClassicAlgPolicyEE11__iter_moveB8ue170006IRNS_16reverse_iteratorIPdEEEENS_9enable_ifIXsr12is_referenceIDTdeclsr3stdE7declvalIRT_EEEEE5valueEDTclsr3stdE4movedeclsr3stdE7declvalISA_EEEEE4typeEOS9_, symObjAddr: 0x5E20, symBinAddr: 0x1000070C0, symSize: 0x20 }
  - { offsetInCU: 0x192E4, offset: 0x217BE, size: 0x8, addend: 0x0, symName: __ZNKSt3__116reverse_iteratorIPdEdeB8ue170006Ev, symObjAddr: 0x5E40, symBinAddr: 0x1000070E0, symSize: 0x30 }
  - { offsetInCU: 0x19316, offset: 0x217F0, size: 0x8, addend: 0x0, symName: __ZNSt3__116reverse_iteratorIPdEppB8ue170006Ev, symObjAddr: 0x5E70, symBinAddr: 0x100007110, symSize: 0x20 }
  - { offsetInCU: 0x1933A, offset: 0x21814, size: 0x8, addend: 0x0, symName: __ZNSt3__18_IterOpsINS_17_ClassicAlgPolicyEE25__validate_iter_referenceB8ue170006IRNS_16reverse_iteratorIPdEEEEvv, symObjAddr: 0x5E90, symBinAddr: 0x100007130, symSize: 0x10 }
  - { offsetInCU: 0x19357, offset: 0x21831, size: 0x8, addend: 0x0, symName: __ZNSt3__118__unwrap_iter_implINS_16reverse_iteratorIPdEELb0EE8__unwrapB8ue170006ES3_, symObjAddr: 0x5EA0, symBinAddr: 0x100007140, symSize: 0x20 }
  - { offsetInCU: 0x1937E, offset: 0x21858, size: 0x8, addend: 0x0, symName: __ZNSt3__14pairINS_16reverse_iteratorIPdEES3_EC1B8ue170006IS3_S3_LPv0EEEOT_OT0_, symObjAddr: 0x5EC0, symBinAddr: 0x100007160, symSize: 0x30 }
  - { offsetInCU: 0x193DB, offset: 0x218B5, size: 0x8, addend: 0x0, symName: __ZNSt3__14pairINS_16reverse_iteratorIPdEES3_EC2B8ue170006IS3_S3_LPv0EEEOT_OT0_, symObjAddr: 0x5EF0, symBinAddr: 0x100007190, symSize: 0x40 }
  - { offsetInCU: 0x19438, offset: 0x21912, size: 0x8, addend: 0x0, symName: __ZNSt3__118__unwrap_iter_implINS_16reverse_iteratorIPdEELb0EE8__rewrapB8ue170006ES3_S3_, symObjAddr: 0x5F30, symBinAddr: 0x1000071D0, symSize: 0x30 }
  - { offsetInCU: 0x19464, offset: 0x2193E, size: 0x8, addend: 0x0, symName: __ZNSt3__116reverse_iteratorIPdEC2B8ue170006ES1_, symObjAddr: 0x5F60, symBinAddr: 0x100007200, symSize: 0x30 }
  - { offsetInCU: 0x1949A, offset: 0x21974, size: 0x8, addend: 0x0, symName: __ZNSt3__114__split_bufferIdRNS_9allocatorIdEEED2Ev, symObjAddr: 0x5F90, symBinAddr: 0x100007230, symSize: 0x70 }
  - { offsetInCU: 0x194C5, offset: 0x2199F, size: 0x8, addend: 0x0, symName: __ZNSt3__114__split_bufferIdRNS_9allocatorIdEEE5clearB8ue170006Ev, symObjAddr: 0x6000, symBinAddr: 0x1000072A0, symSize: 0x20 }
  - { offsetInCU: 0x194E9, offset: 0x219C3, size: 0x8, addend: 0x0, symName: __ZNKSt3__114__split_bufferIdRNS_9allocatorIdEEE8capacityB8ue170006Ev, symObjAddr: 0x6020, symBinAddr: 0x1000072C0, symSize: 0x30 }
  - { offsetInCU: 0x1950D, offset: 0x219E7, size: 0x8, addend: 0x0, symName: __ZNSt3__114__split_bufferIdRNS_9allocatorIdEEE17__destruct_at_endB8ue170006EPd, symObjAddr: 0x6050, symBinAddr: 0x1000072F0, symSize: 0x30 }
  - { offsetInCU: 0x1953E, offset: 0x21A18, size: 0x8, addend: 0x0, symName: __ZNSt3__114__split_bufferIdRNS_9allocatorIdEEE17__destruct_at_endB8ue170006EPdNS_17integral_constantIbLb0EEE, symObjAddr: 0x6080, symBinAddr: 0x100007320, symSize: 0x80 }
  - { offsetInCU: 0x1957D, offset: 0x21A57, size: 0x8, addend: 0x0, symName: __ZNKSt3__114__split_bufferIdRNS_9allocatorIdEEE9__end_capB8ue170006Ev, symObjAddr: 0x6100, symBinAddr: 0x1000073A0, symSize: 0x20 }
  - { offsetInCU: 0x195A1, offset: 0x21A7B, size: 0x8, addend: 0x0, symName: __ZNKSt3__117__compressed_pairIPdRNS_9allocatorIdEEE5firstB8ue170006Ev, symObjAddr: 0x6120, symBinAddr: 0x1000073C0, symSize: 0x20 }
  - { offsetInCU: 0x195C4, offset: 0x21A9E, size: 0x8, addend: 0x0, symName: __ZNKSt3__112__hash_tableINS_17__hash_value_typeINS_12basic_stringIcNS_11char_traitsIcEENS_9allocatorIcEEEE9RateCurveEENS_22__unordered_map_hasherIS7_S9_NS_4hashIS7_EENS_8equal_toIS7_EELb1EEENS_21__unordered_map_equalIS7_S9_SE_SC_Lb1EEENS5_IS9_EEE5beginEv, symObjAddr: 0x6140, symBinAddr: 0x1000073E0, symSize: 0x30 }
  - { offsetInCU: 0x195EB, offset: 0x21AC5, size: 0x8, addend: 0x0, symName: __ZNSt3__125__hash_map_const_iteratorINS_21__hash_const_iteratorIPNS_11__hash_nodeINS_17__hash_value_typeINS_12basic_stringIcNS_11char_traitsIcEENS_9allocatorIcEEEE9RateCurveEEPvEEEEEC1B8ue170006ESF_, symObjAddr: 0x6170, symBinAddr: 0x100007410, symSize: 0x30 }
  - { offsetInCU: 0x19622, offset: 0x21AFC, size: 0x8, addend: 0x0, symName: __ZNKSt3__117__compressed_pairINS_16__hash_node_baseIPNS_11__hash_nodeINS_17__hash_value_typeINS_12basic_stringIcNS_11char_traitsIcEENS_9allocatorIcEEEE9RateCurveEEPvEEEENS7_ISD_EEE5firstB8ue170006Ev, symObjAddr: 0x61A0, symBinAddr: 0x100007440, symSize: 0x20 }
  - { offsetInCU: 0x19646, offset: 0x21B20, size: 0x8, addend: 0x0, symName: __ZNSt3__121__hash_const_iteratorIPNS_11__hash_nodeINS_17__hash_value_typeINS_12basic_stringIcNS_11char_traitsIcEENS_9allocatorIcEEEE9RateCurveEEPvEEEC1B8ue170006EPNS_16__hash_node_baseISD_EE, symObjAddr: 0x61C0, symBinAddr: 0x100007460, symSize: 0x30 }
  - { offsetInCU: 0x1967D, offset: 0x21B57, size: 0x8, addend: 0x0, symName: __ZNKSt3__122__compressed_pair_elemINS_16__hash_node_baseIPNS_11__hash_nodeINS_17__hash_value_typeINS_12basic_stringIcNS_11char_traitsIcEENS_9allocatorIcEEEE9RateCurveEEPvEEEELi0ELb0EE5__getB8ue170006Ev, symObjAddr: 0x61F0, symBinAddr: 0x100007490, symSize: 0x10 }
  - { offsetInCU: 0x196A1, offset: 0x21B7B, size: 0x8, addend: 0x0, symName: __ZNSt3__121__hash_const_iteratorIPNS_11__hash_nodeINS_17__hash_value_typeINS_12basic_stringIcNS_11char_traitsIcEENS_9allocatorIcEEEE9RateCurveEEPvEEEC2B8ue170006EPNS_16__hash_node_baseISD_EE, symObjAddr: 0x6200, symBinAddr: 0x1000074A0, symSize: 0x20 }
  - { offsetInCU: 0x196D8, offset: 0x21BB2, size: 0x8, addend: 0x0, symName: __ZNSt3__125__hash_map_const_iteratorINS_21__hash_const_iteratorIPNS_11__hash_nodeINS_17__hash_value_typeINS_12basic_stringIcNS_11char_traitsIcEENS_9allocatorIcEEEE9RateCurveEEPvEEEEEC2B8ue170006ESF_, symObjAddr: 0x6220, symBinAddr: 0x1000074C0, symSize: 0x20 }
  - { offsetInCU: 0x1970E, offset: 0x21BE8, size: 0x8, addend: 0x0, symName: __ZNKSt3__112__hash_tableINS_17__hash_value_typeINS_12basic_stringIcNS_11char_traitsIcEENS_9allocatorIcEEEE9RateCurveEENS_22__unordered_map_hasherIS7_S9_NS_4hashIS7_EENS_8equal_toIS7_EELb1EEENS_21__unordered_map_equalIS7_S9_SE_SC_Lb1EEENS5_IS9_EEE3endEv, symObjAddr: 0x6240, symBinAddr: 0x1000074E0, symSize: 0x30 }
  - { offsetInCU: 0x19735, offset: 0x21C0F, size: 0x8, addend: 0x0, symName: __ZNSt3__121__hash_const_iteratorIPNS_11__hash_nodeINS_17__hash_value_typeINS_12basic_stringIcNS_11char_traitsIcEENS_9allocatorIcEEEE9RateCurveEEPvEEEppB8ue170006Ev, symObjAddr: 0x62D0, symBinAddr: 0x100007570, symSize: 0x20 }
  - { offsetInCU: 0x19759, offset: 0x21C33, size: 0x8, addend: 0x0, symName: __ZNKSt3__121__hash_const_iteratorIPNS_11__hash_nodeINS_17__hash_value_typeINS_12basic_stringIcNS_11char_traitsIcEENS_9allocatorIcEEEE9RateCurveEEPvEEEptB8ue170006Ev, symObjAddr: 0x62F0, symBinAddr: 0x100007590, symSize: 0x30 }
  - { offsetInCU: 0x1977D, offset: 0x21C57, size: 0x8, addend: 0x0, symName: __ZNKSt3__117__hash_value_typeINS_12basic_stringIcNS_11char_traitsIcEENS_9allocatorIcEEEE9RateCurveE11__get_valueB8ue170006Ev, symObjAddr: 0x6320, symBinAddr: 0x1000075C0, symSize: 0x20 }
  - { offsetInCU: 0x197A1, offset: 0x21C7B, size: 0x8, addend: 0x0, symName: __ZNSt3__114pointer_traitsIPKNS_17__hash_value_typeINS_12basic_stringIcNS_11char_traitsIcEENS_9allocatorIcEEEE9RateCurveEEE10pointer_toB8ue170006ERSA_, symObjAddr: 0x6340, symBinAddr: 0x1000075E0, symSize: 0x10 }
  - { offsetInCU: 0x197C3, offset: 0x21C9D, size: 0x8, addend: 0x0, symName: __ZNSt3__116__hash_node_baseIPNS_11__hash_nodeINS_17__hash_value_typeINS_12basic_stringIcNS_11char_traitsIcEENS_9allocatorIcEEEE9RateCurveEEPvEEE8__upcastB8ue170006Ev, symObjAddr: 0x6350, symBinAddr: 0x1000075F0, symSize: 0x20 }
  - { offsetInCU: 0x197E7, offset: 0x21CC1, size: 0x8, addend: 0x0, symName: __ZNSt3__114pointer_traitsIPNS_16__hash_node_baseIPNS_11__hash_nodeINS_17__hash_value_typeINS_12basic_stringIcNS_11char_traitsIcEENS_9allocatorIcEEEE9RateCurveEEPvEEEEE10pointer_toB8ue170006ERSF_, symObjAddr: 0x6370, symBinAddr: 0x100007610, symSize: 0x10 }
  - { offsetInCU: 0x19808, offset: 0x21CE2, size: 0x8, addend: 0x0, symName: __ZNKSt3__112__hash_tableINS_17__hash_value_typeINS_12basic_stringIcNS_11char_traitsIcEENS_9allocatorIcEEEE8VolCurveEENS_22__unordered_map_hasherIS7_S9_NS_4hashIS7_EENS_8equal_toIS7_EELb1EEENS_21__unordered_map_equalIS7_S9_SE_SC_Lb1EEENS5_IS9_EEE5beginEv, symObjAddr: 0x63B0, symBinAddr: 0x100007650, symSize: 0x30 }
  - { offsetInCU: 0x1982F, offset: 0x21D09, size: 0x8, addend: 0x0, symName: __ZNSt3__125__hash_map_const_iteratorINS_21__hash_const_iteratorIPNS_11__hash_nodeINS_17__hash_value_typeINS_12basic_stringIcNS_11char_traitsIcEENS_9allocatorIcEEEE8VolCurveEEPvEEEEEC1B8ue170006ESF_, symObjAddr: 0x63E0, symBinAddr: 0x100007680, symSize: 0x30 }
  - { offsetInCU: 0x19866, offset: 0x21D40, size: 0x8, addend: 0x0, symName: __ZNKSt3__117__compressed_pairINS_16__hash_node_baseIPNS_11__hash_nodeINS_17__hash_value_typeINS_12basic_stringIcNS_11char_traitsIcEENS_9allocatorIcEEEE8VolCurveEEPvEEEENS7_ISD_EEE5firstB8ue170006Ev, symObjAddr: 0x6410, symBinAddr: 0x1000076B0, symSize: 0x20 }
  - { offsetInCU: 0x1988A, offset: 0x21D64, size: 0x8, addend: 0x0, symName: __ZNSt3__121__hash_const_iteratorIPNS_11__hash_nodeINS_17__hash_value_typeINS_12basic_stringIcNS_11char_traitsIcEENS_9allocatorIcEEEE8VolCurveEEPvEEEC1B8ue170006EPNS_16__hash_node_baseISD_EE, symObjAddr: 0x6430, symBinAddr: 0x1000076D0, symSize: 0x30 }
  - { offsetInCU: 0x198C1, offset: 0x21D9B, size: 0x8, addend: 0x0, symName: __ZNKSt3__122__compressed_pair_elemINS_16__hash_node_baseIPNS_11__hash_nodeINS_17__hash_value_typeINS_12basic_stringIcNS_11char_traitsIcEENS_9allocatorIcEEEE8VolCurveEEPvEEEELi0ELb0EE5__getB8ue170006Ev, symObjAddr: 0x6460, symBinAddr: 0x100007700, symSize: 0x10 }
  - { offsetInCU: 0x198E5, offset: 0x21DBF, size: 0x8, addend: 0x0, symName: __ZNSt3__121__hash_const_iteratorIPNS_11__hash_nodeINS_17__hash_value_typeINS_12basic_stringIcNS_11char_traitsIcEENS_9allocatorIcEEEE8VolCurveEEPvEEEC2B8ue170006EPNS_16__hash_node_baseISD_EE, symObjAddr: 0x6470, symBinAddr: 0x100007710, symSize: 0x20 }
  - { offsetInCU: 0x1991C, offset: 0x21DF6, size: 0x8, addend: 0x0, symName: __ZNSt3__125__hash_map_const_iteratorINS_21__hash_const_iteratorIPNS_11__hash_nodeINS_17__hash_value_typeINS_12basic_stringIcNS_11char_traitsIcEENS_9allocatorIcEEEE8VolCurveEEPvEEEEEC2B8ue170006ESF_, symObjAddr: 0x6490, symBinAddr: 0x100007730, symSize: 0x20 }
  - { offsetInCU: 0x19952, offset: 0x21E2C, size: 0x8, addend: 0x0, symName: __ZNKSt3__112__hash_tableINS_17__hash_value_typeINS_12basic_stringIcNS_11char_traitsIcEENS_9allocatorIcEEEE8VolCurveEENS_22__unordered_map_hasherIS7_S9_NS_4hashIS7_EENS_8equal_toIS7_EELb1EEENS_21__unordered_map_equalIS7_S9_SE_SC_Lb1EEENS5_IS9_EEE3endEv, symObjAddr: 0x64B0, symBinAddr: 0x100007750, symSize: 0x30 }
  - { offsetInCU: 0x19979, offset: 0x21E53, size: 0x8, addend: 0x0, symName: __ZNSt3__121__hash_const_iteratorIPNS_11__hash_nodeINS_17__hash_value_typeINS_12basic_stringIcNS_11char_traitsIcEENS_9allocatorIcEEEE8VolCurveEEPvEEEppB8ue170006Ev, symObjAddr: 0x6540, symBinAddr: 0x1000077E0, symSize: 0x20 }
  - { offsetInCU: 0x1999D, offset: 0x21E77, size: 0x8, addend: 0x0, symName: __ZNKSt3__121__hash_const_iteratorIPNS_11__hash_nodeINS_17__hash_value_typeINS_12basic_stringIcNS_11char_traitsIcEENS_9allocatorIcEEEE8VolCurveEEPvEEEptB8ue170006Ev, symObjAddr: 0x6560, symBinAddr: 0x100007800, symSize: 0x30 }
  - { offsetInCU: 0x199C1, offset: 0x21E9B, size: 0x8, addend: 0x0, symName: __ZNKSt3__117__hash_value_typeINS_12basic_stringIcNS_11char_traitsIcEENS_9allocatorIcEEEE8VolCurveE11__get_valueB8ue170006Ev, symObjAddr: 0x6590, symBinAddr: 0x100007830, symSize: 0x20 }
  - { offsetInCU: 0x199E5, offset: 0x21EBF, size: 0x8, addend: 0x0, symName: __ZNSt3__114pointer_traitsIPKNS_17__hash_value_typeINS_12basic_stringIcNS_11char_traitsIcEENS_9allocatorIcEEEE8VolCurveEEE10pointer_toB8ue170006ERSA_, symObjAddr: 0x65B0, symBinAddr: 0x100007850, symSize: 0x10 }
  - { offsetInCU: 0x19A07, offset: 0x21EE1, size: 0x8, addend: 0x0, symName: __ZNSt3__116__hash_node_baseIPNS_11__hash_nodeINS_17__hash_value_typeINS_12basic_stringIcNS_11char_traitsIcEENS_9allocatorIcEEEE8VolCurveEEPvEEE8__upcastB8ue170006Ev, symObjAddr: 0x65C0, symBinAddr: 0x100007860, symSize: 0x20 }
  - { offsetInCU: 0x19A2B, offset: 0x21F05, size: 0x8, addend: 0x0, symName: __ZNSt3__114pointer_traitsIPNS_16__hash_node_baseIPNS_11__hash_nodeINS_17__hash_value_typeINS_12basic_stringIcNS_11char_traitsIcEENS_9allocatorIcEEEE8VolCurveEEPvEEEEE10pointer_toB8ue170006ERSF_, symObjAddr: 0x65E0, symBinAddr: 0x100007880, symSize: 0x10 }
  - { offsetInCU: 0x19A4D, offset: 0x21F27, size: 0x8, addend: 0x0, symName: __ZNSt3__112__hash_tableINS_17__hash_value_typeINS_12basic_stringIcNS_11char_traitsIcEENS_9allocatorIcEEEE9RateCurveEENS_22__unordered_map_hasherIS7_S9_NS_4hashIS7_EENS_8equal_toIS7_EELb1EEENS_21__unordered_map_equalIS7_S9_SE_SC_Lb1EEENS5_IS9_EEE16__emplace_uniqueB8ue170006IRKS7_RKS8_EENS_9enable_ifIXsr21__can_extract_map_keyIT_S7_NS_4pairISL_S8_EEEE5valueENSR_INS_15__hash_iteratorIPNS_11__hash_nodeIS9_PvEEEEbEEE4typeEOSQ_OT0_, symObjAddr: 0x6620, symBinAddr: 0x1000078C0, symSize: 0x40 }
  - { offsetInCU: 0x19AA1, offset: 0x21F7B, size: 0x8, addend: 0x0, symName: __ZNSt3__14pairINS_19__hash_map_iteratorINS_15__hash_iteratorIPNS_11__hash_nodeINS_17__hash_value_typeINS_12basic_stringIcNS_11char_traitsIcEENS_9allocatorIcEEEE9RateCurveEEPvEEEEEEbEC1B8ue170006ISG_bLSD_0EEEONS0_IT_T0_EE, symObjAddr: 0x6660, symBinAddr: 0x100007900, symSize: 0x30 }
  - { offsetInCU: 0x19AF0, offset: 0x21FCA, size: 0x8, addend: 0x0, symName: __ZNSt3__112__hash_tableINS_17__hash_value_typeINS_12basic_stringIcNS_11char_traitsIcEENS_9allocatorIcEEEE9RateCurveEENS_22__unordered_map_hasherIS7_S9_NS_4hashIS7_EENS_8equal_toIS7_EELb1EEENS_21__unordered_map_equalIS7_S9_SE_SC_Lb1EEENS5_IS9_EEE25__emplace_unique_key_argsIS7_JRKS7_RKS8_EEENS_4pairINS_15__hash_iteratorIPNS_11__hash_nodeIS9_PvEEEEbEERKT_DpOT0_, symObjAddr: 0x6690, symBinAddr: 0x100007930, symSize: 0x650 }
  - { offsetInCU: 0x19BE2, offset: 0x220BC, size: 0x8, addend: 0x0, symName: __ZNSt3__112__hash_tableINS_17__hash_value_typeINS_12basic_stringIcNS_11char_traitsIcEENS_9allocatorIcEEEE9RateCurveEENS_22__unordered_map_hasherIS7_S9_NS_4hashIS7_EENS_8equal_toIS7_EELb1EEENS_21__unordered_map_equalIS7_S9_SE_SC_Lb1EEENS5_IS9_EEE13hash_functionB8ue170006Ev, symObjAddr: 0x6CE0, symBinAddr: 0x100007F80, symSize: 0x20 }
  - { offsetInCU: 0x19C06, offset: 0x220E0, size: 0x8, addend: 0x0, symName: __ZNKSt3__122__unordered_map_hasherINS_12basic_stringIcNS_11char_traitsIcEENS_9allocatorIcEEEENS_17__hash_value_typeIS6_9RateCurveEENS_4hashIS6_EENS_8equal_toIS6_EELb1EEclB8ue170006ERKS6_, symObjAddr: 0x6D00, symBinAddr: 0x100007FA0, symSize: 0x30 }
  - { offsetInCU: 0x19C39, offset: 0x22113, size: 0x8, addend: 0x0, symName: __ZNKSt3__112__hash_tableINS_17__hash_value_typeINS_12basic_stringIcNS_11char_traitsIcEENS_9allocatorIcEEEE9RateCurveEENS_22__unordered_map_hasherIS7_S9_NS_4hashIS7_EENS_8equal_toIS7_EELb1EEENS_21__unordered_map_equalIS7_S9_SE_SC_Lb1EEENS5_IS9_EEE12bucket_countB8ue170006Ev, symObjAddr: 0x6D30, symBinAddr: 0x100007FD0, symSize: 0x30 }
  - { offsetInCU: 0x19C5D, offset: 0x22137, size: 0x8, addend: 0x0, symName: __ZNKSt3__110unique_ptrIA_PNS_16__hash_node_baseIPNS_11__hash_nodeINS_17__hash_value_typeINS_12basic_stringIcNS_11char_traitsIcEENS_9allocatorIcEEEE9RateCurveEEPvEEEENS_25__bucket_list_deallocatorINS7_ISG_EEEEEixB8ue170006Em, symObjAddr: 0x6DE0, symBinAddr: 0x100008080, symSize: 0x30 }
  - { offsetInCU: 0x19C90, offset: 0x2216A, size: 0x8, addend: 0x0, symName: __ZNKSt3__116__hash_node_baseIPNS_11__hash_nodeINS_17__hash_value_typeINS_12basic_stringIcNS_11char_traitsIcEENS_9allocatorIcEEEE9RateCurveEEPvEEE6__hashB8ue170006Ev, symObjAddr: 0x6E10, symBinAddr: 0x1000080B0, symSize: 0x20 }
  - { offsetInCU: 0x19CB4, offset: 0x2218E, size: 0x8, addend: 0x0, symName: __ZNSt3__112__hash_tableINS_17__hash_value_typeINS_12basic_stringIcNS_11char_traitsIcEENS_9allocatorIcEEEE9RateCurveEENS_22__unordered_map_hasherIS7_S9_NS_4hashIS7_EENS_8equal_toIS7_EELb1EEENS_21__unordered_map_equalIS7_S9_SE_SC_Lb1EEENS5_IS9_EEE6key_eqB8ue170006Ev, symObjAddr: 0x6E30, symBinAddr: 0x1000080D0, symSize: 0x20 }
  - { offsetInCU: 0x19CD8, offset: 0x221B2, size: 0x8, addend: 0x0, symName: __ZNKSt3__121__unordered_map_equalINS_12basic_stringIcNS_11char_traitsIcEENS_9allocatorIcEEEENS_17__hash_value_typeIS6_9RateCurveEENS_8equal_toIS6_EENS_4hashIS6_EELb1EEclB8ue170006ERKS9_RKS6_, symObjAddr: 0x6E50, symBinAddr: 0x1000080F0, symSize: 0x40 }
  - { offsetInCU: 0x19D19, offset: 0x221F3, size: 0x8, addend: 0x0, symName: __ZNSt3__112__hash_tableINS_17__hash_value_typeINS_12basic_stringIcNS_11char_traitsIcEENS_9allocatorIcEEEE9RateCurveEENS_22__unordered_map_hasherIS7_S9_NS_4hashIS7_EENS_8equal_toIS7_EELb1EEENS_21__unordered_map_equalIS7_S9_SE_SC_Lb1EEENS5_IS9_EEE21__construct_node_hashIRKS7_JRKS8_EEENS_10unique_ptrINS_11__hash_nodeIS9_PvEENS_22__hash_node_destructorINS5_ISS_EEEEEEmOT_DpOT0_, symObjAddr: 0x6E90, symBinAddr: 0x100008130, symSize: 0x140 }
  - { offsetInCU: 0x19DA0, offset: 0x2227A, size: 0x8, addend: 0x0, symName: __ZNSt3__112__hash_tableINS_17__hash_value_typeINS_12basic_stringIcNS_11char_traitsIcEENS_9allocatorIcEEEE9RateCurveEENS_22__unordered_map_hasherIS7_S9_NS_4hashIS7_EENS_8equal_toIS7_EELb1EEENS_21__unordered_map_equalIS7_S9_SE_SC_Lb1EEENS5_IS9_EEE4sizeB8ue170006Ev, symObjAddr: 0x6FD0, symBinAddr: 0x100008270, symSize: 0x20 }
  - { offsetInCU: 0x19DC4, offset: 0x2229E, size: 0x8, addend: 0x0, symName: __ZNSt3__112__hash_tableINS_17__hash_value_typeINS_12basic_stringIcNS_11char_traitsIcEENS_9allocatorIcEEEE9RateCurveEENS_22__unordered_map_hasherIS7_S9_NS_4hashIS7_EENS_8equal_toIS7_EELb1EEENS_21__unordered_map_equalIS7_S9_SE_SC_Lb1EEENS5_IS9_EEE15max_load_factorB8ue170006Ev, symObjAddr: 0x6FF0, symBinAddr: 0x100008290, symSize: 0x20 }
  - { offsetInCU: 0x19DE8, offset: 0x222C2, size: 0x8, addend: 0x0, symName: __ZNSt3__112__hash_tableINS_17__hash_value_typeINS_12basic_stringIcNS_11char_traitsIcEENS_9allocatorIcEEEE9RateCurveEENS_22__unordered_map_hasherIS7_S9_NS_4hashIS7_EENS_8equal_toIS7_EELb1EEENS_21__unordered_map_equalIS7_S9_SE_SC_Lb1EEENS5_IS9_EEE15__rehash_uniqueB8ue170006Em, symObjAddr: 0x7010, symBinAddr: 0x1000082B0, symSize: 0x30 }
  - { offsetInCU: 0x19E1A, offset: 0x222F4, size: 0x8, addend: 0x0, symName: __Z4ceilB8ue170006f, symObjAddr: 0x7080, symBinAddr: 0x100008320, symSize: 0x20 }
  - { offsetInCU: 0x19E49, offset: 0x22323, size: 0x8, addend: 0x0, symName: __ZNSt3__117__compressed_pairINS_16__hash_node_baseIPNS_11__hash_nodeINS_17__hash_value_typeINS_12basic_stringIcNS_11char_traitsIcEENS_9allocatorIcEEEE9RateCurveEEPvEEEENS7_ISD_EEE5firstB8ue170006Ev, symObjAddr: 0x70A0, symBinAddr: 0x100008340, symSize: 0x20 }
  - { offsetInCU: 0x19E6D, offset: 0x22347, size: 0x8, addend: 0x0, symName: __ZNSt3__116__hash_node_baseIPNS_11__hash_nodeINS_17__hash_value_typeINS_12basic_stringIcNS_11char_traitsIcEENS_9allocatorIcEEEE9RateCurveEEPvEEE5__ptrB8ue170006Ev, symObjAddr: 0x70C0, symBinAddr: 0x100008360, symSize: 0x20 }
  - { offsetInCU: 0x19E91, offset: 0x2236B, size: 0x8, addend: 0x0, symName: __ZNKSt3__110unique_ptrINS_11__hash_nodeINS_17__hash_value_typeINS_12basic_stringIcNS_11char_traitsIcEENS_9allocatorIcEEEE9RateCurveEEPvEENS_22__hash_node_destructorINS6_ISC_EEEEEptB8ue170006Ev, symObjAddr: 0x70E0, symBinAddr: 0x100008380, symSize: 0x20 }
  - { offsetInCU: 0x19EB5, offset: 0x2238F, size: 0x8, addend: 0x0, symName: __ZNKSt3__110unique_ptrINS_11__hash_nodeINS_17__hash_value_typeINS_12basic_stringIcNS_11char_traitsIcEENS_9allocatorIcEEEE9RateCurveEEPvEENS_22__hash_node_destructorINS6_ISC_EEEEE3getB8ue170006Ev, symObjAddr: 0x7100, symBinAddr: 0x1000083A0, symSize: 0x20 }
  - { offsetInCU: 0x19ED9, offset: 0x223B3, size: 0x8, addend: 0x0, symName: __ZNSt3__110unique_ptrINS_11__hash_nodeINS_17__hash_value_typeINS_12basic_stringIcNS_11char_traitsIcEENS_9allocatorIcEEEE9RateCurveEEPvEENS_22__hash_node_destructorINS6_ISC_EEEEE7releaseB8ue170006Ev, symObjAddr: 0x7120, symBinAddr: 0x1000083C0, symSize: 0x40 }
  - { offsetInCU: 0x19F0C, offset: 0x223E6, size: 0x8, addend: 0x0, symName: __ZNSt3__110unique_ptrINS_11__hash_nodeINS_17__hash_value_typeINS_12basic_stringIcNS_11char_traitsIcEENS_9allocatorIcEEEE9RateCurveEEPvEENS_22__hash_node_destructorINS6_ISC_EEEEED1B8ue170006Ev, symObjAddr: 0x7160, symBinAddr: 0x100008400, symSize: 0x20 }
  - { offsetInCU: 0x19F34, offset: 0x2240E, size: 0x8, addend: 0x0, symName: __ZNSt3__115__hash_iteratorIPNS_11__hash_nodeINS_17__hash_value_typeINS_12basic_stringIcNS_11char_traitsIcEENS_9allocatorIcEEEE9RateCurveEEPvEEEC1B8ue170006EPNS_16__hash_node_baseISD_EE, symObjAddr: 0x7180, symBinAddr: 0x100008420, symSize: 0x30 }
  - { offsetInCU: 0x19F75, offset: 0x2244F, size: 0x8, addend: 0x0, symName: __ZNSt3__14pairINS_15__hash_iteratorIPNS_11__hash_nodeINS_17__hash_value_typeINS_12basic_stringIcNS_11char_traitsIcEENS_9allocatorIcEEEE9RateCurveEEPvEEEEbEC1B8ue170006ISF_RbLSC_0EEEOT_OT0_, symObjAddr: 0x71B0, symBinAddr: 0x100008450, symSize: 0x30 }
  - { offsetInCU: 0x19FD2, offset: 0x224AC, size: 0x8, addend: 0x0, symName: __ZNSt3__117__compressed_pairImNS_22__unordered_map_hasherINS_12basic_stringIcNS_11char_traitsIcEENS_9allocatorIcEEEENS_17__hash_value_typeIS7_9RateCurveEENS_4hashIS7_EENS_8equal_toIS7_EELb1EEEE6secondB8ue170006Ev, symObjAddr: 0x71E0, symBinAddr: 0x100008480, symSize: 0x20 }
  - { offsetInCU: 0x19FF6, offset: 0x224D0, size: 0x8, addend: 0x0, symName: __ZNSt3__122__compressed_pair_elemINS_22__unordered_map_hasherINS_12basic_stringIcNS_11char_traitsIcEENS_9allocatorIcEEEENS_17__hash_value_typeIS7_9RateCurveEENS_4hashIS7_EENS_8equal_toIS7_EELb1EEELi1ELb1EE5__getB8ue170006Ev, symObjAddr: 0x7200, symBinAddr: 0x1000084A0, symSize: 0x10 }
  - { offsetInCU: 0x1A01A, offset: 0x224F4, size: 0x8, addend: 0x0, symName: __ZNKSt3__113__string_hashIcNS_9allocatorIcEEEclB8ue170006ERKNS_12basic_stringIcNS_11char_traitsIcEES2_EE, symObjAddr: 0x7210, symBinAddr: 0x1000084B0, symSize: 0x60 }
  - { offsetInCU: 0x1A04D, offset: 0x22527, size: 0x8, addend: 0x0, symName: __ZNKSt3__121__murmur2_or_cityhashImLm64EEclB8ue170006EPKvm, symObjAddr: 0x72B0, symBinAddr: 0x100008550, symSize: 0x3D0 }
  - { offsetInCU: 0x1A0E3, offset: 0x225BD, size: 0x8, addend: 0x0, symName: __ZNSt3__121__murmur2_or_cityhashImLm64EE18__hash_len_0_to_16B8ue170006EPKcm, symObjAddr: 0x7680, symBinAddr: 0x100008920, symSize: 0x180 }
  - { offsetInCU: 0x1A1BE, offset: 0x22698, size: 0x8, addend: 0x0, symName: __ZNSt3__121__murmur2_or_cityhashImLm64EE19__hash_len_17_to_32B8ue170006EPKcm, symObjAddr: 0x7800, symBinAddr: 0x100008AA0, symSize: 0x100 }
  - { offsetInCU: 0x1A226, offset: 0x22700, size: 0x8, addend: 0x0, symName: __ZNSt3__121__murmur2_or_cityhashImLm64EE19__hash_len_33_to_64B8ue170006EPKcm, symObjAddr: 0x7900, symBinAddr: 0x100008BA0, symSize: 0x260 }
  - { offsetInCU: 0x1A2DA, offset: 0x227B4, size: 0x8, addend: 0x0, symName: __ZNSt3__121__murmur2_or_cityhashImLm64EE13__hash_len_16B8ue170006Emm, symObjAddr: 0x7B80, symBinAddr: 0x100008E20, symSize: 0x90 }
  - { offsetInCU: 0x1A334, offset: 0x2280E, size: 0x8, addend: 0x0, symName: __ZNSt3__121__murmur2_or_cityhashImLm64EE29__weak_hash_len_32_with_seedsB8ue170006EPKcmm, symObjAddr: 0x7C10, symBinAddr: 0x100008EB0, symSize: 0x90 }
  - { offsetInCU: 0x1A372, offset: 0x2284C, size: 0x8, addend: 0x0, symName: __ZNSt3__121__murmur2_or_cityhashImLm64EE8__rotateB8ue170006Emi, symObjAddr: 0x7CA0, symBinAddr: 0x100008F40, symSize: 0x50 }
  - { offsetInCU: 0x1A3A2, offset: 0x2287C, size: 0x8, addend: 0x0, symName: __ZNSt3__14pairImmEaSB8ue170006EOS1_, symObjAddr: 0x7CF0, symBinAddr: 0x100008F90, symSize: 0x30 }
  - { offsetInCU: 0x1A3D5, offset: 0x228AF, size: 0x8, addend: 0x0, symName: __ZNSt3__121__murmur2_or_cityhashImLm64EE11__shift_mixB8ue170006Em, symObjAddr: 0x7D60, symBinAddr: 0x100009000, symSize: 0x20 }
  - { offsetInCU: 0x1A3F7, offset: 0x228D1, size: 0x8, addend: 0x0, symName: __ZNSt3__121__murmur2_or_cityhashImLm64EE22__rotate_by_at_least_1B8ue170006Emi, symObjAddr: 0x7D80, symBinAddr: 0x100009020, symSize: 0x30 }
  - { offsetInCU: 0x1A427, offset: 0x22901, size: 0x8, addend: 0x0, symName: __ZNSt3__121__murmur2_or_cityhashImLm64EE29__weak_hash_len_32_with_seedsB8ue170006Emmmmmm, symObjAddr: 0x7DD0, symBinAddr: 0x100009070, symSize: 0xD0 }
  - { offsetInCU: 0x1A4A3, offset: 0x2297D, size: 0x8, addend: 0x0, symName: __ZNSt3__14pairImmEC1B8ue170006ImmLPv0EEEOT_OT0_, symObjAddr: 0x7EA0, symBinAddr: 0x100009140, symSize: 0x30 }
  - { offsetInCU: 0x1A500, offset: 0x229DA, size: 0x8, addend: 0x0, symName: __ZNSt3__14pairImmEC2B8ue170006ImmLPv0EEEOT_OT0_, symObjAddr: 0x7ED0, symBinAddr: 0x100009170, symSize: 0x30 }
  - { offsetInCU: 0x1A55D, offset: 0x22A37, size: 0x8, addend: 0x0, symName: __ZNKSt3__110unique_ptrIA_PNS_16__hash_node_baseIPNS_11__hash_nodeINS_17__hash_value_typeINS_12basic_stringIcNS_11char_traitsIcEENS_9allocatorIcEEEE9RateCurveEEPvEEEENS_25__bucket_list_deallocatorINS7_ISG_EEEEE11get_deleterB8ue170006Ev, symObjAddr: 0x7F00, symBinAddr: 0x1000091A0, symSize: 0x20 }
  - { offsetInCU: 0x1A581, offset: 0x22A5B, size: 0x8, addend: 0x0, symName: __ZNKSt3__125__bucket_list_deallocatorINS_9allocatorIPNS_16__hash_node_baseIPNS_11__hash_nodeINS_17__hash_value_typeINS_12basic_stringIcNS_11char_traitsIcEENS1_IcEEEE9RateCurveEEPvEEEEEEE4sizeB8ue170006Ev, symObjAddr: 0x7F20, symBinAddr: 0x1000091C0, symSize: 0x20 }
  - { offsetInCU: 0x1A5A5, offset: 0x22A7F, size: 0x8, addend: 0x0, symName: __ZNKSt3__117__compressed_pairIPPNS_16__hash_node_baseIPNS_11__hash_nodeINS_17__hash_value_typeINS_12basic_stringIcNS_11char_traitsIcEENS_9allocatorIcEEEE9RateCurveEEPvEEEENS_25__bucket_list_deallocatorINS7_ISG_EEEEE6secondB8ue170006Ev, symObjAddr: 0x7F40, symBinAddr: 0x1000091E0, symSize: 0x20 }
  - { offsetInCU: 0x1A5C9, offset: 0x22AA3, size: 0x8, addend: 0x0, symName: __ZNKSt3__122__compressed_pair_elemINS_25__bucket_list_deallocatorINS_9allocatorIPNS_16__hash_node_baseIPNS_11__hash_nodeINS_17__hash_value_typeINS_12basic_stringIcNS_11char_traitsIcEENS2_IcEEEE9RateCurveEEPvEEEEEEEELi1ELb0EE5__getB8ue170006Ev, symObjAddr: 0x7F60, symBinAddr: 0x100009200, symSize: 0x10 }
  - { offsetInCU: 0x1A5ED, offset: 0x22AC7, size: 0x8, addend: 0x0, symName: __ZNKSt3__117__compressed_pairImNS_9allocatorIPNS_16__hash_node_baseIPNS_11__hash_nodeINS_17__hash_value_typeINS_12basic_stringIcNS_11char_traitsIcEENS1_IcEEEE9RateCurveEEPvEEEEEEE5firstB8ue170006Ev, symObjAddr: 0x7F70, symBinAddr: 0x100009210, symSize: 0x20 }
  - { offsetInCU: 0x1A611, offset: 0x22AEB, size: 0x8, addend: 0x0, symName: __ZNKSt3__122__compressed_pair_elemImLi0ELb0EE5__getB8ue170006Ev, symObjAddr: 0x7F90, symBinAddr: 0x100009230, symSize: 0x10 }
  - { offsetInCU: 0x1A635, offset: 0x22B0F, size: 0x8, addend: 0x0, symName: __ZNKSt3__117__compressed_pairIPPNS_16__hash_node_baseIPNS_11__hash_nodeINS_17__hash_value_typeINS_12basic_stringIcNS_11char_traitsIcEENS_9allocatorIcEEEE9RateCurveEEPvEEEENS_25__bucket_list_deallocatorINS7_ISG_EEEEE5firstB8ue170006Ev, symObjAddr: 0x7FA0, symBinAddr: 0x100009240, symSize: 0x20 }
  - { offsetInCU: 0x1A659, offset: 0x22B33, size: 0x8, addend: 0x0, symName: __ZNKSt3__122__compressed_pair_elemIPPNS_16__hash_node_baseIPNS_11__hash_nodeINS_17__hash_value_typeINS_12basic_stringIcNS_11char_traitsIcEENS_9allocatorIcEEEE9RateCurveEEPvEEEELi0ELb0EE5__getB8ue170006Ev, symObjAddr: 0x7FC0, symBinAddr: 0x100009260, symSize: 0x10 }
  - { offsetInCU: 0x1A67D, offset: 0x22B57, size: 0x8, addend: 0x0, symName: __ZNSt3__117__compressed_pairIfNS_21__unordered_map_equalINS_12basic_stringIcNS_11char_traitsIcEENS_9allocatorIcEEEENS_17__hash_value_typeIS7_9RateCurveEENS_8equal_toIS7_EENS_4hashIS7_EELb1EEEE6secondB8ue170006Ev, symObjAddr: 0x7FD0, symBinAddr: 0x100009270, symSize: 0x20 }
  - { offsetInCU: 0x1A6A1, offset: 0x22B7B, size: 0x8, addend: 0x0, symName: __ZNSt3__122__compressed_pair_elemINS_21__unordered_map_equalINS_12basic_stringIcNS_11char_traitsIcEENS_9allocatorIcEEEENS_17__hash_value_typeIS7_9RateCurveEENS_8equal_toIS7_EENS_4hashIS7_EELb1EEELi1ELb1EE5__getB8ue170006Ev, symObjAddr: 0x7FF0, symBinAddr: 0x100009290, symSize: 0x10 }
  - { offsetInCU: 0x1A6C5, offset: 0x22B9F, size: 0x8, addend: 0x0, symName: __ZNKSt3__18equal_toINS_12basic_stringIcNS_11char_traitsIcEENS_9allocatorIcEEEEEclB8ue170006ERKS6_S9_, symObjAddr: 0x8000, symBinAddr: 0x1000092A0, symSize: 0x30 }
  - { offsetInCU: 0x1A707, offset: 0x22BE1, size: 0x8, addend: 0x0, symName: __ZNSt3__111char_traitsIcE7compareB8ue170006EPKcS3_m, symObjAddr: 0x8140, symBinAddr: 0x1000093E0, symSize: 0x30 }
  - { offsetInCU: 0x1A745, offset: 0x22C1F, size: 0x8, addend: 0x0, symName: __ZNSt3__112__hash_tableINS_17__hash_value_typeINS_12basic_stringIcNS_11char_traitsIcEENS_9allocatorIcEEEE9RateCurveEENS_22__unordered_map_hasherIS7_S9_NS_4hashIS7_EENS_8equal_toIS7_EELb1EEENS_21__unordered_map_equalIS7_S9_SE_SC_Lb1EEENS5_IS9_EEE12__node_allocB8ue170006Ev, symObjAddr: 0x8170, symBinAddr: 0x100009410, symSize: 0x20 }
  - { offsetInCU: 0x1A769, offset: 0x22C43, size: 0x8, addend: 0x0, symName: __ZNSt3__116allocator_traitsINS_9allocatorINS_11__hash_nodeINS_17__hash_value_typeINS_12basic_stringIcNS_11char_traitsIcEENS1_IcEEEE9RateCurveEEPvEEEEE8allocateB8ue170006ERSD_m, symObjAddr: 0x8190, symBinAddr: 0x100009430, symSize: 0x30 }
  - { offsetInCU: 0x1A79B, offset: 0x22C75, size: 0x8, addend: 0x0, symName: __ZNSt3__122__hash_node_destructorINS_9allocatorINS_11__hash_nodeINS_17__hash_value_typeINS_12basic_stringIcNS_11char_traitsIcEENS1_IcEEEE9RateCurveEEPvEEEEEC1B8ue170006ERSD_b, symObjAddr: 0x81C0, symBinAddr: 0x100009460, symSize: 0x40 }
  - { offsetInCU: 0x1A7E6, offset: 0x22CC0, size: 0x8, addend: 0x0, symName: __ZNSt3__110unique_ptrINS_11__hash_nodeINS_17__hash_value_typeINS_12basic_stringIcNS_11char_traitsIcEENS_9allocatorIcEEEE9RateCurveEEPvEENS_22__hash_node_destructorINS6_ISC_EEEEEC1B8ue170006ILb1EvEEPSC_NS_16__dependent_typeINS_27__unique_ptr_deleter_sfinaeISF_EEXT_EE20__good_rval_ref_typeE, symObjAddr: 0x8200, symBinAddr: 0x1000094A0, symSize: 0x30 }
  - { offsetInCU: 0x1A835, offset: 0x22D0F, size: 0x8, addend: 0x0, symName: __ZNSt3__116allocator_traitsINS_9allocatorINS_11__hash_nodeINS_17__hash_value_typeINS_12basic_stringIcNS_11char_traitsIcEENS1_IcEEEE9RateCurveEEPvEEEEE9constructB8ue170006INS_4pairIKS8_S9_EEJRSH_RKS9_EvEEvRSD_PT_DpOT0_, symObjAddr: 0x8230, symBinAddr: 0x1000094D0, symSize: 0x40 }
  - { offsetInCU: 0x1A89F, offset: 0x22D79, size: 0x8, addend: 0x0, symName: __ZNSt3__122__hash_key_value_typesINS_17__hash_value_typeINS_12basic_stringIcNS_11char_traitsIcEENS_9allocatorIcEEEE9RateCurveEEE9__get_ptrB8ue170006ERS9_, symObjAddr: 0x8270, symBinAddr: 0x100009510, symSize: 0x20 }
  - { offsetInCU: 0x1A8C1, offset: 0x22D9B, size: 0x8, addend: 0x0, symName: __ZNSt3__110unique_ptrINS_11__hash_nodeINS_17__hash_value_typeINS_12basic_stringIcNS_11char_traitsIcEENS_9allocatorIcEEEE9RateCurveEEPvEENS_22__hash_node_destructorINS6_ISC_EEEEE11get_deleterB8ue170006Ev, symObjAddr: 0x8290, symBinAddr: 0x100009530, symSize: 0x20 }
  - { offsetInCU: 0x1A8E5, offset: 0x22DBF, size: 0x8, addend: 0x0, symName: __ZNSt3__117__compressed_pairINS_16__hash_node_baseIPNS_11__hash_nodeINS_17__hash_value_typeINS_12basic_stringIcNS_11char_traitsIcEENS_9allocatorIcEEEE9RateCurveEEPvEEEENS7_ISD_EEE6secondB8ue170006Ev, symObjAddr: 0x82B0, symBinAddr: 0x100009550, symSize: 0x20 }
  - { offsetInCU: 0x1A909, offset: 0x22DE3, size: 0x8, addend: 0x0, symName: __ZNSt3__122__compressed_pair_elemINS_9allocatorINS_11__hash_nodeINS_17__hash_value_typeINS_12basic_stringIcNS_11char_traitsIcEENS1_IcEEEE9RateCurveEEPvEEEELi1ELb1EE5__getB8ue170006Ev, symObjAddr: 0x82D0, symBinAddr: 0x100009570, symSize: 0x10 }
  - { offsetInCU: 0x1A92D, offset: 0x22E07, size: 0x8, addend: 0x0, symName: __ZNSt3__19allocatorINS_11__hash_nodeINS_17__hash_value_typeINS_12basic_stringIcNS_11char_traitsIcEENS0_IcEEEE9RateCurveEEPvEEE8allocateB8ue170006Em, symObjAddr: 0x82E0, symBinAddr: 0x100009580, symSize: 0x50 }
  - { offsetInCU: 0x1A969, offset: 0x22E43, size: 0x8, addend: 0x0, symName: __ZNSt3__116allocator_traitsINS_9allocatorINS_11__hash_nodeINS_17__hash_value_typeINS_12basic_stringIcNS_11char_traitsIcEENS1_IcEEEE9RateCurveEEPvEEEEE8max_sizeB8ue170006ISD_vEEmRKSD_, symObjAddr: 0x8330, symBinAddr: 0x1000095D0, symSize: 0x20 }
  - { offsetInCU: 0x1A996, offset: 0x22E70, size: 0x8, addend: 0x0, symName: __ZNKSt3__19allocatorINS_11__hash_nodeINS_17__hash_value_typeINS_12basic_stringIcNS_11char_traitsIcEENS0_IcEEEE9RateCurveEEPvEEE8max_sizeB8ue170006Ev, symObjAddr: 0x8350, symBinAddr: 0x1000095F0, symSize: 0x20 }
  - { offsetInCU: 0x1A9BA, offset: 0x22E94, size: 0x8, addend: 0x0, symName: __ZNSt3__122__hash_node_destructorINS_9allocatorINS_11__hash_nodeINS_17__hash_value_typeINS_12basic_stringIcNS_11char_traitsIcEENS1_IcEEEE9RateCurveEEPvEEEEEC2B8ue170006ERSD_b, symObjAddr: 0x8370, symBinAddr: 0x100009610, symSize: 0x30 }
  - { offsetInCU: 0x1AA00, offset: 0x22EDA, size: 0x8, addend: 0x0, symName: __ZNSt3__110unique_ptrINS_11__hash_nodeINS_17__hash_value_typeINS_12basic_stringIcNS_11char_traitsIcEENS_9allocatorIcEEEE9RateCurveEEPvEENS_22__hash_node_destructorINS6_ISC_EEEEEC2B8ue170006ILb1EvEEPSC_NS_16__dependent_typeINS_27__unique_ptr_deleter_sfinaeISF_EEXT_EE20__good_rval_ref_typeE, symObjAddr: 0x83A0, symBinAddr: 0x100009640, symSize: 0x40 }
  - { offsetInCU: 0x1AA4F, offset: 0x22F29, size: 0x8, addend: 0x0, symName: __ZNSt3__117__compressed_pairIPNS_11__hash_nodeINS_17__hash_value_typeINS_12basic_stringIcNS_11char_traitsIcEENS_9allocatorIcEEEE9RateCurveEEPvEENS_22__hash_node_destructorINS6_ISC_EEEEEC1B8ue170006IRSD_SG_EEOT_OT0_, symObjAddr: 0x83E0, symBinAddr: 0x100009680, symSize: 0x30 }
  - { offsetInCU: 0x1AAA5, offset: 0x22F7F, size: 0x8, addend: 0x0, symName: __ZNSt3__117__compressed_pairIPNS_11__hash_nodeINS_17__hash_value_typeINS_12basic_stringIcNS_11char_traitsIcEENS_9allocatorIcEEEE9RateCurveEEPvEENS_22__hash_node_destructorINS6_ISC_EEEEEC2B8ue170006IRSD_SG_EEOT_OT0_, symObjAddr: 0x8410, symBinAddr: 0x1000096B0, symSize: 0x40 }
  - { offsetInCU: 0x1AAFB, offset: 0x22FD5, size: 0x8, addend: 0x0, symName: __ZNSt3__122__compressed_pair_elemIPNS_11__hash_nodeINS_17__hash_value_typeINS_12basic_stringIcNS_11char_traitsIcEENS_9allocatorIcEEEE9RateCurveEEPvEELi0ELb0EEC2B8ue170006IRSD_vEEOT_, symObjAddr: 0x8450, symBinAddr: 0x1000096F0, symSize: 0x20 }
  - { offsetInCU: 0x1AB3B, offset: 0x23015, size: 0x8, addend: 0x0, symName: __ZNSt3__122__compressed_pair_elemINS_22__hash_node_destructorINS_9allocatorINS_11__hash_nodeINS_17__hash_value_typeINS_12basic_stringIcNS_11char_traitsIcEENS2_IcEEEE9RateCurveEEPvEEEEEELi1ELb0EEC2B8ue170006ISF_vEEOT_, symObjAddr: 0x8470, symBinAddr: 0x100009710, symSize: 0x30 }
  - { offsetInCU: 0x1AB7B, offset: 0x23055, size: 0x8, addend: 0x0, symName: __ZNSt3__19allocatorINS_11__hash_nodeINS_17__hash_value_typeINS_12basic_stringIcNS_11char_traitsIcEENS0_IcEEEE9RateCurveEEPvEEE9constructB8ue170006INS_4pairIKS7_S8_EEJRSF_RKS8_EEEvPT_DpOT0_, symObjAddr: 0x84A0, symBinAddr: 0x100009740, symSize: 0x30 }
  - { offsetInCU: 0x1ABE2, offset: 0x230BC, size: 0x8, addend: 0x0, symName: __ZNSt3__14pairIKNS_12basic_stringIcNS_11char_traitsIcEENS_9allocatorIcEEEE9RateCurveEC1B8ue170006ILb1ELPv0EEERS7_RKS8_, symObjAddr: 0x84D0, symBinAddr: 0x100009770, symSize: 0x30 }
  - { offsetInCU: 0x1AC37, offset: 0x23111, size: 0x8, addend: 0x0, symName: __ZNSt3__14pairIKNS_12basic_stringIcNS_11char_traitsIcEENS_9allocatorIcEEEE9RateCurveEC2B8ue170006ILb1ELPv0EEERS7_RKS8_, symObjAddr: 0x8500, symBinAddr: 0x1000097A0, symSize: 0x60 }
  - { offsetInCU: 0x1AC8C, offset: 0x23166, size: 0x8, addend: 0x0, symName: __ZNSt3__117__hash_value_typeINS_12basic_stringIcNS_11char_traitsIcEENS_9allocatorIcEEEE9RateCurveE11__get_valueB8ue170006Ev, symObjAddr: 0x8560, symBinAddr: 0x100009800, symSize: 0x20 }
  - { offsetInCU: 0x1ACB0, offset: 0x2318A, size: 0x8, addend: 0x0, symName: __ZNSt3__117__compressed_pairIPNS_11__hash_nodeINS_17__hash_value_typeINS_12basic_stringIcNS_11char_traitsIcEENS_9allocatorIcEEEE9RateCurveEEPvEENS_22__hash_node_destructorINS6_ISC_EEEEE6secondB8ue170006Ev, symObjAddr: 0x85B0, symBinAddr: 0x100009850, symSize: 0x20 }
  - { offsetInCU: 0x1ACD4, offset: 0x231AE, size: 0x8, addend: 0x0, symName: __ZNSt3__122__compressed_pair_elemINS_22__hash_node_destructorINS_9allocatorINS_11__hash_nodeINS_17__hash_value_typeINS_12basic_stringIcNS_11char_traitsIcEENS2_IcEEEE9RateCurveEEPvEEEEEELi1ELb0EE5__getB8ue170006Ev, symObjAddr: 0x85D0, symBinAddr: 0x100009870, symSize: 0x10 }
  - { offsetInCU: 0x1ACF8, offset: 0x231D2, size: 0x8, addend: 0x0, symName: __ZNSt3__117__compressed_pairImNS_22__unordered_map_hasherINS_12basic_stringIcNS_11char_traitsIcEENS_9allocatorIcEEEENS_17__hash_value_typeIS7_9RateCurveEENS_4hashIS7_EENS_8equal_toIS7_EELb1EEEE5firstB8ue170006Ev, symObjAddr: 0x85E0, symBinAddr: 0x100009880, symSize: 0x20 }
  - { offsetInCU: 0x1AD1C, offset: 0x231F6, size: 0x8, addend: 0x0, symName: __ZNSt3__122__compressed_pair_elemImLi0ELb0EE5__getB8ue170006Ev, symObjAddr: 0x8600, symBinAddr: 0x1000098A0, symSize: 0x10 }
  - { offsetInCU: 0x1AD40, offset: 0x2321A, size: 0x8, addend: 0x0, symName: __ZNSt3__117__compressed_pairIfNS_21__unordered_map_equalINS_12basic_stringIcNS_11char_traitsIcEENS_9allocatorIcEEEENS_17__hash_value_typeIS7_9RateCurveEENS_8equal_toIS7_EENS_4hashIS7_EELb1EEEE5firstB8ue170006Ev, symObjAddr: 0x8610, symBinAddr: 0x1000098B0, symSize: 0x20 }
  - { offsetInCU: 0x1AD64, offset: 0x2323E, size: 0x8, addend: 0x0, symName: __ZNSt3__122__compressed_pair_elemIfLi0ELb0EE5__getB8ue170006Ev, symObjAddr: 0x8630, symBinAddr: 0x1000098D0, symSize: 0x10 }
  - { offsetInCU: 0x1AD87, offset: 0x23261, size: 0x8, addend: 0x0, symName: __ZNSt3__112__hash_tableINS_17__hash_value_typeINS_12basic_stringIcNS_11char_traitsIcEENS_9allocatorIcEEEE9RateCurveEENS_22__unordered_map_hasherIS7_S9_NS_4hashIS7_EENS_8equal_toIS7_EELb1EEENS_21__unordered_map_equalIS7_S9_SE_SC_Lb1EEENS5_IS9_EEE8__rehashILb1EEEvm, symObjAddr: 0x8640, symBinAddr: 0x1000098E0, symSize: 0x230 }
  - { offsetInCU: 0x1ADD5, offset: 0x232AF, size: 0x8, addend: 0x0, symName: __ZNSt3__112__hash_tableINS_17__hash_value_typeINS_12basic_stringIcNS_11char_traitsIcEENS_9allocatorIcEEEE9RateCurveEENS_22__unordered_map_hasherIS7_S9_NS_4hashIS7_EENS_8equal_toIS7_EELb1EEENS_21__unordered_map_equalIS7_S9_SE_SC_Lb1EEENS5_IS9_EEE11__do_rehashILb1EEEvm, symObjAddr: 0x8870, symBinAddr: 0x100009B10, symSize: 0x250 }
  - { offsetInCU: 0x1AEBB, offset: 0x23395, size: 0x8, addend: 0x0, symName: __ZNSt3__110unique_ptrIA_PNS_16__hash_node_baseIPNS_11__hash_nodeINS_17__hash_value_typeINS_12basic_stringIcNS_11char_traitsIcEENS_9allocatorIcEEEE9RateCurveEEPvEEEENS_25__bucket_list_deallocatorINS7_ISG_EEEEE11get_deleterB8ue170006Ev, symObjAddr: 0x8B20, symBinAddr: 0x100009DC0, symSize: 0x20 }
  - { offsetInCU: 0x1AEDF, offset: 0x233B9, size: 0x8, addend: 0x0, symName: __ZNSt3__125__bucket_list_deallocatorINS_9allocatorIPNS_16__hash_node_baseIPNS_11__hash_nodeINS_17__hash_value_typeINS_12basic_stringIcNS_11char_traitsIcEENS1_IcEEEE9RateCurveEEPvEEEEEEE7__allocB8ue170006Ev, symObjAddr: 0x8B40, symBinAddr: 0x100009DE0, symSize: 0x20 }
  - { offsetInCU: 0x1AF03, offset: 0x233DD, size: 0x8, addend: 0x0, symName: __ZNSt3__110unique_ptrIA_PNS_16__hash_node_baseIPNS_11__hash_nodeINS_17__hash_value_typeINS_12basic_stringIcNS_11char_traitsIcEENS_9allocatorIcEEEE9RateCurveEEPvEEEENS_25__bucket_list_deallocatorINS7_ISG_EEEEE5resetB8ue170006IPSG_EENS_9enable_ifIXsr28_CheckArrayPointerConversionIT_EE5valueEvE4typeESP_, symObjAddr: 0x8B60, symBinAddr: 0x100009E00, symSize: 0x70 }
  - { offsetInCU: 0x1AF4E, offset: 0x23428, size: 0x8, addend: 0x0, symName: __ZNSt3__116allocator_traitsINS_9allocatorIPNS_16__hash_node_baseIPNS_11__hash_nodeINS_17__hash_value_typeINS_12basic_stringIcNS_11char_traitsIcEENS1_IcEEEE9RateCurveEEPvEEEEEEE8allocateB8ue170006ERSH_m, symObjAddr: 0x8BD0, symBinAddr: 0x100009E70, symSize: 0x30 }
  - { offsetInCU: 0x1AF80, offset: 0x2345A, size: 0x8, addend: 0x0, symName: __ZNSt3__125__bucket_list_deallocatorINS_9allocatorIPNS_16__hash_node_baseIPNS_11__hash_nodeINS_17__hash_value_typeINS_12basic_stringIcNS_11char_traitsIcEENS1_IcEEEE9RateCurveEEPvEEEEEEE4sizeB8ue170006Ev, symObjAddr: 0x8C00, symBinAddr: 0x100009EA0, symSize: 0x20 }
  - { offsetInCU: 0x1AFA4, offset: 0x2347E, size: 0x8, addend: 0x0, symName: __ZNSt3__117__compressed_pairIPPNS_16__hash_node_baseIPNS_11__hash_nodeINS_17__hash_value_typeINS_12basic_stringIcNS_11char_traitsIcEENS_9allocatorIcEEEE9RateCurveEEPvEEEENS_25__bucket_list_deallocatorINS7_ISG_EEEEE6secondB8ue170006Ev, symObjAddr: 0x8C20, symBinAddr: 0x100009EC0, symSize: 0x20 }
  - { offsetInCU: 0x1AFC8, offset: 0x234A2, size: 0x8, addend: 0x0, symName: __ZNSt3__122__compressed_pair_elemINS_25__bucket_list_deallocatorINS_9allocatorIPNS_16__hash_node_baseIPNS_11__hash_nodeINS_17__hash_value_typeINS_12basic_stringIcNS_11char_traitsIcEENS2_IcEEEE9RateCurveEEPvEEEEEEEELi1ELb0EE5__getB8ue170006Ev, symObjAddr: 0x8C40, symBinAddr: 0x100009EE0, symSize: 0x10 }
  - { offsetInCU: 0x1AFEC, offset: 0x234C6, size: 0x8, addend: 0x0, symName: __ZNSt3__117__compressed_pairImNS_9allocatorIPNS_16__hash_node_baseIPNS_11__hash_nodeINS_17__hash_value_typeINS_12basic_stringIcNS_11char_traitsIcEENS1_IcEEEE9RateCurveEEPvEEEEEEE6secondB8ue170006Ev, symObjAddr: 0x8C50, symBinAddr: 0x100009EF0, symSize: 0x20 }
  - { offsetInCU: 0x1B010, offset: 0x234EA, size: 0x8, addend: 0x0, symName: __ZNSt3__122__compressed_pair_elemINS_9allocatorIPNS_16__hash_node_baseIPNS_11__hash_nodeINS_17__hash_value_typeINS_12basic_stringIcNS_11char_traitsIcEENS1_IcEEEE9RateCurveEEPvEEEEEELi1ELb1EE5__getB8ue170006Ev, symObjAddr: 0x8C70, symBinAddr: 0x100009F10, symSize: 0x10 }
  - { offsetInCU: 0x1B034, offset: 0x2350E, size: 0x8, addend: 0x0, symName: __ZNSt3__117__compressed_pairIPPNS_16__hash_node_baseIPNS_11__hash_nodeINS_17__hash_value_typeINS_12basic_stringIcNS_11char_traitsIcEENS_9allocatorIcEEEE9RateCurveEEPvEEEENS_25__bucket_list_deallocatorINS7_ISG_EEEEE5firstB8ue170006Ev, symObjAddr: 0x8C80, symBinAddr: 0x100009F20, symSize: 0x20 }
  - { offsetInCU: 0x1B058, offset: 0x23532, size: 0x8, addend: 0x0, symName: __ZNSt3__125__bucket_list_deallocatorINS_9allocatorIPNS_16__hash_node_baseIPNS_11__hash_nodeINS_17__hash_value_typeINS_12basic_stringIcNS_11char_traitsIcEENS1_IcEEEE9RateCurveEEPvEEEEEEEclB8ue170006EPSG_, symObjAddr: 0x8CA0, symBinAddr: 0x100009F40, symSize: 0x50 }
  - { offsetInCU: 0x1B08B, offset: 0x23565, size: 0x8, addend: 0x0, symName: __ZNSt3__122__compressed_pair_elemIPPNS_16__hash_node_baseIPNS_11__hash_nodeINS_17__hash_value_typeINS_12basic_stringIcNS_11char_traitsIcEENS_9allocatorIcEEEE9RateCurveEEPvEEEELi0ELb0EE5__getB8ue170006Ev, symObjAddr: 0x8CF0, symBinAddr: 0x100009F90, symSize: 0x10 }
  - { offsetInCU: 0x1B0AF, offset: 0x23589, size: 0x8, addend: 0x0, symName: __ZNSt3__116allocator_traitsINS_9allocatorIPNS_16__hash_node_baseIPNS_11__hash_nodeINS_17__hash_value_typeINS_12basic_stringIcNS_11char_traitsIcEENS1_IcEEEE9RateCurveEEPvEEEEEEE10deallocateB8ue170006ERSH_PSG_m, symObjAddr: 0x8D00, symBinAddr: 0x100009FA0, symSize: 0x30 }
  - { offsetInCU: 0x1B0F0, offset: 0x235CA, size: 0x8, addend: 0x0, symName: __ZNSt3__19allocatorIPNS_16__hash_node_baseIPNS_11__hash_nodeINS_17__hash_value_typeINS_12basic_stringIcNS_11char_traitsIcEENS0_IcEEEE9RateCurveEEPvEEEEE10deallocateB8ue170006EPSF_m, symObjAddr: 0x8D30, symBinAddr: 0x100009FD0, symSize: 0x40 }
  - { offsetInCU: 0x1B130, offset: 0x2360A, size: 0x8, addend: 0x0, symName: __ZNSt3__19allocatorIPNS_16__hash_node_baseIPNS_11__hash_nodeINS_17__hash_value_typeINS_12basic_stringIcNS_11char_traitsIcEENS0_IcEEEE9RateCurveEEPvEEEEE8allocateB8ue170006Em, symObjAddr: 0x8D70, symBinAddr: 0x10000A010, symSize: 0x50 }
  - { offsetInCU: 0x1B16C, offset: 0x23646, size: 0x8, addend: 0x0, symName: __ZNSt3__116allocator_traitsINS_9allocatorIPNS_16__hash_node_baseIPNS_11__hash_nodeINS_17__hash_value_typeINS_12basic_stringIcNS_11char_traitsIcEENS1_IcEEEE9RateCurveEEPvEEEEEEE8max_sizeB8ue170006ISH_vEEmRKSH_, symObjAddr: 0x8DC0, symBinAddr: 0x10000A060, symSize: 0x20 }
  - { offsetInCU: 0x1B199, offset: 0x23673, size: 0x8, addend: 0x0, symName: __ZNKSt3__19allocatorIPNS_16__hash_node_baseIPNS_11__hash_nodeINS_17__hash_value_typeINS_12basic_stringIcNS_11char_traitsIcEENS0_IcEEEE9RateCurveEEPvEEEEE8max_sizeB8ue170006Ev, symObjAddr: 0x8DE0, symBinAddr: 0x10000A080, symSize: 0x20 }
  - { offsetInCU: 0x1B1BD, offset: 0x23697, size: 0x8, addend: 0x0, symName: __ZNSt3__117__compressed_pairImNS_9allocatorIPNS_16__hash_node_baseIPNS_11__hash_nodeINS_17__hash_value_typeINS_12basic_stringIcNS_11char_traitsIcEENS1_IcEEEE9RateCurveEEPvEEEEEEE5firstB8ue170006Ev, symObjAddr: 0x8E00, symBinAddr: 0x10000A0A0, symSize: 0x20 }
  - { offsetInCU: 0x1B1E1, offset: 0x236BB, size: 0x8, addend: 0x0, symName: __ZNSt3__122__compressed_pair_elemINS_16__hash_node_baseIPNS_11__hash_nodeINS_17__hash_value_typeINS_12basic_stringIcNS_11char_traitsIcEENS_9allocatorIcEEEE9RateCurveEEPvEEEELi0ELb0EE5__getB8ue170006Ev, symObjAddr: 0x8E40, symBinAddr: 0x10000A0E0, symSize: 0x10 }
  - { offsetInCU: 0x1B205, offset: 0x236DF, size: 0x8, addend: 0x0, symName: __ZNKSt3__117__compressed_pairIPNS_11__hash_nodeINS_17__hash_value_typeINS_12basic_stringIcNS_11char_traitsIcEENS_9allocatorIcEEEE9RateCurveEEPvEENS_22__hash_node_destructorINS6_ISC_EEEEE5firstB8ue170006Ev, symObjAddr: 0x8E50, symBinAddr: 0x10000A0F0, symSize: 0x20 }
  - { offsetInCU: 0x1B229, offset: 0x23703, size: 0x8, addend: 0x0, symName: __ZNKSt3__122__compressed_pair_elemIPNS_11__hash_nodeINS_17__hash_value_typeINS_12basic_stringIcNS_11char_traitsIcEENS_9allocatorIcEEEE9RateCurveEEPvEELi0ELb0EE5__getB8ue170006Ev, symObjAddr: 0x8E70, symBinAddr: 0x10000A110, symSize: 0x10 }
  - { offsetInCU: 0x1B24D, offset: 0x23727, size: 0x8, addend: 0x0, symName: __ZNSt3__117__compressed_pairIPNS_11__hash_nodeINS_17__hash_value_typeINS_12basic_stringIcNS_11char_traitsIcEENS_9allocatorIcEEEE9RateCurveEEPvEENS_22__hash_node_destructorINS6_ISC_EEEEE5firstB8ue170006Ev, symObjAddr: 0x8E80, symBinAddr: 0x10000A120, symSize: 0x20 }
  - { offsetInCU: 0x1B271, offset: 0x2374B, size: 0x8, addend: 0x0, symName: __ZNSt3__122__compressed_pair_elemIPNS_11__hash_nodeINS_17__hash_value_typeINS_12basic_stringIcNS_11char_traitsIcEENS_9allocatorIcEEEE9RateCurveEEPvEELi0ELb0EE5__getB8ue170006Ev, symObjAddr: 0x8EA0, symBinAddr: 0x10000A140, symSize: 0x10 }
  - { offsetInCU: 0x1B295, offset: 0x2376F, size: 0x8, addend: 0x0, symName: __ZNSt3__110unique_ptrINS_11__hash_nodeINS_17__hash_value_typeINS_12basic_stringIcNS_11char_traitsIcEENS_9allocatorIcEEEE9RateCurveEEPvEENS_22__hash_node_destructorINS6_ISC_EEEEED2B8ue170006Ev, symObjAddr: 0x8EB0, symBinAddr: 0x10000A150, symSize: 0x20 }
  - { offsetInCU: 0x1B2BD, offset: 0x23797, size: 0x8, addend: 0x0, symName: __ZNSt3__110unique_ptrINS_11__hash_nodeINS_17__hash_value_typeINS_12basic_stringIcNS_11char_traitsIcEENS_9allocatorIcEEEE9RateCurveEEPvEENS_22__hash_node_destructorINS6_ISC_EEEEE5resetB8ue170006EPSC_, symObjAddr: 0x8ED0, symBinAddr: 0x10000A170, symSize: 0x70 }
  - { offsetInCU: 0x1B2FF, offset: 0x237D9, size: 0x8, addend: 0x0, symName: __ZNSt3__122__hash_node_destructorINS_9allocatorINS_11__hash_nodeINS_17__hash_value_typeINS_12basic_stringIcNS_11char_traitsIcEENS1_IcEEEE9RateCurveEEPvEEEEEclB8ue170006EPSC_, symObjAddr: 0x8F40, symBinAddr: 0x10000A1E0, symSize: 0x90 }
  - { offsetInCU: 0x1B332, offset: 0x2380C, size: 0x8, addend: 0x0, symName: __ZNSt3__116allocator_traitsINS_9allocatorINS_11__hash_nodeINS_17__hash_value_typeINS_12basic_stringIcNS_11char_traitsIcEENS1_IcEEEE9RateCurveEEPvEEEEE7destroyB8ue170006INS_4pairIKS8_S9_EEvvEEvRSD_PT_, symObjAddr: 0x8FD0, symBinAddr: 0x10000A270, symSize: 0x20 }
  - { offsetInCU: 0x1B36C, offset: 0x23846, size: 0x8, addend: 0x0, symName: __ZNSt3__116allocator_traitsINS_9allocatorINS_11__hash_nodeINS_17__hash_value_typeINS_12basic_stringIcNS_11char_traitsIcEENS1_IcEEEE9RateCurveEEPvEEEEE10deallocateB8ue170006ERSD_PSC_m, symObjAddr: 0x8FF0, symBinAddr: 0x10000A290, symSize: 0x30 }
  - { offsetInCU: 0x1B3AD, offset: 0x23887, size: 0x8, addend: 0x0, symName: __ZNSt3__19allocatorINS_11__hash_nodeINS_17__hash_value_typeINS_12basic_stringIcNS_11char_traitsIcEENS0_IcEEEE9RateCurveEEPvEEE10deallocateB8ue170006EPSB_m, symObjAddr: 0x9020, symBinAddr: 0x10000A2C0, symSize: 0x40 }
  - { offsetInCU: 0x1B3ED, offset: 0x238C7, size: 0x8, addend: 0x0, symName: __ZNSt3__115__hash_iteratorIPNS_11__hash_nodeINS_17__hash_value_typeINS_12basic_stringIcNS_11char_traitsIcEENS_9allocatorIcEEEE9RateCurveEEPvEEEC2B8ue170006EPNS_16__hash_node_baseISD_EE, symObjAddr: 0x9060, symBinAddr: 0x10000A300, symSize: 0x20 }
  - { offsetInCU: 0x1B424, offset: 0x238FE, size: 0x8, addend: 0x0, symName: __ZNSt3__14pairINS_15__hash_iteratorIPNS_11__hash_nodeINS_17__hash_value_typeINS_12basic_stringIcNS_11char_traitsIcEENS_9allocatorIcEEEE9RateCurveEEPvEEEEbEC2B8ue170006ISF_RbLSC_0EEEOT_OT0_, symObjAddr: 0x9080, symBinAddr: 0x10000A320, symSize: 0x30 }
  - { offsetInCU: 0x1B481, offset: 0x2395B, size: 0x8, addend: 0x0, symName: __ZNSt3__14pairINS_19__hash_map_iteratorINS_15__hash_iteratorIPNS_11__hash_nodeINS_17__hash_value_typeINS_12basic_stringIcNS_11char_traitsIcEENS_9allocatorIcEEEE9RateCurveEEPvEEEEEEbEC2B8ue170006ISG_bLSD_0EEEONS0_IT_T0_EE, symObjAddr: 0x90B0, symBinAddr: 0x10000A350, symSize: 0x50 }
  - { offsetInCU: 0x1B4D1, offset: 0x239AB, size: 0x8, addend: 0x0, symName: __ZNSt3__119__hash_map_iteratorINS_15__hash_iteratorIPNS_11__hash_nodeINS_17__hash_value_typeINS_12basic_stringIcNS_11char_traitsIcEENS_9allocatorIcEEEE9RateCurveEEPvEEEEEC1B8ue170006ESF_, symObjAddr: 0x9100, symBinAddr: 0x10000A3A0, symSize: 0x30 }
  - { offsetInCU: 0x1B508, offset: 0x239E2, size: 0x8, addend: 0x0, symName: __ZNSt3__119__hash_map_iteratorINS_15__hash_iteratorIPNS_11__hash_nodeINS_17__hash_value_typeINS_12basic_stringIcNS_11char_traitsIcEENS_9allocatorIcEEEE9RateCurveEEPvEEEEEC2B8ue170006ESF_, symObjAddr: 0x9130, symBinAddr: 0x10000A3D0, symSize: 0x19 }
  - { offsetInCU: 0x8760, offset: 0x2C3F4, size: 0x8, addend: 0x0, symName: __ZNSt3__1eqB8ue170006IcNS_11char_traitsIcEENS_9allocatorIcEEEEbRKNS_12basic_stringIT_T0_T1_EEPKS6_, symObjAddr: 0xF0, symBinAddr: 0x10000A4E0, symSize: 0x90 }
  - { offsetInCU: 0x88FA, offset: 0x2C58E, size: 0x8, addend: 0x0, symName: __Z3powB8ue170006IdiENSt3__19enable_ifIXaasr3std13is_arithmeticIT_EE5valuesr3std13is_arithmeticIT0_EE5valueENS0_9__promoteIS2_S3_vEEE4type4typeES2_S3_, symObjAddr: 0x810, symBinAddr: 0x10000AC00, symSize: 0x30 }
  - { offsetInCU: 0xB04B, offset: 0x2ECDF, size: 0x8, addend: 0x0, symName: __ZN6Pricer5PriceERK6MarketP5Trade, symObjAddr: 0x0, symBinAddr: 0x10000A3F0, symSize: 0xF0 }
  - { offsetInCU: 0xB0D7, offset: 0x2ED6B, size: 0x8, addend: 0x0, symName: __ZN5Trade7getTypeEv, symObjAddr: 0x180, symBinAddr: 0x10000A570, symSize: 0x30 }
  - { offsetInCU: 0xB209, offset: 0x2EE9D, size: 0x8, addend: 0x0, symName: __ZN18BinomialTreePricer9PriceTreeERK6MarketRK11TreeProduct, symObjAddr: 0x1B0, symBinAddr: 0x10000A5A0, symSize: 0x260 }
  - { offsetInCU: 0xB319, offset: 0x2EFAD, size: 0x8, addend: 0x0, symName: __ZNSt3__16vectorIdNS_9allocatorIdEEEixB8ue170006Em, symObjAddr: 0x410, symBinAddr: 0x10000A800, symSize: 0x20 }
  - { offsetInCU: 0xB43F, offset: 0x2F0D3, size: 0x8, addend: 0x0, symName: __ZN21CRRBinomialTreePricer10ModelSetupEdddd, symObjAddr: 0x430, symBinAddr: 0x10000A820, symSize: 0x160 }
  - { offsetInCU: 0xB5A9, offset: 0x2F23D, size: 0x8, addend: 0x0, symName: __ZN22JRRNBinomialTreePricer10ModelSetupEdddd, symObjAddr: 0x590, symBinAddr: 0x10000A980, symSize: 0x120 }
  - { offsetInCU: 0xB608, offset: 0x2F29C, size: 0x8, addend: 0x0, symName: __ZN6Pricer9PriceTreeERK6MarketRK11TreeProduct, symObjAddr: 0x6B0, symBinAddr: 0x10000AAA0, symSize: 0x20 }
  - { offsetInCU: 0xB648, offset: 0x2F2DC, size: 0x8, addend: 0x0, symName: __ZNK21CRRBinomialTreePricer7GetSpotEii, symObjAddr: 0x6D0, symBinAddr: 0x10000AAC0, symSize: 0x50 }
  - { offsetInCU: 0xB688, offset: 0x2F31C, size: 0x8, addend: 0x0, symName: __ZNK21CRRBinomialTreePricer9GetProbUpEv, symObjAddr: 0x720, symBinAddr: 0x10000AB10, symSize: 0x20 }
  - { offsetInCU: 0xB6AC, offset: 0x2F340, size: 0x8, addend: 0x0, symName: __ZNK21CRRBinomialTreePricer11GetProbDownEv, symObjAddr: 0x740, symBinAddr: 0x10000AB30, symSize: 0x20 }
  - { offsetInCU: 0xB6D0, offset: 0x2F364, size: 0x8, addend: 0x0, symName: __ZNK22JRRNBinomialTreePricer7GetSpotEii, symObjAddr: 0x760, symBinAddr: 0x10000AB50, symSize: 0x70 }
  - { offsetInCU: 0xB710, offset: 0x2F3A4, size: 0x8, addend: 0x0, symName: __ZNK22JRRNBinomialTreePricer9GetProbUpEv, symObjAddr: 0x7D0, symBinAddr: 0x10000ABC0, symSize: 0x20 }
  - { offsetInCU: 0xB734, offset: 0x2F3C8, size: 0x8, addend: 0x0, symName: __ZNK22JRRNBinomialTreePricer11GetProbDownEv, symObjAddr: 0x7F0, symBinAddr: 0x10000ABE0, symSize: 0x20 }
  - { offsetInCU: 0x1536B, offset: 0x4477A, size: 0x8, addend: 0x0, symName: __ZNSt3__17getlineB8ue170006IcNS_11char_traitsIcEENS_9allocatorIcEEEERNS_13basic_istreamIT_T0_EES9_RNS_12basic_stringIS6_S7_T1_EE, symObjAddr: 0x760, symBinAddr: 0x10000B390, symSize: 0x50 }
  - { offsetInCU: 0x153CE, offset: 0x447DD, size: 0x8, addend: 0x0, symName: __ZNSt3__1neB8ue170006IPP5TradeEEbRKNS_11__wrap_iterIT_EES8_, symObjAddr: 0x1160, symBinAddr: 0x10000BD90, symSize: 0x30 }
  - { offsetInCU: 0x15593, offset: 0x449A2, size: 0x8, addend: 0x0, symName: __ZNSt3__1eqB8ue170006IPP5TradeEEbRKNS_11__wrap_iterIT_EES8_, symObjAddr: 0x4AC0, symBinAddr: 0x10000DA60, symSize: 0x40 }
  - { offsetInCU: 0x155D6, offset: 0x449E5, size: 0x8, addend: 0x0, symName: __ZNSt3__13maxB8ue170006IdEERKT_S3_S3_, symObjAddr: 0x4E80, symBinAddr: 0x10000DE20, symSize: 0x30 }
  - { offsetInCU: 0x15619, offset: 0x44A28, size: 0x8, addend: 0x0, symName: __ZNSt3__13maxB8ue170006IdNS_6__lessIvvEEEERKT_S5_S5_T0_, symObjAddr: 0x4EB0, symBinAddr: 0x10000DE50, symSize: 0x50 }
  - { offsetInCU: 0x15733, offset: 0x44B42, size: 0x8, addend: 0x0, symName: __ZNSt3__17launderB8ue170006INS_4pairIKNS_12basic_stringIcNS_11char_traitsIcEENS_9allocatorIcEEEEdEEEEPT_SB_, symObjAddr: 0x5340, symBinAddr: 0x10000E2E0, symSize: 0x20 }
  - { offsetInCU: 0x1576A, offset: 0x44B79, size: 0x8, addend: 0x0, symName: __ZNSt3__19__launderB8ue170006INS_4pairIKNS_12basic_stringIcNS_11char_traitsIcEENS_9allocatorIcEEEEdEEEEPT_SB_, symObjAddr: 0x5360, symBinAddr: 0x10000E300, symSize: 0x10 }
  - { offsetInCU: 0x1582E, offset: 0x44C3D, size: 0x8, addend: 0x0, symName: __ZNSt3__17launderB8ue170006INS_4pairIKNS_12basic_stringIcNS_11char_traitsIcEENS_9allocatorIcEEEE8VolCurveEEEEPT_SC_, symObjAddr: 0x63A0, symBinAddr: 0x10000E9A0, symSize: 0x20 }
  - { offsetInCU: 0x15865, offset: 0x44C74, size: 0x8, addend: 0x0, symName: __ZNSt3__19__launderB8ue170006INS_4pairIKNS_12basic_stringIcNS_11char_traitsIcEENS_9allocatorIcEEEE8VolCurveEEEEPT_SC_, symObjAddr: 0x63C0, symBinAddr: 0x10000E9C0, symSize: 0x10 }
  - { offsetInCU: 0x1589C, offset: 0x44CAB, size: 0x8, addend: 0x0, symName: __ZNSt3__17getlineB8ue170006IcNS_11char_traitsIcEENS_9allocatorIcEEEERNS_13basic_istreamIT_T0_EES9_RNS_12basic_stringIS6_S7_T1_EES6_, symObjAddr: 0x6A40, symBinAddr: 0x10000EE50, symSize: 0x220 }
  - { offsetInCU: 0x15B47, offset: 0x44F56, size: 0x8, addend: 0x0, symName: __ZNSt3__112__to_addressB8ue170006IP5TradeEEPT_S4_, symObjAddr: 0x76F0, symBinAddr: 0x10000F8C0, symSize: 0x10 }
  - { offsetInCU: 0x15B7C, offset: 0x44F8B, size: 0x8, addend: 0x0, symName: __ZNSt3__119__allocate_at_leastB8ue170006INS_9allocatorIP5TradeEEEENS_19__allocation_resultINS_16allocator_traitsIT_E7pointerEEERS7_m, symObjAddr: 0x7F10, symBinAddr: 0x1000100E0, symSize: 0x40 }
  - { offsetInCU: 0x15BBF, offset: 0x44FCE, size: 0x8, addend: 0x0, symName: __ZNSt3__142__uninitialized_allocator_move_if_noexceptB8ue170006INS_9allocatorIP5TradeEENS_16reverse_iteratorIPS3_EES7_S3_vEET1_RT_T0_SB_S8_, symObjAddr: 0x80A0, symBinAddr: 0x100010270, symSize: 0x70 }
  - { offsetInCU: 0x15C3C, offset: 0x4504B, size: 0x8, addend: 0x0, symName: __ZNSt3__14swapB8ue170006IPP5TradeEENS_9enable_ifIXaasr21is_move_constructibleIT_EE5valuesr18is_move_assignableIS5_EE5valueEvE4typeERS5_S8_, symObjAddr: 0x8160, symBinAddr: 0x100010330, symSize: 0x40 }
  - { offsetInCU: 0x15C8D, offset: 0x4509C, size: 0x8, addend: 0x0, symName: __ZNSt3__14moveB8ue170006INS_16reverse_iteratorIPP5TradeEES5_EET0_T_S7_S6_, symObjAddr: 0x8250, symBinAddr: 0x100010420, symSize: 0x80 }
  - { offsetInCU: 0x15CE7, offset: 0x450F6, size: 0x8, addend: 0x0, symName: __ZNSt3__16__moveB8ue170006INS_17_ClassicAlgPolicyENS_16reverse_iteratorIPP5TradeEES6_S6_EENS_4pairIT0_T2_EES8_T1_S9_, symObjAddr: 0x82D0, symBinAddr: 0x1000104A0, symSize: 0x90 }
  - { offsetInCU: 0x15D53, offset: 0x45162, size: 0x8, addend: 0x0, symName: __ZNSt3__123__dispatch_copy_or_moveB8ue170006INS_17_ClassicAlgPolicyENS_11__move_loopIS1_EENS_14__move_trivialENS_16reverse_iteratorIPP5TradeEES9_S9_EENS_4pairIT2_T4_EESB_T3_SC_, symObjAddr: 0x8360, symBinAddr: 0x100010530, symSize: 0x90 }
  - { offsetInCU: 0x15DD1, offset: 0x451E0, size: 0x8, addend: 0x0, symName: __ZNSt3__121__unwrap_and_dispatchB8ue170006INS_10__overloadINS_11__move_loopINS_17_ClassicAlgPolicyEEENS_14__move_trivialEEENS_16reverse_iteratorIPP5TradeEESB_SB_Li0EEENS_4pairIT0_T2_EESD_T1_SE_, symObjAddr: 0x83F0, symBinAddr: 0x1000105C0, symSize: 0x210 }
  - { offsetInCU: 0x15E61, offset: 0x45270, size: 0x8, addend: 0x0, symName: __ZNSt3__114__unwrap_rangeB8ue170006INS_16reverse_iteratorIPP5TradeEES5_EENS_4pairIT0_S7_EET_S9_, symObjAddr: 0x8600, symBinAddr: 0x1000107D0, symSize: 0x90 }
  - { offsetInCU: 0x15F82, offset: 0x45391, size: 0x8, addend: 0x0, symName: __ZNSt3__113__unwrap_iterB8ue170006INS_16reverse_iteratorIPP5TradeEENS_18__unwrap_iter_implIS5_Lb0EEELi0EEEDTclsrT0_8__unwrapclsr3stdE7declvalIT_EEEES9_, symObjAddr: 0x8730, symBinAddr: 0x100010900, symSize: 0x40 }
  - { offsetInCU: 0x15FC7, offset: 0x453D6, size: 0x8, addend: 0x0, symName: __ZNSt3__19make_pairB8ue170006INS_16reverse_iteratorIPP5TradeEES5_EENS_4pairINS_18__unwrap_ref_decayIT_E4typeENS7_IT0_E4typeEEEOS8_OSB_, symObjAddr: 0x8770, symBinAddr: 0x100010940, symSize: 0x30 }
  - { offsetInCU: 0x16016, offset: 0x45425, size: 0x8, addend: 0x0, symName: __ZNSt3__114__rewrap_rangeB8ue170006INS_16reverse_iteratorIPP5TradeEES5_EET_S6_T0_, symObjAddr: 0x87A0, symBinAddr: 0x100010970, symSize: 0x60 }
  - { offsetInCU: 0x16062, offset: 0x45471, size: 0x8, addend: 0x0, symName: __ZNSt3__113__rewrap_iterB8ue170006INS_16reverse_iteratorIPP5TradeEES5_NS_18__unwrap_iter_implIS5_Lb0EEEEET_S8_T0_, symObjAddr: 0x8800, symBinAddr: 0x1000109D0, symSize: 0x70 }
  - { offsetInCU: 0x160B7, offset: 0x454C6, size: 0x8, addend: 0x0, symName: __ZNSt3__1neB8ue170006IPP5TradeS3_EEbRKNS_16reverse_iteratorIT_EERKNS4_IT0_EE, symObjAddr: 0x8870, symBinAddr: 0x100010A40, symSize: 0x40 }
  - { offsetInCU: 0x17945, offset: 0x46D54, size: 0x8, addend: 0x0, symName: __ZNSt3__16vectorIP5TradeNS_9allocatorIS2_EEE26__swap_out_circular_bufferERNS_14__split_bufferIS2_RS4_EE, symObjAddr: 0x7BC0, symBinAddr: 0x10000FD90, symSize: 0x120 }
  - { offsetInCU: 0x19771, offset: 0x48B80, size: 0x8, addend: 0x0, symName: __Z8norm_cdfd, symObjAddr: 0x0, symBinAddr: 0x10000AC30, symSize: 0x50 }
  - { offsetInCU: 0x1979D, offset: 0x48BAC, size: 0x8, addend: 0x0, symName: __Z17BlackScholesPriceddddd10OptionType, symObjAddr: 0x50, symBinAddr: 0x10000AC80, symSize: 0x250 }
  - { offsetInCU: 0x19831, offset: 0x48C40, size: 0x8, addend: 0x0, symName: __ZN6PAYOFF13VanillaOptionE10OptionTypedd, symObjAddr: 0x2A0, symBinAddr: 0x10000AED0, symSize: 0x150 }
  - { offsetInCU: 0x19879, offset: 0x48C88, size: 0x8, addend: 0x0, symName: __ZN6PAYOFF10CallSpreadEddd, symObjAddr: 0x3F0, symBinAddr: 0x10000B020, symSize: 0x80 }
  - { offsetInCU: 0x198C3, offset: 0x48CD2, size: 0x8, addend: 0x0, symName: __Z12readFromFileRKNSt3__112basic_stringIcNS_11char_traitsIcEENS_9allocatorIcEEEERS5_, symObjAddr: 0x470, symBinAddr: 0x10000B0A0, symSize: 0x170 }
  - { offsetInCU: 0x1991A, offset: 0x48D29, size: 0x8, addend: 0x0, symName: __ZNSt3__112basic_stringIcNS_11char_traitsIcEENS_9allocatorIcEEEC1B8ue170006Ev, symObjAddr: 0x5E0, symBinAddr: 0x10000B210, symSize: 0x20 }
  - { offsetInCU: 0x19A54, offset: 0x48E63, size: 0x8, addend: 0x0, symName: __ZNSt3__114basic_ifstreamIcNS_11char_traitsIcEEEC1ERKNS_12basic_stringIcS2_NS_9allocatorIcEEEEj, symObjAddr: 0x600, symBinAddr: 0x10000B230, symSize: 0x160 }
  - { offsetInCU: 0x19A9D, offset: 0x48EAC, size: 0x8, addend: 0x0, symName: __ZNKSt3__19basic_iosIcNS_11char_traitsIcEEEcvbB8ue170006Ev, symObjAddr: 0x7B0, symBinAddr: 0x10000B3E0, symSize: 0x30 }
  - { offsetInCU: 0x19AC1, offset: 0x48ED0, size: 0x8, addend: 0x0, symName: __ZNSt3__112basic_stringIcNS_11char_traitsIcEENS_9allocatorIcEEE6appendB8ue170006ERKS5_, symObjAddr: 0x7E0, symBinAddr: 0x10000B410, symSize: 0x50 }
  - { offsetInCU: 0x19AF4, offset: 0x48F03, size: 0x8, addend: 0x0, symName: __ZNSt3__114basic_ifstreamIcNS_11char_traitsIcEEE5closeEv, symObjAddr: 0x830, symBinAddr: 0x10000B460, symSize: 0x50 }
  - { offsetInCU: 0x19B1F, offset: 0x48F2E, size: 0x8, addend: 0x0, symName: __ZNSt3__114basic_ifstreamIcNS_11char_traitsIcEEED1Ev, symObjAddr: 0x880, symBinAddr: 0x10000B4B0, symSize: 0x40 }
  - { offsetInCU: 0x19B4B, offset: 0x48F5A, size: 0x8, addend: 0x0, symName: _main, symObjAddr: 0x8C0, symBinAddr: 0x10000B4F0, symSize: 0x680 }
  - { offsetInCU: 0x19D04, offset: 0x49113, size: 0x8, addend: 0x0, symName: __ZN4DateC1Ev, symObjAddr: 0xF40, symBinAddr: 0x10000BB70, symSize: 0x20 }
  - { offsetInCU: 0x19D2C, offset: 0x4913B, size: 0x8, addend: 0x0, symName: __ZN6MarketC1ERK4Date, symObjAddr: 0xF60, symBinAddr: 0x10000BB90, symSize: 0x30 }
  - { offsetInCU: 0x19D62, offset: 0x49171, size: 0x8, addend: 0x0, symName: __ZNSt3__16vectorIP5TradeNS_9allocatorIS2_EEEC1B8ue170006Ev, symObjAddr: 0xF90, symBinAddr: 0x10000BBC0, symSize: 0x20 }
  - { offsetInCU: 0x19D8A, offset: 0x49199, size: 0x8, addend: 0x0, symName: __ZN4DateC1Eiii, symObjAddr: 0xFB0, symBinAddr: 0x10000BBE0, symSize: 0x30 }
  - { offsetInCU: 0x19E8B, offset: 0x4929A, size: 0x8, addend: 0x0, symName: __ZN4BondC1E4DateS0_dd, symObjAddr: 0xFE0, symBinAddr: 0x10000BC10, symSize: 0x90 }
  - { offsetInCU: 0x19EEE, offset: 0x492FD, size: 0x8, addend: 0x0, symName: __ZNSt3__16vectorIP5TradeNS_9allocatorIS2_EEE9push_backB8ue170006ERKS2_, symObjAddr: 0x1070, symBinAddr: 0x10000BCA0, symSize: 0x60 }
  - { offsetInCU: 0x1A255, offset: 0x49664, size: 0x8, addend: 0x0, symName: __ZN21CRRBinomialTreePricerC1Ei, symObjAddr: 0x10D0, symBinAddr: 0x10000BD00, symSize: 0x30 }
  - { offsetInCU: 0x1A28B, offset: 0x4969A, size: 0x8, addend: 0x0, symName: __ZNSt3__16vectorIP5TradeNS_9allocatorIS2_EEE5beginB8ue170006Ev, symObjAddr: 0x1100, symBinAddr: 0x10000BD30, symSize: 0x30 }
  - { offsetInCU: 0x1A2B1, offset: 0x496C0, size: 0x8, addend: 0x0, symName: __ZNSt3__16vectorIP5TradeNS_9allocatorIS2_EEE3endB8ue170006Ev, symObjAddr: 0x1130, symBinAddr: 0x10000BD60, symSize: 0x30 }
  - { offsetInCU: 0x1A2D7, offset: 0x496E6, size: 0x8, addend: 0x0, symName: __ZNKSt3__111__wrap_iterIPP5TradeEdeB8ue170006Ev, symObjAddr: 0x1190, symBinAddr: 0x10000BDC0, symSize: 0x20 }
  - { offsetInCU: 0x1A2FB, offset: 0x4970A, size: 0x8, addend: 0x0, symName: __ZNSt3__111__wrap_iterIPP5TradeEppB8ue170006Ev, symObjAddr: 0x11B0, symBinAddr: 0x10000BDE0, symSize: 0x20 }
  - { offsetInCU: 0x1A418, offset: 0x49827, size: 0x8, addend: 0x0, symName: __ZN14EuropeanOptionC1E10OptionTypedRK4Date, symObjAddr: 0x11D0, symBinAddr: 0x10000BE00, symSize: 0x40 }
  - { offsetInCU: 0x1A555, offset: 0x49964, size: 0x8, addend: 0x0, symName: __ZN14AmericanOptionC1E10OptionTypedRK4Date, symObjAddr: 0x12C0, symBinAddr: 0x10000BE40, symSize: 0x40 }
  - { offsetInCU: 0x1A5A7, offset: 0x499B6, size: 0x8, addend: 0x0, symName: __ZN14AmericanOptionD1Ev, symObjAddr: 0x1300, symBinAddr: 0x10000BE80, symSize: 0x20 }
  - { offsetInCU: 0x1A5D2, offset: 0x499E1, size: 0x8, addend: 0x0, symName: __ZN21CRRBinomialTreePricerD1Ev, symObjAddr: 0x1320, symBinAddr: 0x10000BEA0, symSize: 0x20 }
  - { offsetInCU: 0x1A5FD, offset: 0x49A0C, size: 0x8, addend: 0x0, symName: __ZN14EuropeanOptionD1Ev, symObjAddr: 0x1340, symBinAddr: 0x10000BEC0, symSize: 0x20 }
  - { offsetInCU: 0x1A628, offset: 0x49A37, size: 0x8, addend: 0x0, symName: __ZNSt3__16vectorIP5TradeNS_9allocatorIS2_EEED1B8ue170006Ev, symObjAddr: 0x1360, symBinAddr: 0x10000BEE0, symSize: 0x20 }
  - { offsetInCU: 0x1A650, offset: 0x49A5F, size: 0x8, addend: 0x0, symName: __ZN6MarketD1Ev, symObjAddr: 0x1380, symBinAddr: 0x10000BF00, symSize: 0x20 }
  - { offsetInCU: 0x1A67B, offset: 0x49A8A, size: 0x8, addend: 0x0, symName: __ZNSt3__114basic_ifstreamIcNS_11char_traitsIcEEED2Ev, symObjAddr: 0x13A0, symBinAddr: 0x10000BF20, symSize: 0x60 }
  - { offsetInCU: 0x1A6B3, offset: 0x49AC2, size: 0x8, addend: 0x0, symName: __ZTv0_n24_NSt3__114basic_ifstreamIcNS_11char_traitsIcEEED1Ev, symObjAddr: 0x1400, symBinAddr: 0x10000BF80, symSize: 0x20 }
  - { offsetInCU: 0x1A6CA, offset: 0x49AD9, size: 0x8, addend: 0x0, symName: __ZN4DateC2Ev, symObjAddr: 0x1420, symBinAddr: 0x10000BFA0, symSize: 0x10 }
  - { offsetInCU: 0x1A6F2, offset: 0x49B01, size: 0x8, addend: 0x0, symName: __ZN6MarketC2ERK4Date, symObjAddr: 0x1430, symBinAddr: 0x10000BFB0, symSize: 0x70 }
  - { offsetInCU: 0x1A728, offset: 0x49B37, size: 0x8, addend: 0x0, symName: __ZNSt3__113unordered_mapINS_12basic_stringIcNS_11char_traitsIcEENS_9allocatorIcEEEE8VolCurveNS_4hashIS6_EENS_8equal_toIS6_EENS4_INS_4pairIKS6_S7_EEEEEC1B8ue170006Ev, symObjAddr: 0x14A0, symBinAddr: 0x10000C020, symSize: 0x20 }
  - { offsetInCU: 0x1A750, offset: 0x49B5F, size: 0x8, addend: 0x0, symName: __ZNSt3__113unordered_mapINS_12basic_stringIcNS_11char_traitsIcEENS_9allocatorIcEEEE9RateCurveNS_4hashIS6_EENS_8equal_toIS6_EENS4_INS_4pairIKS6_S7_EEEEEC1B8ue170006Ev, symObjAddr: 0x14C0, symBinAddr: 0x10000C040, symSize: 0x20 }
  - { offsetInCU: 0x1A778, offset: 0x49B87, size: 0x8, addend: 0x0, symName: __ZNSt3__113unordered_mapINS_12basic_stringIcNS_11char_traitsIcEENS_9allocatorIcEEEEdNS_4hashIS6_EENS_8equal_toIS6_EENS4_INS_4pairIKS6_dEEEEEC1B8ue170006Ev, symObjAddr: 0x14E0, symBinAddr: 0x10000C060, symSize: 0x20 }
  - { offsetInCU: 0x1A7A0, offset: 0x49BAF, size: 0x8, addend: 0x0, symName: __ZNSt3__113unordered_mapINS_12basic_stringIcNS_11char_traitsIcEENS_9allocatorIcEEEE8VolCurveNS_4hashIS6_EENS_8equal_toIS6_EENS4_INS_4pairIKS6_S7_EEEEEC2B8ue170006Ev, symObjAddr: 0x1500, symBinAddr: 0x10000C080, symSize: 0x20 }
  - { offsetInCU: 0x1A7C8, offset: 0x49BD7, size: 0x8, addend: 0x0, symName: __ZNSt3__112__hash_tableINS_17__hash_value_typeINS_12basic_stringIcNS_11char_traitsIcEENS_9allocatorIcEEEE8VolCurveEENS_22__unordered_map_hasherIS7_S9_NS_4hashIS7_EENS_8equal_toIS7_EELb1EEENS_21__unordered_map_equalIS7_S9_SE_SC_Lb1EEENS5_IS9_EEEC1Ev, symObjAddr: 0x1520, symBinAddr: 0x10000C0A0, symSize: 0x20 }
  - { offsetInCU: 0x1A7F3, offset: 0x49C02, size: 0x8, addend: 0x0, symName: __ZNSt3__112__hash_tableINS_17__hash_value_typeINS_12basic_stringIcNS_11char_traitsIcEENS_9allocatorIcEEEE8VolCurveEENS_22__unordered_map_hasherIS7_S9_NS_4hashIS7_EENS_8equal_toIS7_EELb1EEENS_21__unordered_map_equalIS7_S9_SE_SC_Lb1EEENS5_IS9_EEEC2Ev, symObjAddr: 0x1540, symBinAddr: 0x10000C0C0, symSize: 0x80 }
  - { offsetInCU: 0x1A81E, offset: 0x49C2D, size: 0x8, addend: 0x0, symName: __ZNSt3__110unique_ptrIA_PNS_16__hash_node_baseIPNS_11__hash_nodeINS_17__hash_value_typeINS_12basic_stringIcNS_11char_traitsIcEENS_9allocatorIcEEEE8VolCurveEEPvEEEENS_25__bucket_list_deallocatorINS7_ISG_EEEEEC1B8ue170006ILb1EvEEv, symObjAddr: 0x15C0, symBinAddr: 0x10000C140, symSize: 0x20 }
  - { offsetInCU: 0x1A851, offset: 0x49C60, size: 0x8, addend: 0x0, symName: __ZNSt3__117__compressed_pairINS_16__hash_node_baseIPNS_11__hash_nodeINS_17__hash_value_typeINS_12basic_stringIcNS_11char_traitsIcEENS_9allocatorIcEEEE8VolCurveEEPvEEEENS7_ISD_EEEC1B8ue170006ILb1EvEEv, symObjAddr: 0x15E0, symBinAddr: 0x10000C160, symSize: 0x20 }
  - { offsetInCU: 0x1A88E, offset: 0x49C9D, size: 0x8, addend: 0x0, symName: __ZNSt3__117__compressed_pairImNS_22__unordered_map_hasherINS_12basic_stringIcNS_11char_traitsIcEENS_9allocatorIcEEEENS_17__hash_value_typeIS7_8VolCurveEENS_4hashIS7_EENS_8equal_toIS7_EELb1EEEEC1B8ue170006IiNS_18__default_init_tagEEEOT_OT0_, symObjAddr: 0x1610, symBinAddr: 0x10000C180, symSize: 0x30 }
  - { offsetInCU: 0x1A8E9, offset: 0x49CF8, size: 0x8, addend: 0x0, symName: __ZNSt3__117__compressed_pairIfNS_21__unordered_map_equalINS_12basic_stringIcNS_11char_traitsIcEENS_9allocatorIcEEEENS_17__hash_value_typeIS7_8VolCurveEENS_8equal_toIS7_EENS_4hashIS7_EELb1EEEEC1B8ue170006IfNS_18__default_init_tagEEEOT_OT0_, symObjAddr: 0x1640, symBinAddr: 0x10000C1B0, symSize: 0x30 }
  - { offsetInCU: 0x1A93F, offset: 0x49D4E, size: 0x8, addend: 0x0, symName: __ZNSt3__110unique_ptrIA_PNS_16__hash_node_baseIPNS_11__hash_nodeINS_17__hash_value_typeINS_12basic_stringIcNS_11char_traitsIcEENS_9allocatorIcEEEE8VolCurveEEPvEEEENS_25__bucket_list_deallocatorINS7_ISG_EEEEEC2B8ue170006ILb1EvEEv, symObjAddr: 0x1670, symBinAddr: 0x10000C1E0, symSize: 0x30 }
  - { offsetInCU: 0x1A977, offset: 0x49D86, size: 0x8, addend: 0x0, symName: __ZNSt3__117__compressed_pairIPPNS_16__hash_node_baseIPNS_11__hash_nodeINS_17__hash_value_typeINS_12basic_stringIcNS_11char_traitsIcEENS_9allocatorIcEEEE8VolCurveEEPvEEEENS_25__bucket_list_deallocatorINS7_ISG_EEEEEC1B8ue170006INS_16__value_init_tagESN_EEOT_OT0_, symObjAddr: 0x16A0, symBinAddr: 0x10000C210, symSize: 0x30 }
  - { offsetInCU: 0x1A9CD, offset: 0x49DDC, size: 0x8, addend: 0x0, symName: __ZNSt3__117__compressed_pairIPPNS_16__hash_node_baseIPNS_11__hash_nodeINS_17__hash_value_typeINS_12basic_stringIcNS_11char_traitsIcEENS_9allocatorIcEEEE8VolCurveEEPvEEEENS_25__bucket_list_deallocatorINS7_ISG_EEEEEC2B8ue170006INS_16__value_init_tagESN_EEOT_OT0_, symObjAddr: 0x16D0, symBinAddr: 0x10000C240, symSize: 0x40 }
  - { offsetInCU: 0x1AA23, offset: 0x49E32, size: 0x8, addend: 0x0, symName: __ZNSt3__122__compressed_pair_elemIPPNS_16__hash_node_baseIPNS_11__hash_nodeINS_17__hash_value_typeINS_12basic_stringIcNS_11char_traitsIcEENS_9allocatorIcEEEE8VolCurveEEPvEEEELi0ELb0EEC2B8ue170006ENS_16__value_init_tagE, symObjAddr: 0x1710, symBinAddr: 0x10000C280, symSize: 0x20 }
  - { offsetInCU: 0x1AA55, offset: 0x49E64, size: 0x8, addend: 0x0, symName: __ZNSt3__122__compressed_pair_elemINS_25__bucket_list_deallocatorINS_9allocatorIPNS_16__hash_node_baseIPNS_11__hash_nodeINS_17__hash_value_typeINS_12basic_stringIcNS_11char_traitsIcEENS2_IcEEEE8VolCurveEEPvEEEEEEEELi1ELb0EEC2B8ue170006ENS_16__value_init_tagE, symObjAddr: 0x1730, symBinAddr: 0x10000C2A0, symSize: 0x20 }
  - { offsetInCU: 0x1AA87, offset: 0x49E96, size: 0x8, addend: 0x0, symName: __ZNSt3__125__bucket_list_deallocatorINS_9allocatorIPNS_16__hash_node_baseIPNS_11__hash_nodeINS_17__hash_value_typeINS_12basic_stringIcNS_11char_traitsIcEENS1_IcEEEE8VolCurveEEPvEEEEEEEC1B8ue170006Ev, symObjAddr: 0x1750, symBinAddr: 0x10000C2C0, symSize: 0x20 }
  - { offsetInCU: 0x1AAAF, offset: 0x49EBE, size: 0x8, addend: 0x0, symName: __ZNSt3__125__bucket_list_deallocatorINS_9allocatorIPNS_16__hash_node_baseIPNS_11__hash_nodeINS_17__hash_value_typeINS_12basic_stringIcNS_11char_traitsIcEENS1_IcEEEE8VolCurveEEPvEEEEEEEC2B8ue170006Ev, symObjAddr: 0x1770, symBinAddr: 0x10000C2E0, symSize: 0x40 }
  - { offsetInCU: 0x1AAD7, offset: 0x49EE6, size: 0x8, addend: 0x0, symName: __ZNSt3__117__compressed_pairImNS_9allocatorIPNS_16__hash_node_baseIPNS_11__hash_nodeINS_17__hash_value_typeINS_12basic_stringIcNS_11char_traitsIcEENS1_IcEEEE8VolCurveEEPvEEEEEEEC1B8ue170006IiNS_18__default_init_tagEEEOT_OT0_, symObjAddr: 0x17B0, symBinAddr: 0x10000C320, symSize: 0x30 }
  - { offsetInCU: 0x1AB2D, offset: 0x49F3C, size: 0x8, addend: 0x0, symName: __ZNSt3__117__compressed_pairImNS_9allocatorIPNS_16__hash_node_baseIPNS_11__hash_nodeINS_17__hash_value_typeINS_12basic_stringIcNS_11char_traitsIcEENS1_IcEEEE8VolCurveEEPvEEEEEEEC2B8ue170006IiNS_18__default_init_tagEEEOT_OT0_, symObjAddr: 0x17E0, symBinAddr: 0x10000C350, symSize: 0x40 }
  - { offsetInCU: 0x1AB83, offset: 0x49F92, size: 0x8, addend: 0x0, symName: __ZNSt3__122__compressed_pair_elemImLi0ELb0EEC2B8ue170006IivEEOT_, symObjAddr: 0x1820, symBinAddr: 0x10000C390, symSize: 0x20 }
  - { offsetInCU: 0x1ABC3, offset: 0x49FD2, size: 0x8, addend: 0x0, symName: __ZNSt3__122__compressed_pair_elemINS_9allocatorIPNS_16__hash_node_baseIPNS_11__hash_nodeINS_17__hash_value_typeINS_12basic_stringIcNS_11char_traitsIcEENS1_IcEEEE8VolCurveEEPvEEEEEELi1ELb1EEC2B8ue170006ENS_18__default_init_tagE, symObjAddr: 0x1840, symBinAddr: 0x10000C3B0, symSize: 0x20 }
  - { offsetInCU: 0x1ABF5, offset: 0x4A004, size: 0x8, addend: 0x0, symName: __ZNSt3__19allocatorIPNS_16__hash_node_baseIPNS_11__hash_nodeINS_17__hash_value_typeINS_12basic_stringIcNS_11char_traitsIcEENS0_IcEEEE8VolCurveEEPvEEEEEC2B8ue170006Ev, symObjAddr: 0x1860, symBinAddr: 0x10000C3D0, symSize: 0x20 }
  - { offsetInCU: 0x1AC1D, offset: 0x4A02C, size: 0x8, addend: 0x0, symName: __ZNSt3__116__non_trivial_ifILb1ENS_9allocatorIPNS_16__hash_node_baseIPNS_11__hash_nodeINS_17__hash_value_typeINS_12basic_stringIcNS_11char_traitsIcEENS1_IcEEEE8VolCurveEEPvEEEEEEEC2B8ue170006Ev, symObjAddr: 0x1880, symBinAddr: 0x10000C3F0, symSize: 0x10 }
  - { offsetInCU: 0x1AC45, offset: 0x4A054, size: 0x8, addend: 0x0, symName: __ZNSt3__117__compressed_pairINS_16__hash_node_baseIPNS_11__hash_nodeINS_17__hash_value_typeINS_12basic_stringIcNS_11char_traitsIcEENS_9allocatorIcEEEE8VolCurveEEPvEEEENS7_ISD_EEEC2B8ue170006ILb1EvEEv, symObjAddr: 0x1890, symBinAddr: 0x10000C400, symSize: 0x30 }
  - { offsetInCU: 0x1AC78, offset: 0x4A087, size: 0x8, addend: 0x0, symName: __ZNSt3__122__compressed_pair_elemINS_16__hash_node_baseIPNS_11__hash_nodeINS_17__hash_value_typeINS_12basic_stringIcNS_11char_traitsIcEENS_9allocatorIcEEEE8VolCurveEEPvEEEELi0ELb0EEC2B8ue170006ENS_16__value_init_tagE, symObjAddr: 0x18C0, symBinAddr: 0x10000C430, symSize: 0x20 }
  - { offsetInCU: 0x1ACAA, offset: 0x4A0B9, size: 0x8, addend: 0x0, symName: __ZNSt3__122__compressed_pair_elemINS_9allocatorINS_11__hash_nodeINS_17__hash_value_typeINS_12basic_stringIcNS_11char_traitsIcEENS1_IcEEEE8VolCurveEEPvEEEELi1ELb1EEC2B8ue170006ENS_16__value_init_tagE, symObjAddr: 0x18E0, symBinAddr: 0x10000C450, symSize: 0x20 }
  - { offsetInCU: 0x1ACDC, offset: 0x4A0EB, size: 0x8, addend: 0x0, symName: __ZNSt3__116__hash_node_baseIPNS_11__hash_nodeINS_17__hash_value_typeINS_12basic_stringIcNS_11char_traitsIcEENS_9allocatorIcEEEE8VolCurveEEPvEEEC1B8ue170006Ev, symObjAddr: 0x1900, symBinAddr: 0x10000C470, symSize: 0x20 }
  - { offsetInCU: 0x1AD04, offset: 0x4A113, size: 0x8, addend: 0x0, symName: __ZNSt3__116__hash_node_baseIPNS_11__hash_nodeINS_17__hash_value_typeINS_12basic_stringIcNS_11char_traitsIcEENS_9allocatorIcEEEE8VolCurveEEPvEEEC2B8ue170006Ev, symObjAddr: 0x1920, symBinAddr: 0x10000C490, symSize: 0x20 }
  - { offsetInCU: 0x1AD2C, offset: 0x4A13B, size: 0x8, addend: 0x0, symName: __ZNSt3__19allocatorINS_11__hash_nodeINS_17__hash_value_typeINS_12basic_stringIcNS_11char_traitsIcEENS0_IcEEEE8VolCurveEEPvEEEC2B8ue170006Ev, symObjAddr: 0x1940, symBinAddr: 0x10000C4B0, symSize: 0x20 }
  - { offsetInCU: 0x1AD54, offset: 0x4A163, size: 0x8, addend: 0x0, symName: __ZNSt3__116__non_trivial_ifILb1ENS_9allocatorINS_11__hash_nodeINS_17__hash_value_typeINS_12basic_stringIcNS_11char_traitsIcEENS1_IcEEEE8VolCurveEEPvEEEEEC2B8ue170006Ev, symObjAddr: 0x1960, symBinAddr: 0x10000C4D0, symSize: 0x10 }
  - { offsetInCU: 0x1AD7C, offset: 0x4A18B, size: 0x8, addend: 0x0, symName: __ZNSt3__117__compressed_pairImNS_22__unordered_map_hasherINS_12basic_stringIcNS_11char_traitsIcEENS_9allocatorIcEEEENS_17__hash_value_typeIS7_8VolCurveEENS_4hashIS7_EENS_8equal_toIS7_EELb1EEEEC2B8ue170006IiNS_18__default_init_tagEEEOT_OT0_, symObjAddr: 0x1970, symBinAddr: 0x10000C4E0, symSize: 0x40 }
  - { offsetInCU: 0x1ADD2, offset: 0x4A1E1, size: 0x8, addend: 0x0, symName: __ZNSt3__122__compressed_pair_elemINS_22__unordered_map_hasherINS_12basic_stringIcNS_11char_traitsIcEENS_9allocatorIcEEEENS_17__hash_value_typeIS7_8VolCurveEENS_4hashIS7_EENS_8equal_toIS7_EELb1EEELi1ELb1EEC2B8ue170006ENS_18__default_init_tagE, symObjAddr: 0x19B0, symBinAddr: 0x10000C520, symSize: 0x20 }
  - { offsetInCU: 0x1AE04, offset: 0x4A213, size: 0x8, addend: 0x0, symName: __ZNSt3__122__unordered_map_hasherINS_12basic_stringIcNS_11char_traitsIcEENS_9allocatorIcEEEENS_17__hash_value_typeIS6_8VolCurveEENS_4hashIS6_EENS_8equal_toIS6_EELb1EEC2B8ue170006Ev, symObjAddr: 0x19D0, symBinAddr: 0x10000C540, symSize: 0x10 }
  - { offsetInCU: 0x1AE2C, offset: 0x4A23B, size: 0x8, addend: 0x0, symName: __ZNSt3__117__compressed_pairIfNS_21__unordered_map_equalINS_12basic_stringIcNS_11char_traitsIcEENS_9allocatorIcEEEENS_17__hash_value_typeIS7_8VolCurveEENS_8equal_toIS7_EENS_4hashIS7_EELb1EEEEC2B8ue170006IfNS_18__default_init_tagEEEOT_OT0_, symObjAddr: 0x19E0, symBinAddr: 0x10000C550, symSize: 0x40 }
  - { offsetInCU: 0x1AE82, offset: 0x4A291, size: 0x8, addend: 0x0, symName: __ZNSt3__122__compressed_pair_elemIfLi0ELb0EEC2B8ue170006IfvEEOT_, symObjAddr: 0x1A20, symBinAddr: 0x10000C590, symSize: 0x20 }
  - { offsetInCU: 0x1AEC2, offset: 0x4A2D1, size: 0x8, addend: 0x0, symName: __ZNSt3__122__compressed_pair_elemINS_21__unordered_map_equalINS_12basic_stringIcNS_11char_traitsIcEENS_9allocatorIcEEEENS_17__hash_value_typeIS7_8VolCurveEENS_8equal_toIS7_EENS_4hashIS7_EELb1EEELi1ELb1EEC2B8ue170006ENS_18__default_init_tagE, symObjAddr: 0x1A40, symBinAddr: 0x10000C5B0, symSize: 0x20 }
  - { offsetInCU: 0x1AEF4, offset: 0x4A303, size: 0x8, addend: 0x0, symName: __ZNSt3__121__unordered_map_equalINS_12basic_stringIcNS_11char_traitsIcEENS_9allocatorIcEEEENS_17__hash_value_typeIS6_8VolCurveEENS_8equal_toIS6_EENS_4hashIS6_EELb1EEC2B8ue170006Ev, symObjAddr: 0x1A60, symBinAddr: 0x10000C5D0, symSize: 0x10 }
  - { offsetInCU: 0x1AF1C, offset: 0x4A32B, size: 0x8, addend: 0x0, symName: __ZNSt3__113unordered_mapINS_12basic_stringIcNS_11char_traitsIcEENS_9allocatorIcEEEE9RateCurveNS_4hashIS6_EENS_8equal_toIS6_EENS4_INS_4pairIKS6_S7_EEEEEC2B8ue170006Ev, symObjAddr: 0x1A70, symBinAddr: 0x10000C5E0, symSize: 0x20 }
  - { offsetInCU: 0x1AF44, offset: 0x4A353, size: 0x8, addend: 0x0, symName: __ZNSt3__112__hash_tableINS_17__hash_value_typeINS_12basic_stringIcNS_11char_traitsIcEENS_9allocatorIcEEEE9RateCurveEENS_22__unordered_map_hasherIS7_S9_NS_4hashIS7_EENS_8equal_toIS7_EELb1EEENS_21__unordered_map_equalIS7_S9_SE_SC_Lb1EEENS5_IS9_EEEC1Ev, symObjAddr: 0x1A90, symBinAddr: 0x10000C600, symSize: 0x20 }
  - { offsetInCU: 0x1AF6F, offset: 0x4A37E, size: 0x8, addend: 0x0, symName: __ZNSt3__112__hash_tableINS_17__hash_value_typeINS_12basic_stringIcNS_11char_traitsIcEENS_9allocatorIcEEEE9RateCurveEENS_22__unordered_map_hasherIS7_S9_NS_4hashIS7_EENS_8equal_toIS7_EELb1EEENS_21__unordered_map_equalIS7_S9_SE_SC_Lb1EEENS5_IS9_EEEC2Ev, symObjAddr: 0x1AB0, symBinAddr: 0x10000C620, symSize: 0x80 }
  - { offsetInCU: 0x1AF9A, offset: 0x4A3A9, size: 0x8, addend: 0x0, symName: __ZNSt3__110unique_ptrIA_PNS_16__hash_node_baseIPNS_11__hash_nodeINS_17__hash_value_typeINS_12basic_stringIcNS_11char_traitsIcEENS_9allocatorIcEEEE9RateCurveEEPvEEEENS_25__bucket_list_deallocatorINS7_ISG_EEEEEC1B8ue170006ILb1EvEEv, symObjAddr: 0x1B30, symBinAddr: 0x10000C6A0, symSize: 0x20 }
  - { offsetInCU: 0x1AFCD, offset: 0x4A3DC, size: 0x8, addend: 0x0, symName: __ZNSt3__117__compressed_pairINS_16__hash_node_baseIPNS_11__hash_nodeINS_17__hash_value_typeINS_12basic_stringIcNS_11char_traitsIcEENS_9allocatorIcEEEE9RateCurveEEPvEEEENS7_ISD_EEEC1B8ue170006ILb1EvEEv, symObjAddr: 0x1B50, symBinAddr: 0x10000C6C0, symSize: 0x20 }
  - { offsetInCU: 0x1B000, offset: 0x4A40F, size: 0x8, addend: 0x0, symName: __ZNSt3__117__compressed_pairImNS_22__unordered_map_hasherINS_12basic_stringIcNS_11char_traitsIcEENS_9allocatorIcEEEENS_17__hash_value_typeIS7_9RateCurveEENS_4hashIS7_EENS_8equal_toIS7_EELb1EEEEC1B8ue170006IiNS_18__default_init_tagEEEOT_OT0_, symObjAddr: 0x1B70, symBinAddr: 0x10000C6E0, symSize: 0x30 }
  - { offsetInCU: 0x1B056, offset: 0x4A465, size: 0x8, addend: 0x0, symName: __ZNSt3__117__compressed_pairIfNS_21__unordered_map_equalINS_12basic_stringIcNS_11char_traitsIcEENS_9allocatorIcEEEENS_17__hash_value_typeIS7_9RateCurveEENS_8equal_toIS7_EENS_4hashIS7_EELb1EEEEC1B8ue170006IfNS_18__default_init_tagEEEOT_OT0_, symObjAddr: 0x1BA0, symBinAddr: 0x10000C710, symSize: 0x30 }
  - { offsetInCU: 0x1B0AC, offset: 0x4A4BB, size: 0x8, addend: 0x0, symName: __ZNSt3__110unique_ptrIA_PNS_16__hash_node_baseIPNS_11__hash_nodeINS_17__hash_value_typeINS_12basic_stringIcNS_11char_traitsIcEENS_9allocatorIcEEEE9RateCurveEEPvEEEENS_25__bucket_list_deallocatorINS7_ISG_EEEEEC2B8ue170006ILb1EvEEv, symObjAddr: 0x1BD0, symBinAddr: 0x10000C740, symSize: 0x30 }
  - { offsetInCU: 0x1B0DF, offset: 0x4A4EE, size: 0x8, addend: 0x0, symName: __ZNSt3__117__compressed_pairIPPNS_16__hash_node_baseIPNS_11__hash_nodeINS_17__hash_value_typeINS_12basic_stringIcNS_11char_traitsIcEENS_9allocatorIcEEEE9RateCurveEEPvEEEENS_25__bucket_list_deallocatorINS7_ISG_EEEEEC1B8ue170006INS_16__value_init_tagESN_EEOT_OT0_, symObjAddr: 0x1C00, symBinAddr: 0x10000C770, symSize: 0x30 }
  - { offsetInCU: 0x1B135, offset: 0x4A544, size: 0x8, addend: 0x0, symName: __ZNSt3__117__compressed_pairIPPNS_16__hash_node_baseIPNS_11__hash_nodeINS_17__hash_value_typeINS_12basic_stringIcNS_11char_traitsIcEENS_9allocatorIcEEEE9RateCurveEEPvEEEENS_25__bucket_list_deallocatorINS7_ISG_EEEEEC2B8ue170006INS_16__value_init_tagESN_EEOT_OT0_, symObjAddr: 0x1C30, symBinAddr: 0x10000C7A0, symSize: 0x40 }
  - { offsetInCU: 0x1B18B, offset: 0x4A59A, size: 0x8, addend: 0x0, symName: __ZNSt3__122__compressed_pair_elemIPPNS_16__hash_node_baseIPNS_11__hash_nodeINS_17__hash_value_typeINS_12basic_stringIcNS_11char_traitsIcEENS_9allocatorIcEEEE9RateCurveEEPvEEEELi0ELb0EEC2B8ue170006ENS_16__value_init_tagE, symObjAddr: 0x1C70, symBinAddr: 0x10000C7E0, symSize: 0x20 }
  - { offsetInCU: 0x1B1BD, offset: 0x4A5CC, size: 0x8, addend: 0x0, symName: __ZNSt3__122__compressed_pair_elemINS_25__bucket_list_deallocatorINS_9allocatorIPNS_16__hash_node_baseIPNS_11__hash_nodeINS_17__hash_value_typeINS_12basic_stringIcNS_11char_traitsIcEENS2_IcEEEE9RateCurveEEPvEEEEEEEELi1ELb0EEC2B8ue170006ENS_16__value_init_tagE, symObjAddr: 0x1C90, symBinAddr: 0x10000C800, symSize: 0x20 }
  - { offsetInCU: 0x1B1EF, offset: 0x4A5FE, size: 0x8, addend: 0x0, symName: __ZNSt3__125__bucket_list_deallocatorINS_9allocatorIPNS_16__hash_node_baseIPNS_11__hash_nodeINS_17__hash_value_typeINS_12basic_stringIcNS_11char_traitsIcEENS1_IcEEEE9RateCurveEEPvEEEEEEEC1B8ue170006Ev, symObjAddr: 0x1CB0, symBinAddr: 0x10000C820, symSize: 0x20 }
  - { offsetInCU: 0x1B217, offset: 0x4A626, size: 0x8, addend: 0x0, symName: __ZNSt3__125__bucket_list_deallocatorINS_9allocatorIPNS_16__hash_node_baseIPNS_11__hash_nodeINS_17__hash_value_typeINS_12basic_stringIcNS_11char_traitsIcEENS1_IcEEEE9RateCurveEEPvEEEEEEEC2B8ue170006Ev, symObjAddr: 0x1CD0, symBinAddr: 0x10000C840, symSize: 0x40 }
  - { offsetInCU: 0x1B23F, offset: 0x4A64E, size: 0x8, addend: 0x0, symName: __ZNSt3__117__compressed_pairImNS_9allocatorIPNS_16__hash_node_baseIPNS_11__hash_nodeINS_17__hash_value_typeINS_12basic_stringIcNS_11char_traitsIcEENS1_IcEEEE9RateCurveEEPvEEEEEEEC1B8ue170006IiNS_18__default_init_tagEEEOT_OT0_, symObjAddr: 0x1D10, symBinAddr: 0x10000C880, symSize: 0x30 }
  - { offsetInCU: 0x1B295, offset: 0x4A6A4, size: 0x8, addend: 0x0, symName: __ZNSt3__117__compressed_pairImNS_9allocatorIPNS_16__hash_node_baseIPNS_11__hash_nodeINS_17__hash_value_typeINS_12basic_stringIcNS_11char_traitsIcEENS1_IcEEEE9RateCurveEEPvEEEEEEEC2B8ue170006IiNS_18__default_init_tagEEEOT_OT0_, symObjAddr: 0x1D40, symBinAddr: 0x10000C8B0, symSize: 0x40 }
  - { offsetInCU: 0x1B2EB, offset: 0x4A6FA, size: 0x8, addend: 0x0, symName: __ZNSt3__122__compressed_pair_elemINS_9allocatorIPNS_16__hash_node_baseIPNS_11__hash_nodeINS_17__hash_value_typeINS_12basic_stringIcNS_11char_traitsIcEENS1_IcEEEE9RateCurveEEPvEEEEEELi1ELb1EEC2B8ue170006ENS_18__default_init_tagE, symObjAddr: 0x1D80, symBinAddr: 0x10000C8F0, symSize: 0x20 }
  - { offsetInCU: 0x1B31D, offset: 0x4A72C, size: 0x8, addend: 0x0, symName: __ZNSt3__19allocatorIPNS_16__hash_node_baseIPNS_11__hash_nodeINS_17__hash_value_typeINS_12basic_stringIcNS_11char_traitsIcEENS0_IcEEEE9RateCurveEEPvEEEEEC2B8ue170006Ev, symObjAddr: 0x1DA0, symBinAddr: 0x10000C910, symSize: 0x20 }
  - { offsetInCU: 0x1B345, offset: 0x4A754, size: 0x8, addend: 0x0, symName: __ZNSt3__116__non_trivial_ifILb1ENS_9allocatorIPNS_16__hash_node_baseIPNS_11__hash_nodeINS_17__hash_value_typeINS_12basic_stringIcNS_11char_traitsIcEENS1_IcEEEE9RateCurveEEPvEEEEEEEC2B8ue170006Ev, symObjAddr: 0x1DC0, symBinAddr: 0x10000C930, symSize: 0x10 }
  - { offsetInCU: 0x1B36D, offset: 0x4A77C, size: 0x8, addend: 0x0, symName: __ZNSt3__117__compressed_pairINS_16__hash_node_baseIPNS_11__hash_nodeINS_17__hash_value_typeINS_12basic_stringIcNS_11char_traitsIcEENS_9allocatorIcEEEE9RateCurveEEPvEEEENS7_ISD_EEEC2B8ue170006ILb1EvEEv, symObjAddr: 0x1DD0, symBinAddr: 0x10000C940, symSize: 0x30 }
  - { offsetInCU: 0x1B3A0, offset: 0x4A7AF, size: 0x8, addend: 0x0, symName: __ZNSt3__122__compressed_pair_elemINS_16__hash_node_baseIPNS_11__hash_nodeINS_17__hash_value_typeINS_12basic_stringIcNS_11char_traitsIcEENS_9allocatorIcEEEE9RateCurveEEPvEEEELi0ELb0EEC2B8ue170006ENS_16__value_init_tagE, symObjAddr: 0x1E00, symBinAddr: 0x10000C970, symSize: 0x20 }
  - { offsetInCU: 0x1B3D2, offset: 0x4A7E1, size: 0x8, addend: 0x0, symName: __ZNSt3__122__compressed_pair_elemINS_9allocatorINS_11__hash_nodeINS_17__hash_value_typeINS_12basic_stringIcNS_11char_traitsIcEENS1_IcEEEE9RateCurveEEPvEEEELi1ELb1EEC2B8ue170006ENS_16__value_init_tagE, symObjAddr: 0x1E20, symBinAddr: 0x10000C990, symSize: 0x20 }
  - { offsetInCU: 0x1B404, offset: 0x4A813, size: 0x8, addend: 0x0, symName: __ZNSt3__116__hash_node_baseIPNS_11__hash_nodeINS_17__hash_value_typeINS_12basic_stringIcNS_11char_traitsIcEENS_9allocatorIcEEEE9RateCurveEEPvEEEC1B8ue170006Ev, symObjAddr: 0x1E40, symBinAddr: 0x10000C9B0, symSize: 0x20 }
  - { offsetInCU: 0x1B42C, offset: 0x4A83B, size: 0x8, addend: 0x0, symName: __ZNSt3__116__hash_node_baseIPNS_11__hash_nodeINS_17__hash_value_typeINS_12basic_stringIcNS_11char_traitsIcEENS_9allocatorIcEEEE9RateCurveEEPvEEEC2B8ue170006Ev, symObjAddr: 0x1E60, symBinAddr: 0x10000C9D0, symSize: 0x20 }
  - { offsetInCU: 0x1B454, offset: 0x4A863, size: 0x8, addend: 0x0, symName: __ZNSt3__19allocatorINS_11__hash_nodeINS_17__hash_value_typeINS_12basic_stringIcNS_11char_traitsIcEENS0_IcEEEE9RateCurveEEPvEEEC2B8ue170006Ev, symObjAddr: 0x1E80, symBinAddr: 0x10000C9F0, symSize: 0x20 }
  - { offsetInCU: 0x1B47C, offset: 0x4A88B, size: 0x8, addend: 0x0, symName: __ZNSt3__116__non_trivial_ifILb1ENS_9allocatorINS_11__hash_nodeINS_17__hash_value_typeINS_12basic_stringIcNS_11char_traitsIcEENS1_IcEEEE9RateCurveEEPvEEEEEC2B8ue170006Ev, symObjAddr: 0x1EA0, symBinAddr: 0x10000CA10, symSize: 0x10 }
  - { offsetInCU: 0x1B4A4, offset: 0x4A8B3, size: 0x8, addend: 0x0, symName: __ZNSt3__117__compressed_pairImNS_22__unordered_map_hasherINS_12basic_stringIcNS_11char_traitsIcEENS_9allocatorIcEEEENS_17__hash_value_typeIS7_9RateCurveEENS_4hashIS7_EENS_8equal_toIS7_EELb1EEEEC2B8ue170006IiNS_18__default_init_tagEEEOT_OT0_, symObjAddr: 0x1EB0, symBinAddr: 0x10000CA20, symSize: 0x40 }
  - { offsetInCU: 0x1B4FA, offset: 0x4A909, size: 0x8, addend: 0x0, symName: __ZNSt3__122__compressed_pair_elemINS_22__unordered_map_hasherINS_12basic_stringIcNS_11char_traitsIcEENS_9allocatorIcEEEENS_17__hash_value_typeIS7_9RateCurveEENS_4hashIS7_EENS_8equal_toIS7_EELb1EEELi1ELb1EEC2B8ue170006ENS_18__default_init_tagE, symObjAddr: 0x1EF0, symBinAddr: 0x10000CA60, symSize: 0x20 }
  - { offsetInCU: 0x1B52C, offset: 0x4A93B, size: 0x8, addend: 0x0, symName: __ZNSt3__122__unordered_map_hasherINS_12basic_stringIcNS_11char_traitsIcEENS_9allocatorIcEEEENS_17__hash_value_typeIS6_9RateCurveEENS_4hashIS6_EENS_8equal_toIS6_EELb1EEC2B8ue170006Ev, symObjAddr: 0x1F10, symBinAddr: 0x10000CA80, symSize: 0x10 }
  - { offsetInCU: 0x1B554, offset: 0x4A963, size: 0x8, addend: 0x0, symName: __ZNSt3__117__compressed_pairIfNS_21__unordered_map_equalINS_12basic_stringIcNS_11char_traitsIcEENS_9allocatorIcEEEENS_17__hash_value_typeIS7_9RateCurveEENS_8equal_toIS7_EENS_4hashIS7_EELb1EEEEC2B8ue170006IfNS_18__default_init_tagEEEOT_OT0_, symObjAddr: 0x1F20, symBinAddr: 0x10000CA90, symSize: 0x40 }
  - { offsetInCU: 0x1B5AA, offset: 0x4A9B9, size: 0x8, addend: 0x0, symName: __ZNSt3__122__compressed_pair_elemINS_21__unordered_map_equalINS_12basic_stringIcNS_11char_traitsIcEENS_9allocatorIcEEEENS_17__hash_value_typeIS7_9RateCurveEENS_8equal_toIS7_EENS_4hashIS7_EELb1EEELi1ELb1EEC2B8ue170006ENS_18__default_init_tagE, symObjAddr: 0x1F60, symBinAddr: 0x10000CAD0, symSize: 0x20 }
  - { offsetInCU: 0x1B5DC, offset: 0x4A9EB, size: 0x8, addend: 0x0, symName: __ZNSt3__121__unordered_map_equalINS_12basic_stringIcNS_11char_traitsIcEENS_9allocatorIcEEEENS_17__hash_value_typeIS6_9RateCurveEENS_8equal_toIS6_EENS_4hashIS6_EELb1EEC2B8ue170006Ev, symObjAddr: 0x1F80, symBinAddr: 0x10000CAF0, symSize: 0x10 }
  - { offsetInCU: 0x1B604, offset: 0x4AA13, size: 0x8, addend: 0x0, symName: __ZNSt3__113unordered_mapINS_12basic_stringIcNS_11char_traitsIcEENS_9allocatorIcEEEEdNS_4hashIS6_EENS_8equal_toIS6_EENS4_INS_4pairIKS6_dEEEEEC2B8ue170006Ev, symObjAddr: 0x1F90, symBinAddr: 0x10000CB00, symSize: 0x20 }
  - { offsetInCU: 0x1B62C, offset: 0x4AA3B, size: 0x8, addend: 0x0, symName: __ZNSt3__112__hash_tableINS_17__hash_value_typeINS_12basic_stringIcNS_11char_traitsIcEENS_9allocatorIcEEEEdEENS_22__unordered_map_hasherIS7_S8_NS_4hashIS7_EENS_8equal_toIS7_EELb1EEENS_21__unordered_map_equalIS7_S8_SD_SB_Lb1EEENS5_IS8_EEEC1Ev, symObjAddr: 0x1FB0, symBinAddr: 0x10000CB20, symSize: 0x20 }
  - { offsetInCU: 0x1B657, offset: 0x4AA66, size: 0x8, addend: 0x0, symName: __ZNSt3__112__hash_tableINS_17__hash_value_typeINS_12basic_stringIcNS_11char_traitsIcEENS_9allocatorIcEEEEdEENS_22__unordered_map_hasherIS7_S8_NS_4hashIS7_EENS_8equal_toIS7_EELb1EEENS_21__unordered_map_equalIS7_S8_SD_SB_Lb1EEENS5_IS8_EEEC2Ev, symObjAddr: 0x1FD0, symBinAddr: 0x10000CB40, symSize: 0x80 }
  - { offsetInCU: 0x1B682, offset: 0x4AA91, size: 0x8, addend: 0x0, symName: __ZNSt3__110unique_ptrIA_PNS_16__hash_node_baseIPNS_11__hash_nodeINS_17__hash_value_typeINS_12basic_stringIcNS_11char_traitsIcEENS_9allocatorIcEEEEdEEPvEEEENS_25__bucket_list_deallocatorINS7_ISF_EEEEEC1B8ue170006ILb1EvEEv, symObjAddr: 0x2050, symBinAddr: 0x10000CBC0, symSize: 0x20 }
  - { offsetInCU: 0x1B6B5, offset: 0x4AAC4, size: 0x8, addend: 0x0, symName: __ZNSt3__117__compressed_pairINS_16__hash_node_baseIPNS_11__hash_nodeINS_17__hash_value_typeINS_12basic_stringIcNS_11char_traitsIcEENS_9allocatorIcEEEEdEEPvEEEENS7_ISC_EEEC1B8ue170006ILb1EvEEv, symObjAddr: 0x2070, symBinAddr: 0x10000CBE0, symSize: 0x20 }
  - { offsetInCU: 0x1B6E8, offset: 0x4AAF7, size: 0x8, addend: 0x0, symName: __ZNSt3__117__compressed_pairImNS_22__unordered_map_hasherINS_12basic_stringIcNS_11char_traitsIcEENS_9allocatorIcEEEENS_17__hash_value_typeIS7_dEENS_4hashIS7_EENS_8equal_toIS7_EELb1EEEEC1B8ue170006IiNS_18__default_init_tagEEEOT_OT0_, symObjAddr: 0x2090, symBinAddr: 0x10000CC00, symSize: 0x30 }
  - { offsetInCU: 0x1B73E, offset: 0x4AB4D, size: 0x8, addend: 0x0, symName: __ZNSt3__117__compressed_pairIfNS_21__unordered_map_equalINS_12basic_stringIcNS_11char_traitsIcEENS_9allocatorIcEEEENS_17__hash_value_typeIS7_dEENS_8equal_toIS7_EENS_4hashIS7_EELb1EEEEC1B8ue170006IfNS_18__default_init_tagEEEOT_OT0_, symObjAddr: 0x20C0, symBinAddr: 0x10000CC30, symSize: 0x30 }
  - { offsetInCU: 0x1B794, offset: 0x4ABA3, size: 0x8, addend: 0x0, symName: __ZNSt3__110unique_ptrIA_PNS_16__hash_node_baseIPNS_11__hash_nodeINS_17__hash_value_typeINS_12basic_stringIcNS_11char_traitsIcEENS_9allocatorIcEEEEdEEPvEEEENS_25__bucket_list_deallocatorINS7_ISF_EEEEEC2B8ue170006ILb1EvEEv, symObjAddr: 0x20F0, symBinAddr: 0x10000CC60, symSize: 0x30 }
  - { offsetInCU: 0x1B7C7, offset: 0x4ABD6, size: 0x8, addend: 0x0, symName: __ZNSt3__117__compressed_pairIPPNS_16__hash_node_baseIPNS_11__hash_nodeINS_17__hash_value_typeINS_12basic_stringIcNS_11char_traitsIcEENS_9allocatorIcEEEEdEEPvEEEENS_25__bucket_list_deallocatorINS7_ISF_EEEEEC1B8ue170006INS_16__value_init_tagESM_EEOT_OT0_, symObjAddr: 0x2120, symBinAddr: 0x10000CC90, symSize: 0x30 }
  - { offsetInCU: 0x1B81D, offset: 0x4AC2C, size: 0x8, addend: 0x0, symName: __ZNSt3__117__compressed_pairIPPNS_16__hash_node_baseIPNS_11__hash_nodeINS_17__hash_value_typeINS_12basic_stringIcNS_11char_traitsIcEENS_9allocatorIcEEEEdEEPvEEEENS_25__bucket_list_deallocatorINS7_ISF_EEEEEC2B8ue170006INS_16__value_init_tagESM_EEOT_OT0_, symObjAddr: 0x2150, symBinAddr: 0x10000CCC0, symSize: 0x40 }
  - { offsetInCU: 0x1B873, offset: 0x4AC82, size: 0x8, addend: 0x0, symName: __ZNSt3__122__compressed_pair_elemIPPNS_16__hash_node_baseIPNS_11__hash_nodeINS_17__hash_value_typeINS_12basic_stringIcNS_11char_traitsIcEENS_9allocatorIcEEEEdEEPvEEEELi0ELb0EEC2B8ue170006ENS_16__value_init_tagE, symObjAddr: 0x2190, symBinAddr: 0x10000CD00, symSize: 0x20 }
  - { offsetInCU: 0x1B8A5, offset: 0x4ACB4, size: 0x8, addend: 0x0, symName: __ZNSt3__122__compressed_pair_elemINS_25__bucket_list_deallocatorINS_9allocatorIPNS_16__hash_node_baseIPNS_11__hash_nodeINS_17__hash_value_typeINS_12basic_stringIcNS_11char_traitsIcEENS2_IcEEEEdEEPvEEEEEEEELi1ELb0EEC2B8ue170006ENS_16__value_init_tagE, symObjAddr: 0x21B0, symBinAddr: 0x10000CD20, symSize: 0x20 }
  - { offsetInCU: 0x1B8D7, offset: 0x4ACE6, size: 0x8, addend: 0x0, symName: __ZNSt3__125__bucket_list_deallocatorINS_9allocatorIPNS_16__hash_node_baseIPNS_11__hash_nodeINS_17__hash_value_typeINS_12basic_stringIcNS_11char_traitsIcEENS1_IcEEEEdEEPvEEEEEEEC1B8ue170006Ev, symObjAddr: 0x21D0, symBinAddr: 0x10000CD40, symSize: 0x20 }
  - { offsetInCU: 0x1B8FF, offset: 0x4AD0E, size: 0x8, addend: 0x0, symName: __ZNSt3__125__bucket_list_deallocatorINS_9allocatorIPNS_16__hash_node_baseIPNS_11__hash_nodeINS_17__hash_value_typeINS_12basic_stringIcNS_11char_traitsIcEENS1_IcEEEEdEEPvEEEEEEEC2B8ue170006Ev, symObjAddr: 0x21F0, symBinAddr: 0x10000CD60, symSize: 0x40 }
  - { offsetInCU: 0x1B927, offset: 0x4AD36, size: 0x8, addend: 0x0, symName: __ZNSt3__117__compressed_pairImNS_9allocatorIPNS_16__hash_node_baseIPNS_11__hash_nodeINS_17__hash_value_typeINS_12basic_stringIcNS_11char_traitsIcEENS1_IcEEEEdEEPvEEEEEEEC1B8ue170006IiNS_18__default_init_tagEEEOT_OT0_, symObjAddr: 0x2230, symBinAddr: 0x10000CDA0, symSize: 0x30 }
  - { offsetInCU: 0x1B97D, offset: 0x4AD8C, size: 0x8, addend: 0x0, symName: __ZNSt3__117__compressed_pairImNS_9allocatorIPNS_16__hash_node_baseIPNS_11__hash_nodeINS_17__hash_value_typeINS_12basic_stringIcNS_11char_traitsIcEENS1_IcEEEEdEEPvEEEEEEEC2B8ue170006IiNS_18__default_init_tagEEEOT_OT0_, symObjAddr: 0x2260, symBinAddr: 0x10000CDD0, symSize: 0x40 }
  - { offsetInCU: 0x1B9D3, offset: 0x4ADE2, size: 0x8, addend: 0x0, symName: __ZNSt3__122__compressed_pair_elemINS_9allocatorIPNS_16__hash_node_baseIPNS_11__hash_nodeINS_17__hash_value_typeINS_12basic_stringIcNS_11char_traitsIcEENS1_IcEEEEdEEPvEEEEEELi1ELb1EEC2B8ue170006ENS_18__default_init_tagE, symObjAddr: 0x22A0, symBinAddr: 0x10000CE10, symSize: 0x20 }
  - { offsetInCU: 0x1BA05, offset: 0x4AE14, size: 0x8, addend: 0x0, symName: __ZNSt3__19allocatorIPNS_16__hash_node_baseIPNS_11__hash_nodeINS_17__hash_value_typeINS_12basic_stringIcNS_11char_traitsIcEENS0_IcEEEEdEEPvEEEEEC2B8ue170006Ev, symObjAddr: 0x22C0, symBinAddr: 0x10000CE30, symSize: 0x20 }
  - { offsetInCU: 0x1BA2D, offset: 0x4AE3C, size: 0x8, addend: 0x0, symName: __ZNSt3__116__non_trivial_ifILb1ENS_9allocatorIPNS_16__hash_node_baseIPNS_11__hash_nodeINS_17__hash_value_typeINS_12basic_stringIcNS_11char_traitsIcEENS1_IcEEEEdEEPvEEEEEEEC2B8ue170006Ev, symObjAddr: 0x22E0, symBinAddr: 0x10000CE50, symSize: 0x10 }
  - { offsetInCU: 0x1BA55, offset: 0x4AE64, size: 0x8, addend: 0x0, symName: __ZNSt3__117__compressed_pairINS_16__hash_node_baseIPNS_11__hash_nodeINS_17__hash_value_typeINS_12basic_stringIcNS_11char_traitsIcEENS_9allocatorIcEEEEdEEPvEEEENS7_ISC_EEEC2B8ue170006ILb1EvEEv, symObjAddr: 0x22F0, symBinAddr: 0x10000CE60, symSize: 0x30 }
  - { offsetInCU: 0x1BA88, offset: 0x4AE97, size: 0x8, addend: 0x0, symName: __ZNSt3__122__compressed_pair_elemINS_16__hash_node_baseIPNS_11__hash_nodeINS_17__hash_value_typeINS_12basic_stringIcNS_11char_traitsIcEENS_9allocatorIcEEEEdEEPvEEEELi0ELb0EEC2B8ue170006ENS_16__value_init_tagE, symObjAddr: 0x2320, symBinAddr: 0x10000CE90, symSize: 0x20 }
  - { offsetInCU: 0x1BABA, offset: 0x4AEC9, size: 0x8, addend: 0x0, symName: __ZNSt3__122__compressed_pair_elemINS_9allocatorINS_11__hash_nodeINS_17__hash_value_typeINS_12basic_stringIcNS_11char_traitsIcEENS1_IcEEEEdEEPvEEEELi1ELb1EEC2B8ue170006ENS_16__value_init_tagE, symObjAddr: 0x2340, symBinAddr: 0x10000CEB0, symSize: 0x20 }
  - { offsetInCU: 0x1BAEC, offset: 0x4AEFB, size: 0x8, addend: 0x0, symName: __ZNSt3__116__hash_node_baseIPNS_11__hash_nodeINS_17__hash_value_typeINS_12basic_stringIcNS_11char_traitsIcEENS_9allocatorIcEEEEdEEPvEEEC1B8ue170006Ev, symObjAddr: 0x2360, symBinAddr: 0x10000CED0, symSize: 0x20 }
  - { offsetInCU: 0x1BB14, offset: 0x4AF23, size: 0x8, addend: 0x0, symName: __ZNSt3__116__hash_node_baseIPNS_11__hash_nodeINS_17__hash_value_typeINS_12basic_stringIcNS_11char_traitsIcEENS_9allocatorIcEEEEdEEPvEEEC2B8ue170006Ev, symObjAddr: 0x2380, symBinAddr: 0x10000CEF0, symSize: 0x20 }
  - { offsetInCU: 0x1BB3C, offset: 0x4AF4B, size: 0x8, addend: 0x0, symName: __ZNSt3__19allocatorINS_11__hash_nodeINS_17__hash_value_typeINS_12basic_stringIcNS_11char_traitsIcEENS0_IcEEEEdEEPvEEEC2B8ue170006Ev, symObjAddr: 0x23A0, symBinAddr: 0x10000CF10, symSize: 0x20 }
  - { offsetInCU: 0x1BB64, offset: 0x4AF73, size: 0x8, addend: 0x0, symName: __ZNSt3__116__non_trivial_ifILb1ENS_9allocatorINS_11__hash_nodeINS_17__hash_value_typeINS_12basic_stringIcNS_11char_traitsIcEENS1_IcEEEEdEEPvEEEEEC2B8ue170006Ev, symObjAddr: 0x23C0, symBinAddr: 0x10000CF30, symSize: 0x10 }
  - { offsetInCU: 0x1BB8C, offset: 0x4AF9B, size: 0x8, addend: 0x0, symName: __ZNSt3__117__compressed_pairImNS_22__unordered_map_hasherINS_12basic_stringIcNS_11char_traitsIcEENS_9allocatorIcEEEENS_17__hash_value_typeIS7_dEENS_4hashIS7_EENS_8equal_toIS7_EELb1EEEEC2B8ue170006IiNS_18__default_init_tagEEEOT_OT0_, symObjAddr: 0x23D0, symBinAddr: 0x10000CF40, symSize: 0x40 }
  - { offsetInCU: 0x1BBE2, offset: 0x4AFF1, size: 0x8, addend: 0x0, symName: __ZNSt3__122__compressed_pair_elemINS_22__unordered_map_hasherINS_12basic_stringIcNS_11char_traitsIcEENS_9allocatorIcEEEENS_17__hash_value_typeIS7_dEENS_4hashIS7_EENS_8equal_toIS7_EELb1EEELi1ELb1EEC2B8ue170006ENS_18__default_init_tagE, symObjAddr: 0x2410, symBinAddr: 0x10000CF80, symSize: 0x20 }
  - { offsetInCU: 0x1BC14, offset: 0x4B023, size: 0x8, addend: 0x0, symName: __ZNSt3__122__unordered_map_hasherINS_12basic_stringIcNS_11char_traitsIcEENS_9allocatorIcEEEENS_17__hash_value_typeIS6_dEENS_4hashIS6_EENS_8equal_toIS6_EELb1EEC2B8ue170006Ev, symObjAddr: 0x2430, symBinAddr: 0x10000CFA0, symSize: 0x10 }
  - { offsetInCU: 0x1BC3C, offset: 0x4B04B, size: 0x8, addend: 0x0, symName: __ZNSt3__117__compressed_pairIfNS_21__unordered_map_equalINS_12basic_stringIcNS_11char_traitsIcEENS_9allocatorIcEEEENS_17__hash_value_typeIS7_dEENS_8equal_toIS7_EENS_4hashIS7_EELb1EEEEC2B8ue170006IfNS_18__default_init_tagEEEOT_OT0_, symObjAddr: 0x2440, symBinAddr: 0x10000CFB0, symSize: 0x40 }
  - { offsetInCU: 0x1BC92, offset: 0x4B0A1, size: 0x8, addend: 0x0, symName: __ZNSt3__122__compressed_pair_elemINS_21__unordered_map_equalINS_12basic_stringIcNS_11char_traitsIcEENS_9allocatorIcEEEENS_17__hash_value_typeIS7_dEENS_8equal_toIS7_EENS_4hashIS7_EELb1EEELi1ELb1EEC2B8ue170006ENS_18__default_init_tagE, symObjAddr: 0x2480, symBinAddr: 0x10000CFF0, symSize: 0x20 }
  - { offsetInCU: 0x1BCC4, offset: 0x4B0D3, size: 0x8, addend: 0x0, symName: __ZNSt3__121__unordered_map_equalINS_12basic_stringIcNS_11char_traitsIcEENS_9allocatorIcEEEENS_17__hash_value_typeIS6_dEENS_8equal_toIS6_EENS_4hashIS6_EELb1EEC2B8ue170006Ev, symObjAddr: 0x24A0, symBinAddr: 0x10000D010, symSize: 0x10 }
  - { offsetInCU: 0x1BCEC, offset: 0x4B0FB, size: 0x8, addend: 0x0, symName: __ZN4DateC2Eiii, symObjAddr: 0x24B0, symBinAddr: 0x10000D020, symSize: 0x30 }
  - { offsetInCU: 0x1BD3E, offset: 0x4B14D, size: 0x8, addend: 0x0, symName: __ZN4BondC2E4DateS0_dd, symObjAddr: 0x24E0, symBinAddr: 0x10000D050, symSize: 0x160 }
  - { offsetInCU: 0x1BDA6, offset: 0x4B1B5, size: 0x8, addend: 0x0, symName: __ZNSt3__112basic_stringIcNS_11char_traitsIcEENS_9allocatorIcEEEC1B8ue170006ILi0EEEPKc, symObjAddr: 0x2640, symBinAddr: 0x10000D1B0, symSize: 0x30 }
  - { offsetInCU: 0x1BDE4, offset: 0x4B1F3, size: 0x8, addend: 0x0, symName: __ZN5TradeC2ERKNSt3__112basic_stringIcNS0_11char_traitsIcEENS0_9allocatorIcEEEE4Date, symObjAddr: 0x2670, symBinAddr: 0x10000D1E0, symSize: 0x60 }
  - { offsetInCU: 0x1BE28, offset: 0x4B237, size: 0x8, addend: 0x0, symName: __ZN5TradeD2Ev, symObjAddr: 0x26D0, symBinAddr: 0x10000D240, symSize: 0x30 }
  - { offsetInCU: 0x1BE50, offset: 0x4B25F, size: 0x8, addend: 0x0, symName: __ZNK4Bond6PayoffEd, symObjAddr: 0x2700, symBinAddr: 0x10000D270, symSize: 0x20 }
  - { offsetInCU: 0x1BE82, offset: 0x4B291, size: 0x8, addend: 0x0, symName: __ZN4BondD1Ev, symObjAddr: 0x2720, symBinAddr: 0x10000D290, symSize: 0x20 }
  - { offsetInCU: 0x1BEAD, offset: 0x4B2BC, size: 0x8, addend: 0x0, symName: __ZN4BondD0Ev, symObjAddr: 0x2740, symBinAddr: 0x10000D2B0, symSize: 0x30 }
  - { offsetInCU: 0x1BED8, offset: 0x4B2E7, size: 0x8, addend: 0x0, symName: __ZNSt3__112basic_stringIcNS_11char_traitsIcEENS_9allocatorIcEEEC2B8ue170006ILi0EEEPKc, symObjAddr: 0x2770, symBinAddr: 0x10000D2E0, symSize: 0x50 }
  - { offsetInCU: 0x1BF16, offset: 0x4B325, size: 0x8, addend: 0x0, symName: __ZN5TradeD1Ev, symObjAddr: 0x28D0, symBinAddr: 0x10000D330, symSize: 0x10 }
  - { offsetInCU: 0x1BF3E, offset: 0x4B34D, size: 0x8, addend: 0x0, symName: __ZN5TradeD0Ev, symObjAddr: 0x28E0, symBinAddr: 0x10000D340, symSize: 0x10 }
  - { offsetInCU: 0x1BF66, offset: 0x4B375, size: 0x8, addend: 0x0, symName: __ZN4BondD2Ev, symObjAddr: 0x28F0, symBinAddr: 0x10000D350, symSize: 0x20 }
  - { offsetInCU: 0x1BF91, offset: 0x4B3A0, size: 0x8, addend: 0x0, symName: __ZN21CRRBinomialTreePricerC2Ei, symObjAddr: 0x2910, symBinAddr: 0x10000D370, symSize: 0x40 }
  - { offsetInCU: 0x1BFC7, offset: 0x4B3D6, size: 0x8, addend: 0x0, symName: __ZN18BinomialTreePricerC2Ei, symObjAddr: 0x2950, symBinAddr: 0x10000D3B0, symSize: 0x80 }
  - { offsetInCU: 0x1BFFD, offset: 0x4B40C, size: 0x8, addend: 0x0, symName: __ZN6PricerC2Ev, symObjAddr: 0x29D0, symBinAddr: 0x10000D430, symSize: 0x20 }
  - { offsetInCU: 0x1C028, offset: 0x4B437, size: 0x8, addend: 0x0, symName: __ZNSt3__16vectorIdNS_9allocatorIdEEEC1B8ue170006Ev, symObjAddr: 0x29F0, symBinAddr: 0x10000D450, symSize: 0x20 }
  - { offsetInCU: 0x1C050, offset: 0x4B45F, size: 0x8, addend: 0x0, symName: __ZNSt3__16vectorIdNS_9allocatorIdEEE6resizeEm, symObjAddr: 0x2A10, symBinAddr: 0x10000D470, symSize: 0x80 }
  - { offsetInCU: 0x1C094, offset: 0x4B4A3, size: 0x8, addend: 0x0, symName: __ZNSt3__16vectorIdNS_9allocatorIdEEEC2B8ue170006Ev, symObjAddr: 0x2AB0, symBinAddr: 0x10000D4F0, symSize: 0x50 }
  - { offsetInCU: 0x1C0C1, offset: 0x4B4D0, size: 0x8, addend: 0x0, symName: __ZNSt3__117__compressed_pairIPdNS_9allocatorIdEEEC1B8ue170006IDnNS_18__default_init_tagEEEOT_OT0_, symObjAddr: 0x2B00, symBinAddr: 0x10000D540, symSize: 0x30 }
  - { offsetInCU: 0x1C117, offset: 0x4B526, size: 0x8, addend: 0x0, symName: __ZNSt3__117__compressed_pairIPdNS_9allocatorIdEEEC2B8ue170006IDnNS_18__default_init_tagEEEOT_OT0_, symObjAddr: 0x2B30, symBinAddr: 0x10000D570, symSize: 0x40 }
  - { offsetInCU: 0x1C16D, offset: 0x4B57C, size: 0x8, addend: 0x0, symName: __ZNSt3__122__compressed_pair_elemINS_9allocatorIdEELi1ELb1EEC2B8ue170006ENS_18__default_init_tagE, symObjAddr: 0x2B90, symBinAddr: 0x10000D5B0, symSize: 0x20 }
  - { offsetInCU: 0x1C19F, offset: 0x4B5AE, size: 0x8, addend: 0x0, symName: __ZNSt3__19allocatorIdEC2B8ue170006Ev, symObjAddr: 0x2BB0, symBinAddr: 0x10000D5D0, symSize: 0x20 }
  - { offsetInCU: 0x1C1C7, offset: 0x4B5D6, size: 0x8, addend: 0x0, symName: __ZNSt3__116__non_trivial_ifILb1ENS_9allocatorIdEEEC2B8ue170006Ev, symObjAddr: 0x2BD0, symBinAddr: 0x10000D5F0, symSize: 0x10 }
  - { offsetInCU: 0x1C1EF, offset: 0x4B5FE, size: 0x8, addend: 0x0, symName: __ZNSt3__16vectorIdNS_9allocatorIdEEE8__appendEm, symObjAddr: 0x2C00, symBinAddr: 0x10000D600, symSize: 0x100 }
  - { offsetInCU: 0x1C248, offset: 0x4B657, size: 0x8, addend: 0x0, symName: __ZNSt3__16vectorIdNS_9allocatorIdEEE17__destruct_at_endB8ue170006EPd, symObjAddr: 0x2D00, symBinAddr: 0x10000D700, symSize: 0x50 }
  - { offsetInCU: 0x1C28A, offset: 0x4B699, size: 0x8, addend: 0x0, symName: __ZNSt3__16vectorIdNS_9allocatorIdEEE18__construct_at_endEm, symObjAddr: 0x2D70, symBinAddr: 0x10000D750, symSize: 0xC0 }
  - { offsetInCU: 0x1C2FB, offset: 0x4B70A, size: 0x8, addend: 0x0, symName: __ZNSt3__114__split_bufferIdRNS_9allocatorIdEEE18__construct_at_endEm, symObjAddr: 0x2F30, symBinAddr: 0x10000D810, symSize: 0xB0 }
  - { offsetInCU: 0x1C357, offset: 0x4B766, size: 0x8, addend: 0x0, symName: __ZNSt3__116allocator_traitsINS_9allocatorIdEEE9constructB8ue170006IdJEvEEvRS2_PT_DpOT0_, symObjAddr: 0x3180, symBinAddr: 0x10000D8C0, symSize: 0x30 }
  - { offsetInCU: 0x1C399, offset: 0x4B7A8, size: 0x8, addend: 0x0, symName: __ZNSt3__19allocatorIdE9constructB8ue170006IdJEEEvPT_DpOT0_, symObjAddr: 0x3220, symBinAddr: 0x10000D8F0, symSize: 0x20 }
  - { offsetInCU: 0x1C3F8, offset: 0x4B807, size: 0x8, addend: 0x0, symName: __ZNSt3__114__split_bufferIdRNS_9allocatorIdEEE21_ConstructTransactionC1B8ue170006EPPdm, symObjAddr: 0x39F0, symBinAddr: 0x10000D910, symSize: 0x30 }
  - { offsetInCU: 0x1C43C, offset: 0x4B84B, size: 0x8, addend: 0x0, symName: __ZNSt3__114__split_bufferIdRNS_9allocatorIdEEE21_ConstructTransactionD1B8ue170006Ev, symObjAddr: 0x3A20, symBinAddr: 0x10000D940, symSize: 0x20 }
  - { offsetInCU: 0x1C464, offset: 0x4B873, size: 0x8, addend: 0x0, symName: __ZNSt3__114__split_bufferIdRNS_9allocatorIdEEE21_ConstructTransactionC2B8ue170006EPPdm, symObjAddr: 0x3A40, symBinAddr: 0x10000D960, symSize: 0x40 }
  - { offsetInCU: 0x1C4A8, offset: 0x4B8B7, size: 0x8, addend: 0x0, symName: __ZNSt3__114__split_bufferIdRNS_9allocatorIdEEE21_ConstructTransactionD2B8ue170006Ev, symObjAddr: 0x3A80, symBinAddr: 0x10000D9A0, symSize: 0x20 }
  - { offsetInCU: 0x1C4DA, offset: 0x4B8E9, size: 0x8, addend: 0x0, symName: __ZNKSt3__16vectorIdNS_9allocatorIdEEE17__annotate_shrinkB8ue170006Em, symObjAddr: 0x48F0, symBinAddr: 0x10000D9C0, symSize: 0xA0 }
  - { offsetInCU: 0x1C50D, offset: 0x4B91C, size: 0x8, addend: 0x0, symName: __ZNKSt3__111__wrap_iterIPP5TradeE4baseB8ue170006Ev, symObjAddr: 0x4B00, symBinAddr: 0x10000DAA0, symSize: 0x20 }
  - { offsetInCU: 0x1C531, offset: 0x4B940, size: 0x8, addend: 0x0, symName: __ZN14EuropeanOptionC2E10OptionTypedRK4Date, symObjAddr: 0x4B20, symBinAddr: 0x10000DAC0, symSize: 0x60 }
  - { offsetInCU: 0x1C583, offset: 0x4B992, size: 0x8, addend: 0x0, symName: __ZN11TreeProductC2Ev, symObjAddr: 0x4B80, symBinAddr: 0x10000DB20, symSize: 0x70 }
  - { offsetInCU: 0x1C5AB, offset: 0x4B9BA, size: 0x8, addend: 0x0, symName: __ZNK14EuropeanOption6PayoffEd, symObjAddr: 0x4BF0, symBinAddr: 0x10000DB90, symSize: 0x30 }
  - { offsetInCU: 0x1C5DD, offset: 0x4B9EC, size: 0x8, addend: 0x0, symName: __ZN14EuropeanOptionD0Ev, symObjAddr: 0x4C20, symBinAddr: 0x10000DBC0, symSize: 0x30 }
  - { offsetInCU: 0x1C608, offset: 0x4BA17, size: 0x8, addend: 0x0, symName: __ZNK14EuropeanOption9GetExpiryEv, symObjAddr: 0x4C50, symBinAddr: 0x10000DBF0, symSize: 0x20 }
  - { offsetInCU: 0x1C62C, offset: 0x4BA3B, size: 0x8, addend: 0x0, symName: __ZNK14EuropeanOption11ValueAtNodeEddd, symObjAddr: 0x4C70, symBinAddr: 0x10000DC10, symSize: 0x20 }
  - { offsetInCU: 0x1C67A, offset: 0x4BA89, size: 0x8, addend: 0x0, symName: __ZN5TradeC2Ev, symObjAddr: 0x4C90, symBinAddr: 0x10000DC30, symSize: 0x70 }
  - { offsetInCU: 0x1C6A2, offset: 0x4BAB1, size: 0x8, addend: 0x0, symName: __ZNSt3__112basic_stringIcNS_11char_traitsIcEENS_9allocatorIcEEEaSB8ue170006EPKc, symObjAddr: 0x4D00, symBinAddr: 0x10000DCA0, symSize: 0x30 }
  - { offsetInCU: 0x1C6D5, offset: 0x4BAE4, size: 0x8, addend: 0x0, symName: __ZN11TreeProductD1Ev, symObjAddr: 0x4D30, symBinAddr: 0x10000DCD0, symSize: 0x10 }
  - { offsetInCU: 0x1C700, offset: 0x4BB0F, size: 0x8, addend: 0x0, symName: __ZN11TreeProductD0Ev, symObjAddr: 0x4D40, symBinAddr: 0x10000DCE0, symSize: 0x10 }
  - { offsetInCU: 0x1C72B, offset: 0x4BB3A, size: 0x8, addend: 0x0, symName: __ZN14AmericanOptionC2E10OptionTypedRK4Date, symObjAddr: 0x4D50, symBinAddr: 0x10000DCF0, symSize: 0x60 }
  - { offsetInCU: 0x1C77D, offset: 0x4BB8C, size: 0x8, addend: 0x0, symName: __ZNK14AmericanOption6PayoffEd, symObjAddr: 0x4DB0, symBinAddr: 0x10000DD50, symSize: 0x30 }
  - { offsetInCU: 0x1C7AF, offset: 0x4BBBE, size: 0x8, addend: 0x0, symName: __ZN14AmericanOptionD0Ev, symObjAddr: 0x4DE0, symBinAddr: 0x10000DD80, symSize: 0x30 }
  - { offsetInCU: 0x1C7DA, offset: 0x4BBE9, size: 0x8, addend: 0x0, symName: __ZNK14AmericanOption9GetExpiryEv, symObjAddr: 0x4E10, symBinAddr: 0x10000DDB0, symSize: 0x20 }
  - { offsetInCU: 0x1C7FE, offset: 0x4BC0D, size: 0x8, addend: 0x0, symName: __ZNK14AmericanOption11ValueAtNodeEddd, symObjAddr: 0x4E30, symBinAddr: 0x10000DDD0, symSize: 0x50 }
  - { offsetInCU: 0x1C84C, offset: 0x4BC5B, size: 0x8, addend: 0x0, symName: __ZNKSt3__16__lessIvvEclB8ue170006IddEEbRKT_RKT0_, symObjAddr: 0x4F00, symBinAddr: 0x10000DEA0, symSize: 0x30 }
  - { offsetInCU: 0x1C89E, offset: 0x4BCAD, size: 0x8, addend: 0x0, symName: __ZN14AmericanOptionD2Ev, symObjAddr: 0x4F30, symBinAddr: 0x10000DED0, symSize: 0x20 }
  - { offsetInCU: 0x1C8C9, offset: 0x4BCD8, size: 0x8, addend: 0x0, symName: __ZN11TreeProductD2Ev, symObjAddr: 0x4F50, symBinAddr: 0x10000DEF0, symSize: 0x20 }
  - { offsetInCU: 0x1C8F4, offset: 0x4BD03, size: 0x8, addend: 0x0, symName: __ZN21CRRBinomialTreePricerD2Ev, symObjAddr: 0x4F70, symBinAddr: 0x10000DF10, symSize: 0x20 }
  - { offsetInCU: 0x1C91F, offset: 0x4BD2E, size: 0x8, addend: 0x0, symName: __ZN18BinomialTreePricerD2Ev, symObjAddr: 0x4F90, symBinAddr: 0x10000DF30, symSize: 0x30 }
  - { offsetInCU: 0x1C94A, offset: 0x4BD59, size: 0x8, addend: 0x0, symName: __ZN14EuropeanOptionD2Ev, symObjAddr: 0x4FC0, symBinAddr: 0x10000DF60, symSize: 0x20 }
  - { offsetInCU: 0x1C975, offset: 0x4BD84, size: 0x8, addend: 0x0, symName: __ZN6MarketD2Ev, symObjAddr: 0x4FE0, symBinAddr: 0x10000DF80, symSize: 0x50 }
  - { offsetInCU: 0x1C9A0, offset: 0x4BDAF, size: 0x8, addend: 0x0, symName: __ZNSt3__113unordered_mapINS_12basic_stringIcNS_11char_traitsIcEENS_9allocatorIcEEEEdNS_4hashIS6_EENS_8equal_toIS6_EENS4_INS_4pairIKS6_dEEEEED1B8ue170006Ev, symObjAddr: 0x5030, symBinAddr: 0x10000DFD0, symSize: 0x20 }
  - { offsetInCU: 0x1C9C8, offset: 0x4BDD7, size: 0x8, addend: 0x0, symName: __ZNSt3__113unordered_mapINS_12basic_stringIcNS_11char_traitsIcEENS_9allocatorIcEEEE9RateCurveNS_4hashIS6_EENS_8equal_toIS6_EENS4_INS_4pairIKS6_S7_EEEEED1B8ue170006Ev, symObjAddr: 0x5050, symBinAddr: 0x10000DFF0, symSize: 0x20 }
  - { offsetInCU: 0x1C9F0, offset: 0x4BDFF, size: 0x8, addend: 0x0, symName: __ZNSt3__113unordered_mapINS_12basic_stringIcNS_11char_traitsIcEENS_9allocatorIcEEEE8VolCurveNS_4hashIS6_EENS_8equal_toIS6_EENS4_INS_4pairIKS6_S7_EEEEED1B8ue170006Ev, symObjAddr: 0x5070, symBinAddr: 0x10000E010, symSize: 0x20 }
  - { offsetInCU: 0x1CA18, offset: 0x4BE27, size: 0x8, addend: 0x0, symName: __ZNSt3__113unordered_mapINS_12basic_stringIcNS_11char_traitsIcEENS_9allocatorIcEEEEdNS_4hashIS6_EENS_8equal_toIS6_EENS4_INS_4pairIKS6_dEEEEED2B8ue170006Ev, symObjAddr: 0x5090, symBinAddr: 0x10000E030, symSize: 0x20 }
  - { offsetInCU: 0x1CA40, offset: 0x4BE4F, size: 0x8, addend: 0x0, symName: __ZNSt3__112__hash_tableINS_17__hash_value_typeINS_12basic_stringIcNS_11char_traitsIcEENS_9allocatorIcEEEEdEENS_22__unordered_map_hasherIS7_S8_NS_4hashIS7_EENS_8equal_toIS7_EELb1EEENS_21__unordered_map_equalIS7_S8_SD_SB_Lb1EEENS5_IS8_EEED1Ev, symObjAddr: 0x50B0, symBinAddr: 0x10000E050, symSize: 0x20 }
  - { offsetInCU: 0x1CA6B, offset: 0x4BE7A, size: 0x8, addend: 0x0, symName: __ZNSt3__112__hash_tableINS_17__hash_value_typeINS_12basic_stringIcNS_11char_traitsIcEENS_9allocatorIcEEEEdEENS_22__unordered_map_hasherIS7_S8_NS_4hashIS7_EENS_8equal_toIS7_EELb1EEENS_21__unordered_map_equalIS7_S8_SD_SB_Lb1EEENS5_IS8_EEED2Ev, symObjAddr: 0x50D0, symBinAddr: 0x10000E070, symSize: 0x40 }
  - { offsetInCU: 0x1CA96, offset: 0x4BEA5, size: 0x8, addend: 0x0, symName: __ZNSt3__112__hash_tableINS_17__hash_value_typeINS_12basic_stringIcNS_11char_traitsIcEENS_9allocatorIcEEEEdEENS_22__unordered_map_hasherIS7_S8_NS_4hashIS7_EENS_8equal_toIS7_EELb1EEENS_21__unordered_map_equalIS7_S8_SD_SB_Lb1EEENS5_IS8_EEE17__deallocate_nodeEPNS_16__hash_node_baseIPNS_11__hash_nodeIS8_PvEEEE, symObjAddr: 0x5110, symBinAddr: 0x10000E0B0, symSize: 0xA0 }
  - { offsetInCU: 0x1CAFE, offset: 0x4BF0D, size: 0x8, addend: 0x0, symName: __ZNSt3__117__compressed_pairINS_16__hash_node_baseIPNS_11__hash_nodeINS_17__hash_value_typeINS_12basic_stringIcNS_11char_traitsIcEENS_9allocatorIcEEEEdEEPvEEEENS7_ISC_EEE5firstB8ue170006Ev, symObjAddr: 0x51B0, symBinAddr: 0x10000E150, symSize: 0x20 }
  - { offsetInCU: 0x1CB22, offset: 0x4BF31, size: 0x8, addend: 0x0, symName: __ZNSt3__110unique_ptrIA_PNS_16__hash_node_baseIPNS_11__hash_nodeINS_17__hash_value_typeINS_12basic_stringIcNS_11char_traitsIcEENS_9allocatorIcEEEEdEEPvEEEENS_25__bucket_list_deallocatorINS7_ISF_EEEEED1B8ue170006Ev, symObjAddr: 0x51D0, symBinAddr: 0x10000E170, symSize: 0x20 }
  - { offsetInCU: 0x1CB4A, offset: 0x4BF59, size: 0x8, addend: 0x0, symName: __ZNSt3__112__hash_tableINS_17__hash_value_typeINS_12basic_stringIcNS_11char_traitsIcEENS_9allocatorIcEEEEdEENS_22__unordered_map_hasherIS7_S8_NS_4hashIS7_EENS_8equal_toIS7_EELb1EEENS_21__unordered_map_equalIS7_S8_SD_SB_Lb1EEENS5_IS8_EEE12__node_allocB8ue170006Ev, symObjAddr: 0x51F0, symBinAddr: 0x10000E190, symSize: 0x20 }
  - { offsetInCU: 0x1CB6E, offset: 0x4BF7D, size: 0x8, addend: 0x0, symName: __ZNSt3__116__hash_node_baseIPNS_11__hash_nodeINS_17__hash_value_typeINS_12basic_stringIcNS_11char_traitsIcEENS_9allocatorIcEEEEdEEPvEEE8__upcastB8ue170006Ev, symObjAddr: 0x5210, symBinAddr: 0x10000E1B0, symSize: 0x20 }
  - { offsetInCU: 0x1CB97, offset: 0x4BFA6, size: 0x8, addend: 0x0, symName: __ZNSt3__116allocator_traitsINS_9allocatorINS_11__hash_nodeINS_17__hash_value_typeINS_12basic_stringIcNS_11char_traitsIcEENS1_IcEEEEdEEPvEEEEE7destroyB8ue170006INS_4pairIKS8_dEEvvEEvRSC_PT_, symObjAddr: 0x5230, symBinAddr: 0x10000E1D0, symSize: 0x20 }
  - { offsetInCU: 0x1CBD1, offset: 0x4BFE0, size: 0x8, addend: 0x0, symName: __ZNSt3__122__hash_key_value_typesINS_17__hash_value_typeINS_12basic_stringIcNS_11char_traitsIcEENS_9allocatorIcEEEEdEEE9__get_ptrB8ue170006ERS8_, symObjAddr: 0x5250, symBinAddr: 0x10000E1F0, symSize: 0x20 }
  - { offsetInCU: 0x1CBF3, offset: 0x4C002, size: 0x8, addend: 0x0, symName: __ZNSt3__116allocator_traitsINS_9allocatorINS_11__hash_nodeINS_17__hash_value_typeINS_12basic_stringIcNS_11char_traitsIcEENS1_IcEEEEdEEPvEEEEE10deallocateB8ue170006ERSC_PSB_m, symObjAddr: 0x5270, symBinAddr: 0x10000E210, symSize: 0x30 }
  - { offsetInCU: 0x1CC34, offset: 0x4C043, size: 0x8, addend: 0x0, symName: __ZNSt3__117__compressed_pairINS_16__hash_node_baseIPNS_11__hash_nodeINS_17__hash_value_typeINS_12basic_stringIcNS_11char_traitsIcEENS_9allocatorIcEEEEdEEPvEEEENS7_ISC_EEE6secondB8ue170006Ev, symObjAddr: 0x52A0, symBinAddr: 0x10000E240, symSize: 0x20 }
  - { offsetInCU: 0x1CC58, offset: 0x4C067, size: 0x8, addend: 0x0, symName: __ZNSt3__122__compressed_pair_elemINS_9allocatorINS_11__hash_nodeINS_17__hash_value_typeINS_12basic_stringIcNS_11char_traitsIcEENS1_IcEEEEdEEPvEEEELi1ELb1EE5__getB8ue170006Ev, symObjAddr: 0x52C0, symBinAddr: 0x10000E260, symSize: 0x10 }
  - { offsetInCU: 0x1CC7C, offset: 0x4C08B, size: 0x8, addend: 0x0, symName: __ZNSt3__114pointer_traitsIPNS_16__hash_node_baseIPNS_11__hash_nodeINS_17__hash_value_typeINS_12basic_stringIcNS_11char_traitsIcEENS_9allocatorIcEEEEdEEPvEEEEE10pointer_toB8ue170006ERSE_, symObjAddr: 0x52D0, symBinAddr: 0x10000E270, symSize: 0x10 }
  - { offsetInCU: 0x1CC9E, offset: 0x4C0AD, size: 0x8, addend: 0x0, symName: __ZNSt3__14pairIKNS_12basic_stringIcNS_11char_traitsIcEENS_9allocatorIcEEEEdED1Ev, symObjAddr: 0x52E0, symBinAddr: 0x10000E280, symSize: 0x20 }
  - { offsetInCU: 0x1CCC9, offset: 0x4C0D8, size: 0x8, addend: 0x0, symName: __ZNSt3__14pairIKNS_12basic_stringIcNS_11char_traitsIcEENS_9allocatorIcEEEEdED2Ev, symObjAddr: 0x5300, symBinAddr: 0x10000E2A0, symSize: 0x20 }
  - { offsetInCU: 0x1CCF4, offset: 0x4C103, size: 0x8, addend: 0x0, symName: __ZNSt3__117__hash_value_typeINS_12basic_stringIcNS_11char_traitsIcEENS_9allocatorIcEEEEdE11__get_valueB8ue170006Ev, symObjAddr: 0x5320, symBinAddr: 0x10000E2C0, symSize: 0x20 }
  - { offsetInCU: 0x1CD18, offset: 0x4C127, size: 0x8, addend: 0x0, symName: __ZNSt3__19allocatorINS_11__hash_nodeINS_17__hash_value_typeINS_12basic_stringIcNS_11char_traitsIcEENS0_IcEEEEdEEPvEEE10deallocateB8ue170006EPSA_m, symObjAddr: 0x5370, symBinAddr: 0x10000E310, symSize: 0x50 }
  - { offsetInCU: 0x1CD58, offset: 0x4C167, size: 0x8, addend: 0x0, symName: __ZNSt3__122__compressed_pair_elemINS_16__hash_node_baseIPNS_11__hash_nodeINS_17__hash_value_typeINS_12basic_stringIcNS_11char_traitsIcEENS_9allocatorIcEEEEdEEPvEEEELi0ELb0EE5__getB8ue170006Ev, symObjAddr: 0x53C0, symBinAddr: 0x10000E360, symSize: 0x10 }
  - { offsetInCU: 0x1CD7C, offset: 0x4C18B, size: 0x8, addend: 0x0, symName: __ZNSt3__110unique_ptrIA_PNS_16__hash_node_baseIPNS_11__hash_nodeINS_17__hash_value_typeINS_12basic_stringIcNS_11char_traitsIcEENS_9allocatorIcEEEEdEEPvEEEENS_25__bucket_list_deallocatorINS7_ISF_EEEEED2B8ue170006Ev, symObjAddr: 0x53D0, symBinAddr: 0x10000E370, symSize: 0x20 }
  - { offsetInCU: 0x1CDA4, offset: 0x4C1B3, size: 0x8, addend: 0x0, symName: __ZNSt3__110unique_ptrIA_PNS_16__hash_node_baseIPNS_11__hash_nodeINS_17__hash_value_typeINS_12basic_stringIcNS_11char_traitsIcEENS_9allocatorIcEEEEdEEPvEEEENS_25__bucket_list_deallocatorINS7_ISF_EEEEE5resetB8ue170006EDn, symObjAddr: 0x53F0, symBinAddr: 0x10000E390, symSize: 0x60 }
  - { offsetInCU: 0x1CDE3, offset: 0x4C1F2, size: 0x8, addend: 0x0, symName: __ZNSt3__117__compressed_pairIPPNS_16__hash_node_baseIPNS_11__hash_nodeINS_17__hash_value_typeINS_12basic_stringIcNS_11char_traitsIcEENS_9allocatorIcEEEEdEEPvEEEENS_25__bucket_list_deallocatorINS7_ISF_EEEEE5firstB8ue170006Ev, symObjAddr: 0x5450, symBinAddr: 0x10000E3F0, symSize: 0x20 }
  - { offsetInCU: 0x1CE07, offset: 0x4C216, size: 0x8, addend: 0x0, symName: __ZNSt3__117__compressed_pairIPPNS_16__hash_node_baseIPNS_11__hash_nodeINS_17__hash_value_typeINS_12basic_stringIcNS_11char_traitsIcEENS_9allocatorIcEEEEdEEPvEEEENS_25__bucket_list_deallocatorINS7_ISF_EEEEE6secondB8ue170006Ev, symObjAddr: 0x5470, symBinAddr: 0x10000E410, symSize: 0x20 }
  - { offsetInCU: 0x1CE2B, offset: 0x4C23A, size: 0x8, addend: 0x0, symName: __ZNSt3__125__bucket_list_deallocatorINS_9allocatorIPNS_16__hash_node_baseIPNS_11__hash_nodeINS_17__hash_value_typeINS_12basic_stringIcNS_11char_traitsIcEENS1_IcEEEEdEEPvEEEEEEEclB8ue170006EPSF_, symObjAddr: 0x5490, symBinAddr: 0x10000E430, symSize: 0x50 }
  - { offsetInCU: 0x1CE5E, offset: 0x4C26D, size: 0x8, addend: 0x0, symName: __ZNSt3__122__compressed_pair_elemIPPNS_16__hash_node_baseIPNS_11__hash_nodeINS_17__hash_value_typeINS_12basic_stringIcNS_11char_traitsIcEENS_9allocatorIcEEEEdEEPvEEEELi0ELb0EE5__getB8ue170006Ev, symObjAddr: 0x54E0, symBinAddr: 0x10000E480, symSize: 0x10 }
  - { offsetInCU: 0x1CE82, offset: 0x4C291, size: 0x8, addend: 0x0, symName: __ZNSt3__122__compressed_pair_elemINS_25__bucket_list_deallocatorINS_9allocatorIPNS_16__hash_node_baseIPNS_11__hash_nodeINS_17__hash_value_typeINS_12basic_stringIcNS_11char_traitsIcEENS2_IcEEEEdEEPvEEEEEEEELi1ELb0EE5__getB8ue170006Ev, symObjAddr: 0x54F0, symBinAddr: 0x10000E490, symSize: 0x10 }
  - { offsetInCU: 0x1CEA6, offset: 0x4C2B5, size: 0x8, addend: 0x0, symName: __ZNSt3__116allocator_traitsINS_9allocatorIPNS_16__hash_node_baseIPNS_11__hash_nodeINS_17__hash_value_typeINS_12basic_stringIcNS_11char_traitsIcEENS1_IcEEEEdEEPvEEEEEEE10deallocateB8ue170006ERSG_PSF_m, symObjAddr: 0x5500, symBinAddr: 0x10000E4A0, symSize: 0x30 }
  - { offsetInCU: 0x1CEE7, offset: 0x4C2F6, size: 0x8, addend: 0x0, symName: __ZNSt3__125__bucket_list_deallocatorINS_9allocatorIPNS_16__hash_node_baseIPNS_11__hash_nodeINS_17__hash_value_typeINS_12basic_stringIcNS_11char_traitsIcEENS1_IcEEEEdEEPvEEEEEEE7__allocB8ue170006Ev, symObjAddr: 0x5530, symBinAddr: 0x10000E4D0, symSize: 0x20 }
  - { offsetInCU: 0x1CF0B, offset: 0x4C31A, size: 0x8, addend: 0x0, symName: __ZNSt3__125__bucket_list_deallocatorINS_9allocatorIPNS_16__hash_node_baseIPNS_11__hash_nodeINS_17__hash_value_typeINS_12basic_stringIcNS_11char_traitsIcEENS1_IcEEEEdEEPvEEEEEEE4sizeB8ue170006Ev, symObjAddr: 0x5550, symBinAddr: 0x10000E4F0, symSize: 0x20 }
  - { offsetInCU: 0x1CF2F, offset: 0x4C33E, size: 0x8, addend: 0x0, symName: __ZNSt3__19allocatorIPNS_16__hash_node_baseIPNS_11__hash_nodeINS_17__hash_value_typeINS_12basic_stringIcNS_11char_traitsIcEENS0_IcEEEEdEEPvEEEEE10deallocateB8ue170006EPSE_m, symObjAddr: 0x5570, symBinAddr: 0x10000E510, symSize: 0x40 }
  - { offsetInCU: 0x1CF6F, offset: 0x4C37E, size: 0x8, addend: 0x0, symName: __ZNSt3__117__compressed_pairImNS_9allocatorIPNS_16__hash_node_baseIPNS_11__hash_nodeINS_17__hash_value_typeINS_12basic_stringIcNS_11char_traitsIcEENS1_IcEEEEdEEPvEEEEEEE6secondB8ue170006Ev, symObjAddr: 0x55B0, symBinAddr: 0x10000E550, symSize: 0x20 }
  - { offsetInCU: 0x1CF93, offset: 0x4C3A2, size: 0x8, addend: 0x0, symName: __ZNSt3__122__compressed_pair_elemINS_9allocatorIPNS_16__hash_node_baseIPNS_11__hash_nodeINS_17__hash_value_typeINS_12basic_stringIcNS_11char_traitsIcEENS1_IcEEEEdEEPvEEEEEELi1ELb1EE5__getB8ue170006Ev, symObjAddr: 0x55D0, symBinAddr: 0x10000E570, symSize: 0x10 }
  - { offsetInCU: 0x1CFB7, offset: 0x4C3C6, size: 0x8, addend: 0x0, symName: __ZNSt3__117__compressed_pairImNS_9allocatorIPNS_16__hash_node_baseIPNS_11__hash_nodeINS_17__hash_value_typeINS_12basic_stringIcNS_11char_traitsIcEENS1_IcEEEEdEEPvEEEEEEE5firstB8ue170006Ev, symObjAddr: 0x55E0, symBinAddr: 0x10000E580, symSize: 0x20 }
  - { offsetInCU: 0x1CFDB, offset: 0x4C3EA, size: 0x8, addend: 0x0, symName: __ZNSt3__113unordered_mapINS_12basic_stringIcNS_11char_traitsIcEENS_9allocatorIcEEEE9RateCurveNS_4hashIS6_EENS_8equal_toIS6_EENS4_INS_4pairIKS6_S7_EEEEED2B8ue170006Ev, symObjAddr: 0x5610, symBinAddr: 0x10000E5A0, symSize: 0x20 }
  - { offsetInCU: 0x1D003, offset: 0x4C412, size: 0x8, addend: 0x0, symName: __ZNSt3__112__hash_tableINS_17__hash_value_typeINS_12basic_stringIcNS_11char_traitsIcEENS_9allocatorIcEEEE9RateCurveEENS_22__unordered_map_hasherIS7_S9_NS_4hashIS7_EENS_8equal_toIS7_EELb1EEENS_21__unordered_map_equalIS7_S9_SE_SC_Lb1EEENS5_IS9_EEED1Ev, symObjAddr: 0x5630, symBinAddr: 0x10000E5C0, symSize: 0x20 }
  - { offsetInCU: 0x1D02E, offset: 0x4C43D, size: 0x8, addend: 0x0, symName: __ZNSt3__112__hash_tableINS_17__hash_value_typeINS_12basic_stringIcNS_11char_traitsIcEENS_9allocatorIcEEEE9RateCurveEENS_22__unordered_map_hasherIS7_S9_NS_4hashIS7_EENS_8equal_toIS7_EELb1EEENS_21__unordered_map_equalIS7_S9_SE_SC_Lb1EEENS5_IS9_EEED2Ev, symObjAddr: 0x5650, symBinAddr: 0x10000E5E0, symSize: 0x40 }
  - { offsetInCU: 0x1D059, offset: 0x4C468, size: 0x8, addend: 0x0, symName: __ZNSt3__112__hash_tableINS_17__hash_value_typeINS_12basic_stringIcNS_11char_traitsIcEENS_9allocatorIcEEEE9RateCurveEENS_22__unordered_map_hasherIS7_S9_NS_4hashIS7_EENS_8equal_toIS7_EELb1EEENS_21__unordered_map_equalIS7_S9_SE_SC_Lb1EEENS5_IS9_EEE17__deallocate_nodeEPNS_16__hash_node_baseIPNS_11__hash_nodeIS9_PvEEEE, symObjAddr: 0x5690, symBinAddr: 0x10000E620, symSize: 0xA0 }
  - { offsetInCU: 0x1D0C1, offset: 0x4C4D0, size: 0x8, addend: 0x0, symName: __ZNSt3__110unique_ptrIA_PNS_16__hash_node_baseIPNS_11__hash_nodeINS_17__hash_value_typeINS_12basic_stringIcNS_11char_traitsIcEENS_9allocatorIcEEEE9RateCurveEEPvEEEENS_25__bucket_list_deallocatorINS7_ISG_EEEEED1B8ue170006Ev, symObjAddr: 0x5750, symBinAddr: 0x10000E6C0, symSize: 0x20 }
  - { offsetInCU: 0x1D0E9, offset: 0x4C4F8, size: 0x8, addend: 0x0, symName: __ZNSt3__110unique_ptrIA_PNS_16__hash_node_baseIPNS_11__hash_nodeINS_17__hash_value_typeINS_12basic_stringIcNS_11char_traitsIcEENS_9allocatorIcEEEE9RateCurveEEPvEEEENS_25__bucket_list_deallocatorINS7_ISG_EEEEED2B8ue170006Ev, symObjAddr: 0x5E50, symBinAddr: 0x10000E6E0, symSize: 0x20 }
  - { offsetInCU: 0x1D111, offset: 0x4C520, size: 0x8, addend: 0x0, symName: __ZNSt3__110unique_ptrIA_PNS_16__hash_node_baseIPNS_11__hash_nodeINS_17__hash_value_typeINS_12basic_stringIcNS_11char_traitsIcEENS_9allocatorIcEEEE9RateCurveEEPvEEEENS_25__bucket_list_deallocatorINS7_ISG_EEEEE5resetB8ue170006EDn, symObjAddr: 0x5E70, symBinAddr: 0x10000E700, symSize: 0x60 }
  - { offsetInCU: 0x1D150, offset: 0x4C55F, size: 0x8, addend: 0x0, symName: __ZNSt3__113unordered_mapINS_12basic_stringIcNS_11char_traitsIcEENS_9allocatorIcEEEE8VolCurveNS_4hashIS6_EENS_8equal_toIS6_EENS4_INS_4pairIKS6_S7_EEEEED2B8ue170006Ev, symObjAddr: 0x6080, symBinAddr: 0x10000E760, symSize: 0x20 }
  - { offsetInCU: 0x1D178, offset: 0x4C587, size: 0x8, addend: 0x0, symName: __ZNSt3__112__hash_tableINS_17__hash_value_typeINS_12basic_stringIcNS_11char_traitsIcEENS_9allocatorIcEEEE8VolCurveEENS_22__unordered_map_hasherIS7_S9_NS_4hashIS7_EENS_8equal_toIS7_EELb1EEENS_21__unordered_map_equalIS7_S9_SE_SC_Lb1EEENS5_IS9_EEED1Ev, symObjAddr: 0x60A0, symBinAddr: 0x10000E780, symSize: 0x20 }
  - { offsetInCU: 0x1D1A3, offset: 0x4C5B2, size: 0x8, addend: 0x0, symName: __ZNSt3__112__hash_tableINS_17__hash_value_typeINS_12basic_stringIcNS_11char_traitsIcEENS_9allocatorIcEEEE8VolCurveEENS_22__unordered_map_hasherIS7_S9_NS_4hashIS7_EENS_8equal_toIS7_EELb1EEENS_21__unordered_map_equalIS7_S9_SE_SC_Lb1EEENS5_IS9_EEED2Ev, symObjAddr: 0x60C0, symBinAddr: 0x10000E7A0, symSize: 0x40 }
  - { offsetInCU: 0x1D1CE, offset: 0x4C5DD, size: 0x8, addend: 0x0, symName: __ZNSt3__112__hash_tableINS_17__hash_value_typeINS_12basic_stringIcNS_11char_traitsIcEENS_9allocatorIcEEEE8VolCurveEENS_22__unordered_map_hasherIS7_S9_NS_4hashIS7_EENS_8equal_toIS7_EELb1EEENS_21__unordered_map_equalIS7_S9_SE_SC_Lb1EEENS5_IS9_EEE17__deallocate_nodeEPNS_16__hash_node_baseIPNS_11__hash_nodeIS9_PvEEEE, symObjAddr: 0x6100, symBinAddr: 0x10000E7E0, symSize: 0xA0 }
  - { offsetInCU: 0x1D236, offset: 0x4C645, size: 0x8, addend: 0x0, symName: __ZNSt3__117__compressed_pairINS_16__hash_node_baseIPNS_11__hash_nodeINS_17__hash_value_typeINS_12basic_stringIcNS_11char_traitsIcEENS_9allocatorIcEEEE8VolCurveEEPvEEEENS7_ISD_EEE5firstB8ue170006Ev, symObjAddr: 0x61A0, symBinAddr: 0x10000E880, symSize: 0x20 }
  - { offsetInCU: 0x1D25A, offset: 0x4C669, size: 0x8, addend: 0x0, symName: __ZNSt3__110unique_ptrIA_PNS_16__hash_node_baseIPNS_11__hash_nodeINS_17__hash_value_typeINS_12basic_stringIcNS_11char_traitsIcEENS_9allocatorIcEEEE8VolCurveEEPvEEEENS_25__bucket_list_deallocatorINS7_ISG_EEEEED1B8ue170006Ev, symObjAddr: 0x61C0, symBinAddr: 0x10000E8A0, symSize: 0x20 }
  - { offsetInCU: 0x1D282, offset: 0x4C691, size: 0x8, addend: 0x0, symName: __ZNSt3__112__hash_tableINS_17__hash_value_typeINS_12basic_stringIcNS_11char_traitsIcEENS_9allocatorIcEEEE8VolCurveEENS_22__unordered_map_hasherIS7_S9_NS_4hashIS7_EENS_8equal_toIS7_EELb1EEENS_21__unordered_map_equalIS7_S9_SE_SC_Lb1EEENS5_IS9_EEE12__node_allocB8ue170006Ev, symObjAddr: 0x61E0, symBinAddr: 0x10000E8C0, symSize: 0x20 }
  - { offsetInCU: 0x1D2AB, offset: 0x4C6BA, size: 0x8, addend: 0x0, symName: __ZNSt3__116allocator_traitsINS_9allocatorINS_11__hash_nodeINS_17__hash_value_typeINS_12basic_stringIcNS_11char_traitsIcEENS1_IcEEEE8VolCurveEEPvEEEEE7destroyB8ue170006INS_4pairIKS8_S9_EEvvEEvRSD_PT_, symObjAddr: 0x6220, symBinAddr: 0x10000E8E0, symSize: 0x20 }
  - { offsetInCU: 0x1D2E5, offset: 0x4C6F4, size: 0x8, addend: 0x0, symName: __ZNSt3__122__hash_key_value_typesINS_17__hash_value_typeINS_12basic_stringIcNS_11char_traitsIcEENS_9allocatorIcEEEE8VolCurveEEE9__get_ptrB8ue170006ERS9_, symObjAddr: 0x6240, symBinAddr: 0x10000E900, symSize: 0x20 }
  - { offsetInCU: 0x1D307, offset: 0x4C716, size: 0x8, addend: 0x0, symName: __ZNSt3__116allocator_traitsINS_9allocatorINS_11__hash_nodeINS_17__hash_value_typeINS_12basic_stringIcNS_11char_traitsIcEENS1_IcEEEE8VolCurveEEPvEEEEE10deallocateB8ue170006ERSD_PSC_m, symObjAddr: 0x6260, symBinAddr: 0x10000E920, symSize: 0x30 }
  - { offsetInCU: 0x1D348, offset: 0x4C757, size: 0x8, addend: 0x0, symName: __ZNSt3__117__compressed_pairINS_16__hash_node_baseIPNS_11__hash_nodeINS_17__hash_value_typeINS_12basic_stringIcNS_11char_traitsIcEENS_9allocatorIcEEEE8VolCurveEEPvEEEENS7_ISD_EEE6secondB8ue170006Ev, symObjAddr: 0x6290, symBinAddr: 0x10000E950, symSize: 0x20 }
  - { offsetInCU: 0x1D36C, offset: 0x4C77B, size: 0x8, addend: 0x0, symName: __ZNSt3__122__compressed_pair_elemINS_9allocatorINS_11__hash_nodeINS_17__hash_value_typeINS_12basic_stringIcNS_11char_traitsIcEENS1_IcEEEE8VolCurveEEPvEEEELi1ELb1EE5__getB8ue170006Ev, symObjAddr: 0x62B0, symBinAddr: 0x10000E970, symSize: 0x10 }
  - { offsetInCU: 0x1D390, offset: 0x4C79F, size: 0x8, addend: 0x0, symName: __ZNSt3__117__hash_value_typeINS_12basic_stringIcNS_11char_traitsIcEENS_9allocatorIcEEEE8VolCurveE11__get_valueB8ue170006Ev, symObjAddr: 0x6380, symBinAddr: 0x10000E980, symSize: 0x20 }
  - { offsetInCU: 0x1D3B4, offset: 0x4C7C3, size: 0x8, addend: 0x0, symName: __ZNSt3__19allocatorINS_11__hash_nodeINS_17__hash_value_typeINS_12basic_stringIcNS_11char_traitsIcEENS0_IcEEEE8VolCurveEEPvEEE10deallocateB8ue170006EPSB_m, symObjAddr: 0x63D0, symBinAddr: 0x10000E9D0, symSize: 0x40 }
  - { offsetInCU: 0x1D3F4, offset: 0x4C803, size: 0x8, addend: 0x0, symName: __ZNSt3__122__compressed_pair_elemINS_16__hash_node_baseIPNS_11__hash_nodeINS_17__hash_value_typeINS_12basic_stringIcNS_11char_traitsIcEENS_9allocatorIcEEEE8VolCurveEEPvEEEELi0ELb0EE5__getB8ue170006Ev, symObjAddr: 0x6410, symBinAddr: 0x10000EA10, symSize: 0x10 }
  - { offsetInCU: 0x1D418, offset: 0x4C827, size: 0x8, addend: 0x0, symName: __ZNSt3__110unique_ptrIA_PNS_16__hash_node_baseIPNS_11__hash_nodeINS_17__hash_value_typeINS_12basic_stringIcNS_11char_traitsIcEENS_9allocatorIcEEEE8VolCurveEEPvEEEENS_25__bucket_list_deallocatorINS7_ISG_EEEEED2B8ue170006Ev, symObjAddr: 0x6420, symBinAddr: 0x10000EA20, symSize: 0x20 }
  - { offsetInCU: 0x1D440, offset: 0x4C84F, size: 0x8, addend: 0x0, symName: __ZNSt3__110unique_ptrIA_PNS_16__hash_node_baseIPNS_11__hash_nodeINS_17__hash_value_typeINS_12basic_stringIcNS_11char_traitsIcEENS_9allocatorIcEEEE8VolCurveEEPvEEEENS_25__bucket_list_deallocatorINS7_ISG_EEEEE5resetB8ue170006EDn, symObjAddr: 0x6440, symBinAddr: 0x10000EA40, symSize: 0x60 }
  - { offsetInCU: 0x1D47F, offset: 0x4C88E, size: 0x8, addend: 0x0, symName: __ZNSt3__117__compressed_pairIPPNS_16__hash_node_baseIPNS_11__hash_nodeINS_17__hash_value_typeINS_12basic_stringIcNS_11char_traitsIcEENS_9allocatorIcEEEE8VolCurveEEPvEEEENS_25__bucket_list_deallocatorINS7_ISG_EEEEE5firstB8ue170006Ev, symObjAddr: 0x64A0, symBinAddr: 0x10000EAA0, symSize: 0x20 }
  - { offsetInCU: 0x1D4A3, offset: 0x4C8B2, size: 0x8, addend: 0x0, symName: __ZNSt3__117__compressed_pairIPPNS_16__hash_node_baseIPNS_11__hash_nodeINS_17__hash_value_typeINS_12basic_stringIcNS_11char_traitsIcEENS_9allocatorIcEEEE8VolCurveEEPvEEEENS_25__bucket_list_deallocatorINS7_ISG_EEEEE6secondB8ue170006Ev, symObjAddr: 0x64C0, symBinAddr: 0x10000EAC0, symSize: 0x20 }
  - { offsetInCU: 0x1D4C7, offset: 0x4C8D6, size: 0x8, addend: 0x0, symName: __ZNSt3__125__bucket_list_deallocatorINS_9allocatorIPNS_16__hash_node_baseIPNS_11__hash_nodeINS_17__hash_value_typeINS_12basic_stringIcNS_11char_traitsIcEENS1_IcEEEE8VolCurveEEPvEEEEEEEclB8ue170006EPSG_, symObjAddr: 0x64E0, symBinAddr: 0x10000EAE0, symSize: 0x50 }
  - { offsetInCU: 0x1D4FA, offset: 0x4C909, size: 0x8, addend: 0x0, symName: __ZNSt3__122__compressed_pair_elemIPPNS_16__hash_node_baseIPNS_11__hash_nodeINS_17__hash_value_typeINS_12basic_stringIcNS_11char_traitsIcEENS_9allocatorIcEEEE8VolCurveEEPvEEEELi0ELb0EE5__getB8ue170006Ev, symObjAddr: 0x6530, symBinAddr: 0x10000EB30, symSize: 0x10 }
  - { offsetInCU: 0x1D51E, offset: 0x4C92D, size: 0x8, addend: 0x0, symName: __ZNSt3__122__compressed_pair_elemINS_25__bucket_list_deallocatorINS_9allocatorIPNS_16__hash_node_baseIPNS_11__hash_nodeINS_17__hash_value_typeINS_12basic_stringIcNS_11char_traitsIcEENS2_IcEEEE8VolCurveEEPvEEEEEEEELi1ELb0EE5__getB8ue170006Ev, symObjAddr: 0x6540, symBinAddr: 0x10000EB40, symSize: 0x10 }
  - { offsetInCU: 0x1D542, offset: 0x4C951, size: 0x8, addend: 0x0, symName: __ZNSt3__116allocator_traitsINS_9allocatorIPNS_16__hash_node_baseIPNS_11__hash_nodeINS_17__hash_value_typeINS_12basic_stringIcNS_11char_traitsIcEENS1_IcEEEE8VolCurveEEPvEEEEEEE10deallocateB8ue170006ERSH_PSG_m, symObjAddr: 0x6550, symBinAddr: 0x10000EB50, symSize: 0x30 }
  - { offsetInCU: 0x1D583, offset: 0x4C992, size: 0x8, addend: 0x0, symName: __ZNSt3__125__bucket_list_deallocatorINS_9allocatorIPNS_16__hash_node_baseIPNS_11__hash_nodeINS_17__hash_value_typeINS_12basic_stringIcNS_11char_traitsIcEENS1_IcEEEE8VolCurveEEPvEEEEEEE7__allocB8ue170006Ev, symObjAddr: 0x6580, symBinAddr: 0x10000EB80, symSize: 0x20 }
  - { offsetInCU: 0x1D5A7, offset: 0x4C9B6, size: 0x8, addend: 0x0, symName: __ZNSt3__125__bucket_list_deallocatorINS_9allocatorIPNS_16__hash_node_baseIPNS_11__hash_nodeINS_17__hash_value_typeINS_12basic_stringIcNS_11char_traitsIcEENS1_IcEEEE8VolCurveEEPvEEEEEEE4sizeB8ue170006Ev, symObjAddr: 0x65A0, symBinAddr: 0x10000EBA0, symSize: 0x20 }
  - { offsetInCU: 0x1D5CB, offset: 0x4C9DA, size: 0x8, addend: 0x0, symName: __ZNSt3__19allocatorIPNS_16__hash_node_baseIPNS_11__hash_nodeINS_17__hash_value_typeINS_12basic_stringIcNS_11char_traitsIcEENS0_IcEEEE8VolCurveEEPvEEEEE10deallocateB8ue170006EPSF_m, symObjAddr: 0x65C0, symBinAddr: 0x10000EBC0, symSize: 0x40 }
  - { offsetInCU: 0x1D60B, offset: 0x4CA1A, size: 0x8, addend: 0x0, symName: __ZNSt3__117__compressed_pairImNS_9allocatorIPNS_16__hash_node_baseIPNS_11__hash_nodeINS_17__hash_value_typeINS_12basic_stringIcNS_11char_traitsIcEENS1_IcEEEE8VolCurveEEPvEEEEEEE6secondB8ue170006Ev, symObjAddr: 0x6600, symBinAddr: 0x10000EC00, symSize: 0x20 }
  - { offsetInCU: 0x1D62F, offset: 0x4CA3E, size: 0x8, addend: 0x0, symName: __ZNSt3__122__compressed_pair_elemINS_9allocatorIPNS_16__hash_node_baseIPNS_11__hash_nodeINS_17__hash_value_typeINS_12basic_stringIcNS_11char_traitsIcEENS1_IcEEEE8VolCurveEEPvEEEEEELi1ELb1EE5__getB8ue170006Ev, symObjAddr: 0x6620, symBinAddr: 0x10000EC20, symSize: 0x10 }
  - { offsetInCU: 0x1D653, offset: 0x4CA62, size: 0x8, addend: 0x0, symName: __ZNSt3__117__compressed_pairImNS_9allocatorIPNS_16__hash_node_baseIPNS_11__hash_nodeINS_17__hash_value_typeINS_12basic_stringIcNS_11char_traitsIcEENS1_IcEEEE8VolCurveEEPvEEEEEEE5firstB8ue170006Ev, symObjAddr: 0x6630, symBinAddr: 0x10000EC30, symSize: 0x20 }
  - { offsetInCU: 0x1D677, offset: 0x4CA86, size: 0x8, addend: 0x0, symName: __ZNSt3__112basic_stringIcNS_11char_traitsIcEENS_9allocatorIcEEEC2B8ue170006Ev, symObjAddr: 0x6650, symBinAddr: 0x10000EC50, symSize: 0x50 }
  - { offsetInCU: 0x1D69F, offset: 0x4CAAE, size: 0x8, addend: 0x0, symName: __ZNSt3__112basic_stringIcNS_11char_traitsIcEENS_9allocatorIcEEE14__default_initB8ue170006Ev, symObjAddr: 0x66A0, symBinAddr: 0x10000ECA0, symSize: 0x50 }
  - { offsetInCU: 0x1D6C3, offset: 0x4CAD2, size: 0x8, addend: 0x0, symName: __ZNSt3__19basic_iosIcNS_11char_traitsIcEEEC2B8ue170006Ev, symObjAddr: 0x6720, symBinAddr: 0x10000ECF0, symSize: 0x40 }
  - { offsetInCU: 0x1D6EB, offset: 0x4CAFA, size: 0x8, addend: 0x0, symName: __ZNSt3__113basic_istreamIcNS_11char_traitsIcEEEC2B8ue170006EPNS_15basic_streambufIcS2_EE, symObjAddr: 0x6760, symBinAddr: 0x10000ED30, symSize: 0x50 }
  - { offsetInCU: 0x1D72D, offset: 0x4CB3C, size: 0x8, addend: 0x0, symName: __ZNSt3__113basic_filebufIcNS_11char_traitsIcEEE4openERKNS_12basic_stringIcS2_NS_9allocatorIcEEEEj, symObjAddr: 0x67B0, symBinAddr: 0x10000ED80, symSize: 0x40 }
  - { offsetInCU: 0x1D76F, offset: 0x4CB7E, size: 0x8, addend: 0x0, symName: __ZNSt3__18ios_baseC2B8ue170006Ev, symObjAddr: 0x6820, symBinAddr: 0x10000EDC0, symSize: 0x20 }
  - { offsetInCU: 0x1D797, offset: 0x4CBA6, size: 0x8, addend: 0x0, symName: __ZNSt3__19basic_iosIcNS_11char_traitsIcEEE4initB8ue170006EPNS_15basic_streambufIcS2_EE, symObjAddr: 0x6840, symBinAddr: 0x10000EDE0, symSize: 0x50 }
  - { offsetInCU: 0x1D7CC, offset: 0x4CBDB, size: 0x8, addend: 0x0, symName: __ZNKSt3__112basic_stringIcNS_11char_traitsIcEENS_9allocatorIcEEE5c_strB8ue170006Ev, symObjAddr: 0x68A0, symBinAddr: 0x10000EE30, symSize: 0x20 }
  - { offsetInCU: 0x1D80E, offset: 0x4CC1D, size: 0x8, addend: 0x0, symName: __ZNKSt3__113basic_istreamIcNS_11char_traitsIcEEE6sentrycvbB8ue170006Ev, symObjAddr: 0x6CE0, symBinAddr: 0x10000F070, symSize: 0x20 }
  - { offsetInCU: 0x1D832, offset: 0x4CC41, size: 0x8, addend: 0x0, symName: __ZNSt3__112basic_stringIcNS_11char_traitsIcEENS_9allocatorIcEEE5clearB8ue170006Ev, symObjAddr: 0x6D00, symBinAddr: 0x10000F090, symSize: 0x80 }
  - { offsetInCU: 0x1D858, offset: 0x4CC67, size: 0x8, addend: 0x0, symName: __ZNSt3__115basic_streambufIcNS_11char_traitsIcEEE6sbumpcB8ue170006Ev, symObjAddr: 0x6DA0, symBinAddr: 0x10000F110, symSize: 0x60 }
  - { offsetInCU: 0x1D87C, offset: 0x4CC8B, size: 0x8, addend: 0x0, symName: __ZNSt3__111char_traitsIcE12to_char_typeB8ue170006Ei, symObjAddr: 0x6E20, symBinAddr: 0x10000F170, symSize: 0x10 }
  - { offsetInCU: 0x1D89E, offset: 0x4CCAD, size: 0x8, addend: 0x0, symName: __ZNSt3__111char_traitsIcE2eqEcc, symObjAddr: 0x6E30, symBinAddr: 0x10000F180, symSize: 0x30 }
  - { offsetInCU: 0x1D8CE, offset: 0x4CCDD, size: 0x8, addend: 0x0, symName: __ZNKSt3__112basic_stringIcNS_11char_traitsIcEENS_9allocatorIcEEE8max_sizeB8ue170006Ev, symObjAddr: 0x6EB0, symBinAddr: 0x10000F1B0, symSize: 0xA0 }
  - { offsetInCU: 0x1D91F, offset: 0x4CD2E, size: 0x8, addend: 0x0, symName: __ZNSt3__18ios_base18__setstate_nothrowB8ue170006Ej, symObjAddr: 0x6F50, symBinAddr: 0x10000F250, symSize: 0x50 }
  - { offsetInCU: 0x1D952, offset: 0x4CD61, size: 0x8, addend: 0x0, symName: __ZNKSt3__19basic_iosIcNS_11char_traitsIcEEE10exceptionsB8ue170006Ev, symObjAddr: 0x6FA0, symBinAddr: 0x10000F2A0, symSize: 0x20 }
  - { offsetInCU: 0x1D976, offset: 0x4CD85, size: 0x8, addend: 0x0, symName: __ZNSt3__111char_traitsIcE6assignB8ue170006ERcRKc, symObjAddr: 0x6FC0, symBinAddr: 0x10000F2C0, symSize: 0x20 }
  - { offsetInCU: 0x1D9A6, offset: 0x4CDB5, size: 0x8, addend: 0x0, symName: __ZNSt3__112basic_stringIcNS_11char_traitsIcEENS_9allocatorIcEEE15__set_long_sizeB8ue170006Em, symObjAddr: 0x7000, symBinAddr: 0x10000F2E0, symSize: 0x30 }
  - { offsetInCU: 0x1D9D9, offset: 0x4CDE8, size: 0x8, addend: 0x0, symName: __ZNSt3__112basic_stringIcNS_11char_traitsIcEENS_9allocatorIcEEE16__set_short_sizeB8ue170006Em, symObjAddr: 0x7060, symBinAddr: 0x10000F310, symSize: 0x50 }
  - { offsetInCU: 0x1DA0C, offset: 0x4CE1B, size: 0x8, addend: 0x0, symName: __ZNSt3__111char_traitsIcE11to_int_typeB8ue170006Ec, symObjAddr: 0x70E0, symBinAddr: 0x10000F360, symSize: 0x10 }
  - { offsetInCU: 0x1DA39, offset: 0x4CE48, size: 0x8, addend: 0x0, symName: __ZNSt3__116allocator_traitsINS_9allocatorIcEEE8max_sizeB8ue170006IS2_vEEmRKS2_, symObjAddr: 0x7140, symBinAddr: 0x10000F370, symSize: 0x20 }
  - { offsetInCU: 0x1DA66, offset: 0x4CE75, size: 0x8, addend: 0x0, symName: __ZNKSt3__112basic_stringIcNS_11char_traitsIcEENS_9allocatorIcEEE7__allocB8ue170006Ev, symObjAddr: 0x7160, symBinAddr: 0x10000F390, symSize: 0x20 }
  - { offsetInCU: 0x1DA8A, offset: 0x4CE99, size: 0x8, addend: 0x0, symName: __ZNSt3__114numeric_limitsImE3maxB8ue170006Ev, symObjAddr: 0x7180, symBinAddr: 0x10000F3B0, symSize: 0x10 }
  - { offsetInCU: 0x1DA9D, offset: 0x4CEAC, size: 0x8, addend: 0x0, symName: __ZNKSt3__19allocatorIcE8max_sizeB8ue170006Ev, symObjAddr: 0x7190, symBinAddr: 0x10000F3C0, symSize: 0x20 }
  - { offsetInCU: 0x1DAC1, offset: 0x4CED0, size: 0x8, addend: 0x0, symName: __ZNKSt3__117__compressed_pairINS_12basic_stringIcNS_11char_traitsIcEENS_9allocatorIcEEE5__repES5_E6secondB8ue170006Ev, symObjAddr: 0x71B0, symBinAddr: 0x10000F3E0, symSize: 0x20 }
  - { offsetInCU: 0x1DAE5, offset: 0x4CEF4, size: 0x8, addend: 0x0, symName: __ZNKSt3__122__compressed_pair_elemINS_9allocatorIcEELi1ELb1EE5__getB8ue170006Ev, symObjAddr: 0x71D0, symBinAddr: 0x10000F400, symSize: 0x10 }
  - { offsetInCU: 0x1DB09, offset: 0x4CF18, size: 0x8, addend: 0x0, symName: __ZNSt3__123__libcpp_numeric_limitsImLb1EE3maxB8ue170006Ev, symObjAddr: 0x71E0, symBinAddr: 0x10000F410, symSize: 0x10 }
  - { offsetInCU: 0x1DB1C, offset: 0x4CF2B, size: 0x8, addend: 0x0, symName: __ZNKSt3__18ios_base10exceptionsB8ue170006Ev, symObjAddr: 0x71F0, symBinAddr: 0x10000F420, symSize: 0x20 }
  - { offsetInCU: 0x1DB42, offset: 0x4CF51, size: 0x8, addend: 0x0, symName: __ZNKSt3__19basic_iosIcNS_11char_traitsIcEEE4failB8ue170006Ev, symObjAddr: 0x7270, symBinAddr: 0x10000F440, symSize: 0x20 }
  - { offsetInCU: 0x1DB66, offset: 0x4CF75, size: 0x8, addend: 0x0, symName: __ZNKSt3__18ios_base4failB8ue170006Ev, symObjAddr: 0x7290, symBinAddr: 0x10000F460, symSize: 0x20 }
  - { offsetInCU: 0x1DB8C, offset: 0x4CF9B, size: 0x8, addend: 0x0, symName: __ZNSt3__16vectorIP5TradeNS_9allocatorIS2_EEEC2B8ue170006Ev, symObjAddr: 0x72B0, symBinAddr: 0x10000F480, symSize: 0x50 }
  - { offsetInCU: 0x1DBB4, offset: 0x4CFC3, size: 0x8, addend: 0x0, symName: __ZNSt3__117__compressed_pairIPP5TradeNS_9allocatorIS2_EEEC1B8ue170006IDnNS_18__default_init_tagEEEOT_OT0_, symObjAddr: 0x7300, symBinAddr: 0x10000F4D0, symSize: 0x30 }
  - { offsetInCU: 0x1DC0A, offset: 0x4D019, size: 0x8, addend: 0x0, symName: __ZNSt3__117__compressed_pairIPP5TradeNS_9allocatorIS2_EEEC2B8ue170006IDnNS_18__default_init_tagEEEOT_OT0_, symObjAddr: 0x7330, symBinAddr: 0x10000F500, symSize: 0x40 }
  - { offsetInCU: 0x1DC60, offset: 0x4D06F, size: 0x8, addend: 0x0, symName: __ZNSt3__122__compressed_pair_elemIPP5TradeLi0ELb0EEC2B8ue170006IDnvEEOT_, symObjAddr: 0x7370, symBinAddr: 0x10000F540, symSize: 0x20 }
  - { offsetInCU: 0x1DCA0, offset: 0x4D0AF, size: 0x8, addend: 0x0, symName: __ZNSt3__122__compressed_pair_elemINS_9allocatorIP5TradeEELi1ELb1EEC2B8ue170006ENS_18__default_init_tagE, symObjAddr: 0x7390, symBinAddr: 0x10000F560, symSize: 0x20 }
  - { offsetInCU: 0x1DCD2, offset: 0x4D0E1, size: 0x8, addend: 0x0, symName: __ZNSt3__19allocatorIP5TradeEC2B8ue170006Ev, symObjAddr: 0x73B0, symBinAddr: 0x10000F580, symSize: 0x20 }
  - { offsetInCU: 0x1DCFA, offset: 0x4D109, size: 0x8, addend: 0x0, symName: __ZNSt3__116__non_trivial_ifILb1ENS_9allocatorIP5TradeEEEC2B8ue170006Ev, symObjAddr: 0x73D0, symBinAddr: 0x10000F5A0, symSize: 0x10 }
  - { offsetInCU: 0x1DD22, offset: 0x4D131, size: 0x8, addend: 0x0, symName: __ZNSt3__16vectorIP5TradeNS_9allocatorIS2_EEED2B8ue170006Ev, symObjAddr: 0x73E0, symBinAddr: 0x10000F5B0, symSize: 0x40 }
  - { offsetInCU: 0x1DD4A, offset: 0x4D159, size: 0x8, addend: 0x0, symName: __ZNSt3__16vectorIP5TradeNS_9allocatorIS2_EEE16__destroy_vectorC1B8ue170006ERS5_, symObjAddr: 0x7420, symBinAddr: 0x10000F5F0, symSize: 0x30 }
  - { offsetInCU: 0x1DD81, offset: 0x4D190, size: 0x8, addend: 0x0, symName: __ZNSt3__16vectorIP5TradeNS_9allocatorIS2_EEE16__destroy_vectorclB8ue170006Ev, symObjAddr: 0x7450, symBinAddr: 0x10000F620, symSize: 0x80 }
  - { offsetInCU: 0x1DDA5, offset: 0x4D1B4, size: 0x8, addend: 0x0, symName: __ZNSt3__16vectorIP5TradeNS_9allocatorIS2_EEE16__destroy_vectorC2B8ue170006ERS5_, symObjAddr: 0x74D0, symBinAddr: 0x10000F6A0, symSize: 0x20 }
  - { offsetInCU: 0x1DDDC, offset: 0x4D1EB, size: 0x8, addend: 0x0, symName: __ZNSt3__16vectorIP5TradeNS_9allocatorIS2_EEE7__clearB8ue170006Ev, symObjAddr: 0x74F0, symBinAddr: 0x10000F6C0, symSize: 0x20 }
  - { offsetInCU: 0x1DE00, offset: 0x4D20F, size: 0x8, addend: 0x0, symName: __ZNKSt3__16vectorIP5TradeNS_9allocatorIS2_EEE17__annotate_deleteB8ue170006Ev, symObjAddr: 0x7510, symBinAddr: 0x10000F6E0, symSize: 0xB0 }
  - { offsetInCU: 0x1DE24, offset: 0x4D233, size: 0x8, addend: 0x0, symName: __ZNSt3__116allocator_traitsINS_9allocatorIP5TradeEEE10deallocateB8ue170006ERS4_PS3_m, symObjAddr: 0x75C0, symBinAddr: 0x10000F790, symSize: 0x30 }
  - { offsetInCU: 0x1DE65, offset: 0x4D274, size: 0x8, addend: 0x0, symName: __ZNSt3__16vectorIP5TradeNS_9allocatorIS2_EEE7__allocB8ue170006Ev, symObjAddr: 0x75F0, symBinAddr: 0x10000F7C0, symSize: 0x20 }
  - { offsetInCU: 0x1DE89, offset: 0x4D298, size: 0x8, addend: 0x0, symName: __ZNKSt3__16vectorIP5TradeNS_9allocatorIS2_EEE8capacityB8ue170006Ev, symObjAddr: 0x7610, symBinAddr: 0x10000F7E0, symSize: 0x30 }
  - { offsetInCU: 0x1DEAD, offset: 0x4D2BC, size: 0x8, addend: 0x0, symName: __ZNSt3__16vectorIP5TradeNS_9allocatorIS2_EEE22__base_destruct_at_endB8ue170006EPS2_, symObjAddr: 0x7640, symBinAddr: 0x10000F810, symSize: 0x80 }
  - { offsetInCU: 0x1DEEF, offset: 0x4D2FE, size: 0x8, addend: 0x0, symName: __ZNSt3__116allocator_traitsINS_9allocatorIP5TradeEEE7destroyB8ue170006IS3_vEEvRS4_PT_, symObjAddr: 0x76C0, symBinAddr: 0x10000F890, symSize: 0x30 }
  - { offsetInCU: 0x1DF2B, offset: 0x4D33A, size: 0x8, addend: 0x0, symName: __ZNSt3__19allocatorIP5TradeE7destroyB8ue170006EPS2_, symObjAddr: 0x7700, symBinAddr: 0x10000F8D0, symSize: 0x10 }
  - { offsetInCU: 0x1DF5D, offset: 0x4D36C, size: 0x8, addend: 0x0, symName: __ZNKSt3__16vectorIP5TradeNS_9allocatorIS2_EEE31__annotate_contiguous_containerB8ue170006EPKvS7_S7_S7_, symObjAddr: 0x7710, symBinAddr: 0x10000F8E0, symSize: 0x20 }
  - { offsetInCU: 0x1DFB1, offset: 0x4D3C0, size: 0x8, addend: 0x0, symName: __ZNKSt3__16vectorIP5TradeNS_9allocatorIS2_EEE4dataB8ue170006Ev, symObjAddr: 0x7730, symBinAddr: 0x10000F900, symSize: 0x20 }
  - { offsetInCU: 0x1DFD5, offset: 0x4D3E4, size: 0x8, addend: 0x0, symName: __ZNKSt3__16vectorIP5TradeNS_9allocatorIS2_EEE4sizeB8ue170006Ev, symObjAddr: 0x7750, symBinAddr: 0x10000F920, symSize: 0x20 }
  - { offsetInCU: 0x1DFF9, offset: 0x4D408, size: 0x8, addend: 0x0, symName: __ZNSt3__19allocatorIP5TradeE10deallocateB8ue170006EPS2_m, symObjAddr: 0x7770, symBinAddr: 0x10000F940, symSize: 0x40 }
  - { offsetInCU: 0x1E039, offset: 0x4D448, size: 0x8, addend: 0x0, symName: __ZNSt3__117__compressed_pairIPP5TradeNS_9allocatorIS2_EEE6secondB8ue170006Ev, symObjAddr: 0x77B0, symBinAddr: 0x10000F980, symSize: 0x20 }
  - { offsetInCU: 0x1E05D, offset: 0x4D46C, size: 0x8, addend: 0x0, symName: __ZNSt3__122__compressed_pair_elemINS_9allocatorIP5TradeEELi1ELb1EE5__getB8ue170006Ev, symObjAddr: 0x77D0, symBinAddr: 0x10000F9A0, symSize: 0x10 }
  - { offsetInCU: 0x1E081, offset: 0x4D490, size: 0x8, addend: 0x0, symName: __ZNKSt3__16vectorIP5TradeNS_9allocatorIS2_EEE9__end_capB8ue170006Ev, symObjAddr: 0x77E0, symBinAddr: 0x10000F9B0, symSize: 0x20 }
  - { offsetInCU: 0x1E0A5, offset: 0x4D4B4, size: 0x8, addend: 0x0, symName: __ZNKSt3__117__compressed_pairIPP5TradeNS_9allocatorIS2_EEE5firstB8ue170006Ev, symObjAddr: 0x7800, symBinAddr: 0x10000F9D0, symSize: 0x20 }
  - { offsetInCU: 0x1E0C9, offset: 0x4D4D8, size: 0x8, addend: 0x0, symName: __ZNKSt3__122__compressed_pair_elemIPP5TradeLi0ELb0EE5__getB8ue170006Ev, symObjAddr: 0x7820, symBinAddr: 0x10000F9F0, symSize: 0x10 }
  - { offsetInCU: 0x1E0ED, offset: 0x4D4FC, size: 0x8, addend: 0x0, symName: __ZNSt3__16vectorIP5TradeNS_9allocatorIS2_EEE9__end_capB8ue170006Ev, symObjAddr: 0x7830, symBinAddr: 0x10000FA00, symSize: 0x20 }
  - { offsetInCU: 0x1E111, offset: 0x4D520, size: 0x8, addend: 0x0, symName: __ZNSt3__16vectorIP5TradeNS_9allocatorIS2_EEE22__construct_one_at_endB8ue170006IJRKS2_EEEvDpOT_, symObjAddr: 0x7850, symBinAddr: 0x10000FA20, symSize: 0x90 }
  - { offsetInCU: 0x1E15E, offset: 0x4D56D, size: 0x8, addend: 0x0, symName: __ZNSt3__16vectorIP5TradeNS_9allocatorIS2_EEE21__push_back_slow_pathIRKS2_EEvOT_, symObjAddr: 0x78E0, symBinAddr: 0x10000FAB0, symSize: 0xD0 }
  - { offsetInCU: 0x1E1BA, offset: 0x4D5C9, size: 0x8, addend: 0x0, symName: __ZNSt3__117__compressed_pairIPP5TradeNS_9allocatorIS2_EEE5firstB8ue170006Ev, symObjAddr: 0x79B0, symBinAddr: 0x10000FB80, symSize: 0x20 }
  - { offsetInCU: 0x1E1DE, offset: 0x4D5ED, size: 0x8, addend: 0x0, symName: __ZNSt3__122__compressed_pair_elemIPP5TradeLi0ELb0EE5__getB8ue170006Ev, symObjAddr: 0x79D0, symBinAddr: 0x10000FBA0, symSize: 0x10 }
  - { offsetInCU: 0x1E21B, offset: 0x4D62A, size: 0x8, addend: 0x0, symName: __ZNSt3__16vectorIP5TradeNS_9allocatorIS2_EEE21_ConstructTransactionC1B8ue170006ERS5_m, symObjAddr: 0x79E0, symBinAddr: 0x10000FBB0, symSize: 0x30 }
  - { offsetInCU: 0x1E261, offset: 0x4D670, size: 0x8, addend: 0x0, symName: __ZNSt3__116allocator_traitsINS_9allocatorIP5TradeEEE9constructB8ue170006IS3_JRKS3_EvEEvRS4_PT_DpOT0_, symObjAddr: 0x7A10, symBinAddr: 0x10000FBE0, symSize: 0x30 }
  - { offsetInCU: 0x1E2B7, offset: 0x4D6C6, size: 0x8, addend: 0x0, symName: __ZNSt3__16vectorIP5TradeNS_9allocatorIS2_EEE21_ConstructTransactionD1B8ue170006Ev, symObjAddr: 0x7A40, symBinAddr: 0x10000FC10, symSize: 0x20 }
  - { offsetInCU: 0x1E2DF, offset: 0x4D6EE, size: 0x8, addend: 0x0, symName: __ZNSt3__16vectorIP5TradeNS_9allocatorIS2_EEE21_ConstructTransactionC2B8ue170006ERS5_m, symObjAddr: 0x7A60, symBinAddr: 0x10000FC30, symSize: 0x40 }
  - { offsetInCU: 0x1E325, offset: 0x4D734, size: 0x8, addend: 0x0, symName: __ZNSt3__19allocatorIP5TradeE9constructB8ue170006IS2_JRKS2_EEEvPT_DpOT0_, symObjAddr: 0x7AA0, symBinAddr: 0x10000FC70, symSize: 0x20 }
  - { offsetInCU: 0x1E379, offset: 0x4D788, size: 0x8, addend: 0x0, symName: __ZNSt3__16vectorIP5TradeNS_9allocatorIS2_EEE21_ConstructTransactionD2B8ue170006Ev, symObjAddr: 0x7AC0, symBinAddr: 0x10000FC90, symSize: 0x20 }
  - { offsetInCU: 0x1E3A1, offset: 0x4D7B0, size: 0x8, addend: 0x0, symName: __ZNKSt3__16vectorIP5TradeNS_9allocatorIS2_EEE11__recommendB8ue170006Em, symObjAddr: 0x7AE0, symBinAddr: 0x10000FCB0, symSize: 0xA0 }
  - { offsetInCU: 0x1E3F4, offset: 0x4D803, size: 0x8, addend: 0x0, symName: __ZNSt3__114__split_bufferIP5TradeRNS_9allocatorIS2_EEEC1EmmS5_, symObjAddr: 0x7B80, symBinAddr: 0x10000FD50, symSize: 0x40 }
  - { offsetInCU: 0x1E449, offset: 0x4D858, size: 0x8, addend: 0x0, symName: __ZNSt3__114__split_bufferIP5TradeRNS_9allocatorIS2_EEED1Ev, symObjAddr: 0x7CE0, symBinAddr: 0x10000FEB0, symSize: 0x20 }
  - { offsetInCU: 0x1E474, offset: 0x4D883, size: 0x8, addend: 0x0, symName: __ZNKSt3__16vectorIP5TradeNS_9allocatorIS2_EEE8max_sizeEv, symObjAddr: 0x7D00, symBinAddr: 0x10000FED0, symSize: 0x60 }
  - { offsetInCU: 0x1E49A, offset: 0x4D8A9, size: 0x8, addend: 0x0, symName: __ZNKSt3__16vectorIP5TradeNS_9allocatorIS2_EEE20__throw_length_errorB8ue170006Ev, symObjAddr: 0x7D60, symBinAddr: 0x10000FF30, symSize: 0x20 }
  - { offsetInCU: 0x1E4C8, offset: 0x4D8D7, size: 0x8, addend: 0x0, symName: __ZNSt3__116allocator_traitsINS_9allocatorIP5TradeEEE8max_sizeB8ue170006IS4_vEEmRKS4_, symObjAddr: 0x7D80, symBinAddr: 0x10000FF50, symSize: 0x20 }
  - { offsetInCU: 0x1E4F5, offset: 0x4D904, size: 0x8, addend: 0x0, symName: __ZNKSt3__16vectorIP5TradeNS_9allocatorIS2_EEE7__allocB8ue170006Ev, symObjAddr: 0x7DA0, symBinAddr: 0x10000FF70, symSize: 0x20 }
  - { offsetInCU: 0x1E519, offset: 0x4D928, size: 0x8, addend: 0x0, symName: __ZNKSt3__19allocatorIP5TradeE8max_sizeB8ue170006Ev, symObjAddr: 0x7DC0, symBinAddr: 0x10000FF90, symSize: 0x20 }
  - { offsetInCU: 0x1E53D, offset: 0x4D94C, size: 0x8, addend: 0x0, symName: __ZNKSt3__117__compressed_pairIPP5TradeNS_9allocatorIS2_EEE6secondB8ue170006Ev, symObjAddr: 0x7DE0, symBinAddr: 0x10000FFB0, symSize: 0x20 }
  - { offsetInCU: 0x1E561, offset: 0x4D970, size: 0x8, addend: 0x0, symName: __ZNKSt3__122__compressed_pair_elemINS_9allocatorIP5TradeEELi1ELb1EE5__getB8ue170006Ev, symObjAddr: 0x7E00, symBinAddr: 0x10000FFD0, symSize: 0x10 }
  - { offsetInCU: 0x1E585, offset: 0x4D994, size: 0x8, addend: 0x0, symName: __ZNSt3__114__split_bufferIP5TradeRNS_9allocatorIS2_EEEC2EmmS5_, symObjAddr: 0x7E10, symBinAddr: 0x10000FFE0, symSize: 0xD0 }
  - { offsetInCU: 0x1E5F8, offset: 0x4DA07, size: 0x8, addend: 0x0, symName: __ZNSt3__117__compressed_pairIPP5TradeRNS_9allocatorIS2_EEEC1B8ue170006IDnS6_EEOT_OT0_, symObjAddr: 0x7EE0, symBinAddr: 0x1000100B0, symSize: 0x30 }
  - { offsetInCU: 0x1E64E, offset: 0x4DA5D, size: 0x8, addend: 0x0, symName: __ZNSt3__114__split_bufferIP5TradeRNS_9allocatorIS2_EEE7__allocB8ue170006Ev, symObjAddr: 0x7F50, symBinAddr: 0x100010120, symSize: 0x20 }
  - { offsetInCU: 0x1E672, offset: 0x4DA81, size: 0x8, addend: 0x0, symName: __ZNSt3__114__split_bufferIP5TradeRNS_9allocatorIS2_EEE9__end_capB8ue170006Ev, symObjAddr: 0x7F70, symBinAddr: 0x100010140, symSize: 0x20 }
  - { offsetInCU: 0x1E696, offset: 0x4DAA5, size: 0x8, addend: 0x0, symName: __ZNSt3__117__compressed_pairIPP5TradeRNS_9allocatorIS2_EEEC2B8ue170006IDnS6_EEOT_OT0_, symObjAddr: 0x7F90, symBinAddr: 0x100010160, symSize: 0x40 }
  - { offsetInCU: 0x1E6EC, offset: 0x4DAFB, size: 0x8, addend: 0x0, symName: __ZNSt3__122__compressed_pair_elemIRNS_9allocatorIP5TradeEELi1ELb0EEC2B8ue170006IS5_vEEOT_, symObjAddr: 0x7FD0, symBinAddr: 0x1000101A0, symSize: 0x20 }
  - { offsetInCU: 0x1E72C, offset: 0x4DB3B, size: 0x8, addend: 0x0, symName: __ZNSt3__19allocatorIP5TradeE8allocateB8ue170006Em, symObjAddr: 0x7FF0, symBinAddr: 0x1000101C0, symSize: 0x50 }
  - { offsetInCU: 0x1E75E, offset: 0x4DB6D, size: 0x8, addend: 0x0, symName: __ZNSt3__117__compressed_pairIPP5TradeRNS_9allocatorIS2_EEE6secondB8ue170006Ev, symObjAddr: 0x8040, symBinAddr: 0x100010210, symSize: 0x20 }
  - { offsetInCU: 0x1E782, offset: 0x4DB91, size: 0x8, addend: 0x0, symName: __ZNSt3__122__compressed_pair_elemIRNS_9allocatorIP5TradeEELi1ELb0EE5__getB8ue170006Ev, symObjAddr: 0x8060, symBinAddr: 0x100010230, symSize: 0x20 }
  - { offsetInCU: 0x1E7A6, offset: 0x4DBB5, size: 0x8, addend: 0x0, symName: __ZNSt3__117__compressed_pairIPP5TradeRNS_9allocatorIS2_EEE5firstB8ue170006Ev, symObjAddr: 0x8080, symBinAddr: 0x100010250, symSize: 0x20 }
  - { offsetInCU: 0x1E7CA, offset: 0x4DBD9, size: 0x8, addend: 0x0, symName: __ZNSt3__116reverse_iteratorIPP5TradeEC1B8ue170006ES3_, symObjAddr: 0x8110, symBinAddr: 0x1000102E0, symSize: 0x30 }
  - { offsetInCU: 0x1E800, offset: 0x4DC0F, size: 0x8, addend: 0x0, symName: __ZNKSt3__116reverse_iteratorIPP5TradeE4baseB8ue170006Ev, symObjAddr: 0x8140, symBinAddr: 0x100010310, symSize: 0x20 }
  - { offsetInCU: 0x1E824, offset: 0x4DC33, size: 0x8, addend: 0x0, symName: __ZNKSt3__16vectorIP5TradeNS_9allocatorIS2_EEE14__annotate_newB8ue170006Em, symObjAddr: 0x81A0, symBinAddr: 0x100010370, symSize: 0xB0 }
  - { offsetInCU: 0x1E870, offset: 0x4DC7F, size: 0x8, addend: 0x0, symName: __ZNKSt3__111__move_loopINS_17_ClassicAlgPolicyEEclB8ue170006INS_16reverse_iteratorIPP5TradeEES8_S8_EENS_4pairIT_T1_EESA_T0_SB_, symObjAddr: 0x8690, symBinAddr: 0x100010860, symSize: 0xA0 }
  - { offsetInCU: 0x1E8DE, offset: 0x4DCED, size: 0x8, addend: 0x0, symName: __ZNSt3__18_IterOpsINS_17_ClassicAlgPolicyEE11__iter_moveB8ue170006IRNS_16reverse_iteratorIPP5TradeEEEENS_9enable_ifIXsr12is_referenceIDTdeclsr3stdE7declvalIRT_EEEEE5valueEDTclsr3stdE4movedeclsr3stdE7declvalISC_EEEEE4typeEOSB_, symObjAddr: 0x88B0, symBinAddr: 0x100010A80, symSize: 0x20 }
  - { offsetInCU: 0x1E909, offset: 0x4DD18, size: 0x8, addend: 0x0, symName: __ZNKSt3__116reverse_iteratorIPP5TradeEdeB8ue170006Ev, symObjAddr: 0x88D0, symBinAddr: 0x100010AA0, symSize: 0x30 }
  - { offsetInCU: 0x1E93B, offset: 0x4DD4A, size: 0x8, addend: 0x0, symName: __ZNSt3__116reverse_iteratorIPP5TradeEppB8ue170006Ev, symObjAddr: 0x8900, symBinAddr: 0x100010AD0, symSize: 0x20 }
  - { offsetInCU: 0x1E95F, offset: 0x4DD6E, size: 0x8, addend: 0x0, symName: __ZNSt3__18_IterOpsINS_17_ClassicAlgPolicyEE25__validate_iter_referenceB8ue170006IRNS_16reverse_iteratorIPP5TradeEEEEvv, symObjAddr: 0x8920, symBinAddr: 0x100010AF0, symSize: 0x10 }
  - { offsetInCU: 0x1E97C, offset: 0x4DD8B, size: 0x8, addend: 0x0, symName: __ZNSt3__118__unwrap_iter_implINS_16reverse_iteratorIPP5TradeEELb0EE8__unwrapB8ue170006ES5_, symObjAddr: 0x8930, symBinAddr: 0x100010B00, symSize: 0x20 }
  - { offsetInCU: 0x1E9A3, offset: 0x4DDB2, size: 0x8, addend: 0x0, symName: __ZNSt3__14pairINS_16reverse_iteratorIPP5TradeEES5_EC1B8ue170006IS5_S5_LPv0EEEOT_OT0_, symObjAddr: 0x8950, symBinAddr: 0x100010B20, symSize: 0x30 }
  - { offsetInCU: 0x1EA00, offset: 0x4DE0F, size: 0x8, addend: 0x0, symName: __ZNSt3__14pairINS_16reverse_iteratorIPP5TradeEES5_EC2B8ue170006IS5_S5_LPv0EEEOT_OT0_, symObjAddr: 0x8980, symBinAddr: 0x100010B50, symSize: 0x40 }
  - { offsetInCU: 0x1EA5D, offset: 0x4DE6C, size: 0x8, addend: 0x0, symName: __ZNSt3__118__unwrap_iter_implINS_16reverse_iteratorIPP5TradeEELb0EE8__rewrapB8ue170006ES5_S5_, symObjAddr: 0x89C0, symBinAddr: 0x100010B90, symSize: 0x30 }
  - { offsetInCU: 0x1EA89, offset: 0x4DE98, size: 0x8, addend: 0x0, symName: __ZNSt3__116reverse_iteratorIPP5TradeEC2B8ue170006ES3_, symObjAddr: 0x89F0, symBinAddr: 0x100010BC0, symSize: 0x30 }
  - { offsetInCU: 0x1EABF, offset: 0x4DECE, size: 0x8, addend: 0x0, symName: __ZNSt3__114__split_bufferIP5TradeRNS_9allocatorIS2_EEED2Ev, symObjAddr: 0x8A20, symBinAddr: 0x100010BF0, symSize: 0x70 }
  - { offsetInCU: 0x1EAEA, offset: 0x4DEF9, size: 0x8, addend: 0x0, symName: __ZNSt3__114__split_bufferIP5TradeRNS_9allocatorIS2_EEE5clearB8ue170006Ev, symObjAddr: 0x8A90, symBinAddr: 0x100010C60, symSize: 0x20 }
  - { offsetInCU: 0x1EB0E, offset: 0x4DF1D, size: 0x8, addend: 0x0, symName: __ZNKSt3__114__split_bufferIP5TradeRNS_9allocatorIS2_EEE8capacityB8ue170006Ev, symObjAddr: 0x8AB0, symBinAddr: 0x100010C80, symSize: 0x30 }
  - { offsetInCU: 0x1EB32, offset: 0x4DF41, size: 0x8, addend: 0x0, symName: __ZNSt3__114__split_bufferIP5TradeRNS_9allocatorIS2_EEE17__destruct_at_endB8ue170006EPS2_, symObjAddr: 0x8AE0, symBinAddr: 0x100010CB0, symSize: 0x30 }
  - { offsetInCU: 0x1EB64, offset: 0x4DF73, size: 0x8, addend: 0x0, symName: __ZNSt3__114__split_bufferIP5TradeRNS_9allocatorIS2_EEE17__destruct_at_endB8ue170006EPS2_NS_17integral_constantIbLb0EEE, symObjAddr: 0x8B10, symBinAddr: 0x100010CE0, symSize: 0x80 }
  - { offsetInCU: 0x1EBA2, offset: 0x4DFB1, size: 0x8, addend: 0x0, symName: __ZNKSt3__114__split_bufferIP5TradeRNS_9allocatorIS2_EEE9__end_capB8ue170006Ev, symObjAddr: 0x8B90, symBinAddr: 0x100010D60, symSize: 0x20 }
  - { offsetInCU: 0x1EBC6, offset: 0x4DFD5, size: 0x8, addend: 0x0, symName: __ZNKSt3__117__compressed_pairIPP5TradeRNS_9allocatorIS2_EEE5firstB8ue170006Ev, symObjAddr: 0x8BB0, symBinAddr: 0x100010D80, symSize: 0x20 }
  - { offsetInCU: 0x1EBEA, offset: 0x4DFF9, size: 0x8, addend: 0x0, symName: __ZNSt3__16vectorIP5TradeNS_9allocatorIS2_EEE11__make_iterB8ue170006EPS2_, symObjAddr: 0x8BD0, symBinAddr: 0x100010DA0, symSize: 0x30 }
  - { offsetInCU: 0x1EC1D, offset: 0x4E02C, size: 0x8, addend: 0x0, symName: __ZNSt3__111__wrap_iterIPP5TradeEC1B8ue170006ES3_, symObjAddr: 0x8C00, symBinAddr: 0x100010DD0, symSize: 0x30 }
  - { offsetInCU: 0x1EC53, offset: 0x4E062, size: 0x8, addend: 0x0, symName: __ZNSt3__111__wrap_iterIPP5TradeEC2B8ue170006ES3_, symObjAddr: 0x8C30, symBinAddr: 0x100010E00, symSize: 0x20 }
...
